
D:/projects/learnfreertos/learnfreertos/programs/rp2040/build/ProjectFiles/blink.elf:     file format elf32-littlearm

Sections:
Idx Name          Size      VMA       LMA       File off  Algn
  0 .boot2        00000100  10000000  10000000  00001000  2**0
                  CONTENTS, ALLOC, LOAD, READONLY, CODE
  1 .text         00005428  10000100  10000100  00001100  2**4
                  CONTENTS, ALLOC, LOAD, READONLY, CODE
  2 .rodata       0000013c  10005528  10005528  00006528  2**2
                  CONTENTS, ALLOC, LOAD, READONLY, DATA
  3 .binary_info  00000024  10005664  10005664  00006664  2**2
                  CONTENTS, ALLOC, LOAD, DATA
  4 .ram_vector_table 000000c0  20000000  20000000  00007a84  2**2
                  CONTENTS
  5 .data         000009c4  200000c0  10005688  000070c0  2**4
                  CONTENTS, ALLOC, LOAD, CODE
  6 .uninitialized_data 00000000  20000a84  20000a84  00007b44  2**0
                  CONTENTS
  7 .scratch_x    00000000  20040000  20040000  00007b44  2**0
                  CONTENTS
  8 .scratch_y    00000000  20041000  20041000  00007b44  2**0
                  CONTENTS
  9 .bss          000005a4  20000a88  20000a88  00007a88  2**3
                  ALLOC
 10 .heap         00000800  2000102c  2000102c  00007b44  2**2
                  CONTENTS, READONLY
 11 .stack_dummy  00000800  20041000  20041000  00008360  2**5
                  CONTENTS, READONLY
 12 .ARM.attributes 00000028  00000000  00000000  00008b60  2**0
                  CONTENTS, READONLY
 13 .comment      00000049  00000000  00000000  00008b88  2**0
                  CONTENTS, READONLY
 14 .debug_frame  00000264  00000000  00000000  00008bd4  2**2
                  CONTENTS, READONLY, DEBUGGING, OCTETS

D:/projects/learnfreertos/learnfreertos/programs/rp2040/build/ProjectFiles/blink.elf:     file format elf32-littlearm


Disassembly of section .boot2:

10000000 <__boot2_start__>:
10000000:	4b32b500 	.word	0x4b32b500
10000004:	60582021 	.word	0x60582021
10000008:	21026898 	.word	0x21026898
1000000c:	60984388 	.word	0x60984388
10000010:	611860d8 	.word	0x611860d8
10000014:	4b2e6158 	.word	0x4b2e6158
10000018:	60992100 	.word	0x60992100
1000001c:	61592102 	.word	0x61592102
10000020:	22f02101 	.word	0x22f02101
10000024:	492b5099 	.word	0x492b5099
10000028:	21016019 	.word	0x21016019
1000002c:	20356099 	.word	0x20356099
10000030:	f844f000 	.word	0xf844f000
10000034:	42902202 	.word	0x42902202
10000038:	2106d014 	.word	0x2106d014
1000003c:	f0006619 	.word	0xf0006619
10000040:	6e19f834 	.word	0x6e19f834
10000044:	66192101 	.word	0x66192101
10000048:	66182000 	.word	0x66182000
1000004c:	f000661a 	.word	0xf000661a
10000050:	6e19f82c 	.word	0x6e19f82c
10000054:	6e196e19 	.word	0x6e196e19
10000058:	f0002005 	.word	0xf0002005
1000005c:	2101f82f 	.word	0x2101f82f
10000060:	d1f94208 	.word	0xd1f94208
10000064:	60992100 	.word	0x60992100
10000068:	6019491b 	.word	0x6019491b
1000006c:	60592100 	.word	0x60592100
10000070:	481b491a 	.word	0x481b491a
10000074:	21016001 	.word	0x21016001
10000078:	21eb6099 	.word	0x21eb6099
1000007c:	21a06619 	.word	0x21a06619
10000080:	f0006619 	.word	0xf0006619
10000084:	2100f812 	.word	0x2100f812
10000088:	49166099 	.word	0x49166099
1000008c:	60014814 	.word	0x60014814
10000090:	60992101 	.word	0x60992101
10000094:	2800bc01 	.word	0x2800bc01
10000098:	4700d000 	.word	0x4700d000
1000009c:	49134812 	.word	0x49134812
100000a0:	c8036008 	.word	0xc8036008
100000a4:	8808f380 	.word	0x8808f380
100000a8:	b5034708 	.word	0xb5034708
100000ac:	20046a99 	.word	0x20046a99
100000b0:	d0fb4201 	.word	0xd0fb4201
100000b4:	42012001 	.word	0x42012001
100000b8:	bd03d1f8 	.word	0xbd03d1f8
100000bc:	6618b502 	.word	0x6618b502
100000c0:	f7ff6618 	.word	0xf7ff6618
100000c4:	6e18fff2 	.word	0x6e18fff2
100000c8:	bd026e18 	.word	0xbd026e18
100000cc:	40020000 	.word	0x40020000
100000d0:	18000000 	.word	0x18000000
100000d4:	00070000 	.word	0x00070000
100000d8:	005f0300 	.word	0x005f0300
100000dc:	00002221 	.word	0x00002221
100000e0:	180000f4 	.word	0x180000f4
100000e4:	a0002022 	.word	0xa0002022
100000e8:	10000100 	.word	0x10000100
100000ec:	e000ed08 	.word	0xe000ed08
	...
100000fc:	7a4eb274 	.word	0x7a4eb274

Disassembly of section .text:

10000100 <__VECTOR_TABLE>:
10000100:	20042000 	.word	0x20042000
10000104:	100001f7 	.word	0x100001f7
10000108:	100001c3 	.word	0x100001c3
1000010c:	100001c5 	.word	0x100001c5
10000110:	100001c1 	.word	0x100001c1
10000114:	100001c1 	.word	0x100001c1
10000118:	100001c1 	.word	0x100001c1
1000011c:	100001c1 	.word	0x100001c1
10000120:	100001c1 	.word	0x100001c1
10000124:	100001c1 	.word	0x100001c1
10000128:	100001c1 	.word	0x100001c1
1000012c:	10003875 	.word	0x10003875
10000130:	100001c1 	.word	0x100001c1
10000134:	100001c1 	.word	0x100001c1
10000138:	100038d1 	.word	0x100038d1
1000013c:	10003915 	.word	0x10003915
10000140:	100001cd 	.word	0x100001cd
10000144:	100001cd 	.word	0x100001cd
10000148:	100001cd 	.word	0x100001cd
1000014c:	100001cd 	.word	0x100001cd
10000150:	100001cd 	.word	0x100001cd
10000154:	100001cd 	.word	0x100001cd
10000158:	100001cd 	.word	0x100001cd
1000015c:	100001cd 	.word	0x100001cd
10000160:	100001cd 	.word	0x100001cd
10000164:	100001cd 	.word	0x100001cd
10000168:	100001cd 	.word	0x100001cd
1000016c:	100001cd 	.word	0x100001cd
10000170:	100001cd 	.word	0x100001cd
10000174:	100001cd 	.word	0x100001cd
10000178:	100001cd 	.word	0x100001cd
1000017c:	100001cd 	.word	0x100001cd
10000180:	100001cd 	.word	0x100001cd
10000184:	100001cd 	.word	0x100001cd
10000188:	100001cd 	.word	0x100001cd
1000018c:	100001cd 	.word	0x100001cd
10000190:	100001cd 	.word	0x100001cd
10000194:	100001cd 	.word	0x100001cd
10000198:	100001cd 	.word	0x100001cd
1000019c:	100001cd 	.word	0x100001cd
100001a0:	100001cd 	.word	0x100001cd
100001a4:	100001cd 	.word	0x100001cd
100001a8:	100001cd 	.word	0x100001cd
100001ac:	100001cd 	.word	0x100001cd
100001b0:	100001cd 	.word	0x100001cd
100001b4:	100001cd 	.word	0x100001cd
100001b8:	100001cd 	.word	0x100001cd
100001bc:	100001cd 	.word	0x100001cd

100001c0 <isr_invalid>:
100001c0:	be00      	bkpt	0x0000

100001c2 <isr_nmi>:
100001c2:	be00      	bkpt	0x0000

100001c4 <isr_hardfault>:
100001c4:	be00      	bkpt	0x0000
100001c6:	be00      	bkpt	0x0000
100001c8:	be00      	bkpt	0x0000
100001ca:	be00      	bkpt	0x0000

100001cc <__unhandled_user_irq>:
100001cc:	f000 f84b 	bl	10000266 <__get_current_exception>
100001d0:	3810      	subs	r0, #16

100001d2 <unhandled_user_irq_num_in_r0>:
100001d2:	be00      	bkpt	0x0000

100001d4 <binary_info_header>:
100001d4:	7188ebf2 	.word	0x7188ebf2
100001d8:	10005664 	.word	0x10005664
100001dc:	10005688 	.word	0x10005688
100001e0:	10000234 	.word	0x10000234
100001e4:	e71aa390 	.word	0xe71aa390

100001e8 <_entry_point>:
100001e8:	2000      	movs	r0, #0
100001ea:	4921      	ldr	r1, [pc, #132]	; (10000270 <__get_current_exception+0xa>)
100001ec:	6008      	str	r0, [r1, #0]
100001ee:	c806      	ldmia	r0!, {r1, r2}
100001f0:	f381 8808 	msr	MSP, r1
100001f4:	4710      	bx	r2

100001f6 <_reset_handler>:
100001f6:	481f      	ldr	r0, [pc, #124]	; (10000274 <__get_current_exception+0xe>)
100001f8:	6800      	ldr	r0, [r0, #0]
100001fa:	2800      	cmp	r0, #0
100001fc:	d12f      	bne.n	1000025e <hold_non_core0_in_bootrom>
100001fe:	a40d      	add	r4, pc, #52	; (adr r4, 10000234 <data_cpy_table>)
10000200:	cc0e      	ldmia	r4!, {r1, r2, r3}
10000202:	2900      	cmp	r1, #0
10000204:	d002      	beq.n	1000020c <_reset_handler+0x16>
10000206:	f000 f812 	bl	1000022e <data_cpy>
1000020a:	e7f9      	b.n	10000200 <_reset_handler+0xa>
1000020c:	491a      	ldr	r1, [pc, #104]	; (10000278 <__get_current_exception+0x12>)
1000020e:	4a1b      	ldr	r2, [pc, #108]	; (1000027c <__get_current_exception+0x16>)
10000210:	2000      	movs	r0, #0
10000212:	e000      	b.n	10000216 <bss_fill_test>

10000214 <bss_fill_loop>:
10000214:	c101      	stmia	r1!, {r0}

10000216 <bss_fill_test>:
10000216:	4291      	cmp	r1, r2
10000218:	d1fc      	bne.n	10000214 <bss_fill_loop>

1000021a <platform_entry>:
1000021a:	4919      	ldr	r1, [pc, #100]	; (10000280 <__get_current_exception+0x1a>)
1000021c:	4788      	blx	r1
1000021e:	4919      	ldr	r1, [pc, #100]	; (10000284 <__get_current_exception+0x1e>)
10000220:	4788      	blx	r1
10000222:	4919      	ldr	r1, [pc, #100]	; (10000288 <__get_current_exception+0x22>)
10000224:	4788      	blx	r1
10000226:	be00      	bkpt	0x0000
10000228:	e7fd      	b.n	10000226 <platform_entry+0xc>

1000022a <data_cpy_loop>:
1000022a:	c901      	ldmia	r1!, {r0}
1000022c:	c201      	stmia	r2!, {r0}

1000022e <data_cpy>:
1000022e:	429a      	cmp	r2, r3
10000230:	d3fb      	bcc.n	1000022a <data_cpy_loop>
10000232:	4770      	bx	lr

10000234 <data_cpy_table>:
10000234:	10005688 	.word	0x10005688
10000238:	200000c0 	.word	0x200000c0
1000023c:	20000a84 	.word	0x20000a84
10000240:	1000604c 	.word	0x1000604c
10000244:	20040000 	.word	0x20040000
10000248:	20040000 	.word	0x20040000
1000024c:	1000604c 	.word	0x1000604c
10000250:	20041000 	.word	0x20041000
10000254:	20041000 	.word	0x20041000
10000258:	00000000 	.word	0x00000000
1000025c:	4770      	bx	lr

1000025e <hold_non_core0_in_bootrom>:
1000025e:	480b      	ldr	r0, [pc, #44]	; (1000028c <__get_current_exception+0x26>)
10000260:	f001 fa8a 	bl	10001778 <rom_func_lookup>
10000264:	4700      	bx	r0

10000266 <__get_current_exception>:
10000266:	f3ef 8005 	mrs	r0, IPSR
1000026a:	b2c0      	uxtb	r0, r0
1000026c:	4770      	bx	lr
1000026e:	0000      	.short	0x0000
10000270:	e000ed08 	.word	0xe000ed08
10000274:	d0000000 	.word	0xd0000000
10000278:	20000a88 	.word	0x20000a88
1000027c:	2000102c 	.word	0x2000102c
10000280:	10000f09 	.word	0x10000f09
10000284:	10000331 	.word	0x10000331
10000288:	1000102d 	.word	0x1000102d
1000028c:	00005657 	.word	0x00005657

10000290 <__bi_50>:
10000290:	50520006 5360b3ab 100055a0              ..RP..`S.U..

1000029c <__bi_38>:
1000029c:	50520006 02031c86 100055b0              ..RP.....U..

100002a8 <__bi_30>:
100002a8:	50520006 9da22254 100055b8              ..RPT"...U..

100002b4 <__bi_22>:
100002b4:	50520005 68f465de 1000604c              ..RP.e.hL`..

100002c0 <_init>:
100002c0:	b5f8      	push	{r3, r4, r5, r6, r7, lr}
100002c2:	46c0      	nop			; (mov r8, r8)

100002c4 <__do_global_dtors_aux>:
100002c4:	b510      	push	{r4, lr}
100002c6:	4c06      	ldr	r4, [pc, #24]	; (100002e0 <__do_global_dtors_aux+0x1c>)
100002c8:	7823      	ldrb	r3, [r4, #0]
100002ca:	2b00      	cmp	r3, #0
100002cc:	d107      	bne.n	100002de <__do_global_dtors_aux+0x1a>
100002ce:	4b05      	ldr	r3, [pc, #20]	; (100002e4 <__do_global_dtors_aux+0x20>)
100002d0:	2b00      	cmp	r3, #0
100002d2:	d002      	beq.n	100002da <__do_global_dtors_aux+0x16>
100002d4:	4804      	ldr	r0, [pc, #16]	; (100002e8 <__do_global_dtors_aux+0x24>)
100002d6:	e000      	b.n	100002da <__do_global_dtors_aux+0x16>
100002d8:	bf00      	nop
100002da:	2301      	movs	r3, #1
100002dc:	7023      	strb	r3, [r4, #0]
100002de:	bd10      	pop	{r4, pc}
100002e0:	20000dd8 	.word	0x20000dd8
100002e4:	00000000 	.word	0x00000000
100002e8:	10005528 	.word	0x10005528

100002ec <frame_dummy>:
100002ec:	4b04      	ldr	r3, [pc, #16]	; (10000300 <frame_dummy+0x14>)
100002ee:	b510      	push	{r4, lr}
100002f0:	2b00      	cmp	r3, #0
100002f2:	d003      	beq.n	100002fc <frame_dummy+0x10>
100002f4:	4903      	ldr	r1, [pc, #12]	; (10000304 <frame_dummy+0x18>)
100002f6:	4804      	ldr	r0, [pc, #16]	; (10000308 <frame_dummy+0x1c>)
100002f8:	e000      	b.n	100002fc <frame_dummy+0x10>
100002fa:	bf00      	nop
100002fc:	bd10      	pop	{r4, pc}
100002fe:	46c0      	nop			; (mov r8, r8)
10000300:	00000000 	.word	0x00000000
10000304:	20000ddc 	.word	0x20000ddc
10000308:	10005528 	.word	0x10005528

1000030c <led_task>:
1000030c:	b570      	push	{r4, r5, r6, lr}
1000030e:	24d0      	movs	r4, #208	; 0xd0
10000310:	2580      	movs	r5, #128	; 0x80
10000312:	2019      	movs	r0, #25
10000314:	0624      	lsls	r4, r4, #24
10000316:	04ad      	lsls	r5, r5, #18
10000318:	f000 f838 	bl	1000038c <gpio_init>
1000031c:	6265      	str	r5, [r4, #36]	; 0x24
1000031e:	200a      	movs	r0, #10
10000320:	6165      	str	r5, [r4, #20]
10000322:	f002 fac9 	bl	100028b8 <vTaskDelay>
10000326:	200a      	movs	r0, #10
10000328:	61a5      	str	r5, [r4, #24]
1000032a:	f002 fac5 	bl	100028b8 <vTaskDelay>
1000032e:	e7f6      	b.n	1000031e <led_task+0x12>

10000330 <main>:
10000330:	b500      	push	{lr}
10000332:	b083      	sub	sp, #12
10000334:	f001 fcb6 	bl	10001ca4 <stdio_init_all>
10000338:	2300      	movs	r3, #0
1000033a:	2280      	movs	r2, #128	; 0x80
1000033c:	9301      	str	r3, [sp, #4]
1000033e:	3301      	adds	r3, #1
10000340:	4904      	ldr	r1, [pc, #16]	; (10000354 <main+0x24>)
10000342:	9300      	str	r3, [sp, #0]
10000344:	0052      	lsls	r2, r2, #1
10000346:	2300      	movs	r3, #0
10000348:	4803      	ldr	r0, [pc, #12]	; (10000358 <main+0x28>)
1000034a:	f001 fe03 	bl	10001f54 <xTaskCreate>
1000034e:	f002 f913 	bl	10002578 <vTaskStartScheduler>
10000352:	e7fe      	b.n	10000352 <main+0x22>
10000354:	10005528 	.word	0x10005528
10000358:	1000030d 	.word	0x1000030d

1000035c <gpio_set_function>:
1000035c:	4a09      	ldr	r2, [pc, #36]	; (10000384 <gpio_set_function+0x28>)
1000035e:	0083      	lsls	r3, r0, #2
10000360:	4694      	mov	ip, r2
10000362:	2240      	movs	r2, #64	; 0x40
10000364:	4463      	add	r3, ip
10000366:	b510      	push	{r4, lr}
10000368:	681c      	ldr	r4, [r3, #0]
1000036a:	00c0      	lsls	r0, r0, #3
1000036c:	4062      	eors	r2, r4
1000036e:	24c0      	movs	r4, #192	; 0xc0
10000370:	4014      	ands	r4, r2
10000372:	2280      	movs	r2, #128	; 0x80
10000374:	0152      	lsls	r2, r2, #5
10000376:	4313      	orrs	r3, r2
10000378:	601c      	str	r4, [r3, #0]
1000037a:	4b03      	ldr	r3, [pc, #12]	; (10000388 <gpio_set_function+0x2c>)
1000037c:	469c      	mov	ip, r3
1000037e:	4460      	add	r0, ip
10000380:	6041      	str	r1, [r0, #4]
10000382:	bd10      	pop	{r4, pc}
10000384:	4001c004 	.word	0x4001c004
10000388:	40014000 	.word	0x40014000

1000038c <gpio_init>:
1000038c:	2301      	movs	r3, #1
1000038e:	22d0      	movs	r2, #208	; 0xd0
10000390:	4083      	lsls	r3, r0
10000392:	0612      	lsls	r2, r2, #24
10000394:	6293      	str	r3, [r2, #40]	; 0x28
10000396:	6193      	str	r3, [r2, #24]
10000398:	4a09      	ldr	r2, [pc, #36]	; (100003c0 <gpio_init+0x34>)
1000039a:	0083      	lsls	r3, r0, #2
1000039c:	4694      	mov	ip, r2
1000039e:	2240      	movs	r2, #64	; 0x40
100003a0:	4463      	add	r3, ip
100003a2:	6819      	ldr	r1, [r3, #0]
100003a4:	00c0      	lsls	r0, r0, #3
100003a6:	404a      	eors	r2, r1
100003a8:	21c0      	movs	r1, #192	; 0xc0
100003aa:	4011      	ands	r1, r2
100003ac:	2280      	movs	r2, #128	; 0x80
100003ae:	0152      	lsls	r2, r2, #5
100003b0:	4313      	orrs	r3, r2
100003b2:	6019      	str	r1, [r3, #0]
100003b4:	4b03      	ldr	r3, [pc, #12]	; (100003c4 <gpio_init+0x38>)
100003b6:	469c      	mov	ip, r3
100003b8:	2305      	movs	r3, #5
100003ba:	4460      	add	r0, ip
100003bc:	6043      	str	r3, [r0, #4]
100003be:	4770      	bx	lr
100003c0:	4001c004 	.word	0x4001c004
100003c4:	40014000 	.word	0x40014000

100003c8 <hw_claim_or_assert>:
100003c8:	b570      	push	{r4, r5, r6, lr}
100003ca:	f3ef 8c10 	mrs	ip, PRIMASK
100003ce:	b672      	cpsid	i
100003d0:	4d0d      	ldr	r5, [pc, #52]	; (10000408 <hw_claim_or_assert+0x40>)
100003d2:	682b      	ldr	r3, [r5, #0]
100003d4:	2b00      	cmp	r3, #0
100003d6:	d0fc      	beq.n	100003d2 <hw_claim_or_assert+0xa>
100003d8:	f3bf 8f5f 	dmb	sy
100003dc:	2407      	movs	r4, #7
100003de:	08cb      	lsrs	r3, r1, #3
100003e0:	18c6      	adds	r6, r0, r3
100003e2:	5cc0      	ldrb	r0, [r0, r3]
100003e4:	2301      	movs	r3, #1
100003e6:	400c      	ands	r4, r1
100003e8:	40a3      	lsls	r3, r4
100003ea:	001c      	movs	r4, r3
100003ec:	4004      	ands	r4, r0
100003ee:	4203      	tst	r3, r0
100003f0:	d107      	bne.n	10000402 <hw_claim_or_assert+0x3a>
100003f2:	4303      	orrs	r3, r0
100003f4:	7033      	strb	r3, [r6, #0]
100003f6:	f3bf 8f5f 	dmb	sy
100003fa:	602c      	str	r4, [r5, #0]
100003fc:	f38c 8810 	msr	PRIMASK, ip
10000400:	bd70      	pop	{r4, r5, r6, pc}
10000402:	0010      	movs	r0, r2
10000404:	f000 fe14 	bl	10001030 <panic>
10000408:	d000012c 	.word	0xd000012c

1000040c <running_on_fpga>:
1000040c:	4b02      	ldr	r3, [pc, #8]	; (10000418 <running_on_fpga+0xc>)
1000040e:	6818      	ldr	r0, [r3, #0]
10000410:	0780      	lsls	r0, r0, #30
10000412:	0fc0      	lsrs	r0, r0, #31
10000414:	4770      	bx	lr
10000416:	46c0      	nop			; (mov r8, r8)
10000418:	4006c000 	.word	0x4006c000

1000041c <spin_locks_reset>:
1000041c:	2100      	movs	r1, #0
1000041e:	4b04      	ldr	r3, [pc, #16]	; (10000430 <spin_locks_reset+0x14>)
10000420:	4a04      	ldr	r2, [pc, #16]	; (10000434 <spin_locks_reset+0x18>)
10000422:	f3bf 8f5f 	dmb	sy
10000426:	c302      	stmia	r3!, {r1}
10000428:	4293      	cmp	r3, r2
1000042a:	d1fa      	bne.n	10000422 <spin_locks_reset+0x6>
1000042c:	4770      	bx	lr
1000042e:	46c0      	nop			; (mov r8, r8)
10000430:	d0000100 	.word	0xd0000100
10000434:	d0000180 	.word	0xd0000180

10000438 <next_striped_spin_lock_num>:
10000438:	4a04      	ldr	r2, [pc, #16]	; (1000044c <next_striped_spin_lock_num+0x14>)
1000043a:	7810      	ldrb	r0, [r2, #0]
1000043c:	1c43      	adds	r3, r0, #1
1000043e:	b2db      	uxtb	r3, r3
10000440:	2b17      	cmp	r3, #23
10000442:	d900      	bls.n	10000446 <next_striped_spin_lock_num+0xe>
10000444:	2310      	movs	r3, #16
10000446:	7013      	strb	r3, [r2, #0]
10000448:	4770      	bx	lr
1000044a:	46c0      	nop			; (mov r8, r8)
1000044c:	20000178 	.word	0x20000178

10000450 <uart_init>:
10000450:	b5f8      	push	{r3, r4, r5, r6, r7, lr}
10000452:	0004      	movs	r4, r0
10000454:	2006      	movs	r0, #6
10000456:	000d      	movs	r5, r1
10000458:	f000 ff66 	bl	10001328 <clock_get_hz>
1000045c:	2800      	cmp	r0, #0
1000045e:	d044      	beq.n	100004ea <uart_init+0x9a>
10000460:	4b2a      	ldr	r3, [pc, #168]	; (1000050c <uart_init+0xbc>)
10000462:	492b      	ldr	r1, [pc, #172]	; (10000510 <uart_init+0xc0>)
10000464:	18e2      	adds	r2, r4, r3
10000466:	4253      	negs	r3, r2
10000468:	415a      	adcs	r2, r3
1000046a:	2380      	movs	r3, #128	; 0x80
1000046c:	03db      	lsls	r3, r3, #15
1000046e:	469c      	mov	ip, r3
10000470:	0592      	lsls	r2, r2, #22
10000472:	4b28      	ldr	r3, [pc, #160]	; (10000514 <uart_init+0xc4>)
10000474:	4462      	add	r2, ip
10000476:	601a      	str	r2, [r3, #0]
10000478:	4b27      	ldr	r3, [pc, #156]	; (10000518 <uart_init+0xc8>)
1000047a:	601a      	str	r2, [r3, #0]
1000047c:	0010      	movs	r0, r2
1000047e:	688b      	ldr	r3, [r1, #8]
10000480:	4398      	bics	r0, r3
10000482:	d1fb      	bne.n	1000047c <uart_init+0x2c>
10000484:	4b21      	ldr	r3, [pc, #132]	; (1000050c <uart_init+0xbc>)
10000486:	2180      	movs	r1, #128	; 0x80
10000488:	18e3      	adds	r3, r4, r3
1000048a:	425a      	negs	r2, r3
1000048c:	4153      	adcs	r3, r2
1000048e:	4a23      	ldr	r2, [pc, #140]	; (1000051c <uart_init+0xcc>)
10000490:	005b      	lsls	r3, r3, #1
10000492:	0049      	lsls	r1, r1, #1
10000494:	5299      	strh	r1, [r3, r2]
10000496:	2006      	movs	r0, #6
10000498:	f000 ff46 	bl	10001328 <clock_get_hz>
1000049c:	0029      	movs	r1, r5
1000049e:	00c0      	lsls	r0, r0, #3
100004a0:	f001 f99c 	bl	100017dc <__wrap___aeabi_uidiv>
100004a4:	09c3      	lsrs	r3, r0, #7
100004a6:	d121      	bne.n	100004ec <uart_init+0x9c>
100004a8:	2740      	movs	r7, #64	; 0x40
100004aa:	2101      	movs	r1, #1
100004ac:	0026      	movs	r6, r4
100004ae:	2580      	movs	r5, #128	; 0x80
100004b0:	6261      	str	r1, [r4, #36]	; 0x24
100004b2:	62a3      	str	r3, [r4, #40]	; 0x28
100004b4:	2300      	movs	r3, #0
100004b6:	362c      	adds	r6, #44	; 0x2c
100004b8:	01ad      	lsls	r5, r5, #6
100004ba:	4335      	orrs	r5, r6
100004bc:	602b      	str	r3, [r5, #0]
100004be:	2006      	movs	r0, #6
100004c0:	f000 ff32 	bl	10001328 <clock_get_hz>
100004c4:	0039      	movs	r1, r7
100004c6:	0080      	lsls	r0, r0, #2
100004c8:	f001 f988 	bl	100017dc <__wrap___aeabi_uidiv>
100004cc:	2360      	movs	r3, #96	; 0x60
100004ce:	6ae2      	ldr	r2, [r4, #44]	; 0x2c
100004d0:	4053      	eors	r3, r2
100004d2:	226e      	movs	r2, #110	; 0x6e
100004d4:	401a      	ands	r2, r3
100004d6:	2380      	movs	r3, #128	; 0x80
100004d8:	015b      	lsls	r3, r3, #5
100004da:	4333      	orrs	r3, r6
100004dc:	601a      	str	r2, [r3, #0]
100004de:	4b10      	ldr	r3, [pc, #64]	; (10000520 <uart_init+0xd0>)
100004e0:	6323      	str	r3, [r4, #48]	; 0x30
100004e2:	2310      	movs	r3, #16
100004e4:	602b      	str	r3, [r5, #0]
100004e6:	3b0d      	subs	r3, #13
100004e8:	64a3      	str	r3, [r4, #72]	; 0x48
100004ea:	bdf8      	pop	{r3, r4, r5, r6, r7, pc}
100004ec:	4a0d      	ldr	r2, [pc, #52]	; (10000524 <uart_init+0xd4>)
100004ee:	4293      	cmp	r3, r2
100004f0:	d903      	bls.n	100004fa <uart_init+0xaa>
100004f2:	2300      	movs	r3, #0
100004f4:	4f0c      	ldr	r7, [pc, #48]	; (10000528 <uart_init+0xd8>)
100004f6:	490d      	ldr	r1, [pc, #52]	; (1000052c <uart_init+0xdc>)
100004f8:	e7d8      	b.n	100004ac <uart_init+0x5c>
100004fa:	227f      	movs	r2, #127	; 0x7f
100004fc:	4010      	ands	r0, r2
100004fe:	3001      	adds	r0, #1
10000500:	0840      	lsrs	r0, r0, #1
10000502:	019f      	lsls	r7, r3, #6
10000504:	0019      	movs	r1, r3
10000506:	183f      	adds	r7, r7, r0
10000508:	0003      	movs	r3, r0
1000050a:	e7cf      	b.n	100004ac <uart_init+0x5c>
1000050c:	bffc8000 	.word	0xbffc8000
10000510:	4000c000 	.word	0x4000c000
10000514:	4000e000 	.word	0x4000e000
10000518:	4000f000 	.word	0x4000f000
1000051c:	20001020 	.word	0x20001020
10000520:	00000301 	.word	0x00000301
10000524:	0000fffe 	.word	0x0000fffe
10000528:	003fffc0 	.word	0x003fffc0
1000052c:	0000ffff 	.word	0x0000ffff

10000530 <timer_pool_entry_comparator>:
10000530:	6883      	ldr	r3, [r0, #8]
10000532:	480b      	ldr	r0, [pc, #44]	; (10000560 <timer_pool_entry_comparator+0x30>)
10000534:	b510      	push	{r4, lr}
10000536:	4684      	mov	ip, r0
10000538:	4461      	add	r1, ip
1000053a:	4462      	add	r2, ip
1000053c:	0109      	lsls	r1, r1, #4
1000053e:	0112      	lsls	r2, r2, #4
10000540:	189a      	adds	r2, r3, r2
10000542:	1859      	adds	r1, r3, r1
10000544:	6854      	ldr	r4, [r2, #4]
10000546:	684b      	ldr	r3, [r1, #4]
10000548:	2001      	movs	r0, #1
1000054a:	429c      	cmp	r4, r3
1000054c:	d801      	bhi.n	10000552 <timer_pool_entry_comparator+0x22>
1000054e:	d002      	beq.n	10000556 <timer_pool_entry_comparator+0x26>
10000550:	2000      	movs	r0, #0
10000552:	b2c0      	uxtb	r0, r0
10000554:	bd10      	pop	{r4, pc}
10000556:	6812      	ldr	r2, [r2, #0]
10000558:	680b      	ldr	r3, [r1, #0]
1000055a:	429a      	cmp	r2, r3
1000055c:	d8f9      	bhi.n	10000552 <timer_pool_entry_comparator+0x22>
1000055e:	e7f7      	b.n	10000550 <timer_pool_entry_comparator+0x20>
10000560:	0fffffff 	.word	0x0fffffff

10000564 <add_alarm_under_lock.isra.0>:
10000564:	b5f8      	push	{r3, r4, r5, r6, r7, lr}
10000566:	4657      	mov	r7, sl
10000568:	464e      	mov	r6, r9
1000056a:	4645      	mov	r5, r8
1000056c:	46de      	mov	lr, fp
1000056e:	b5e0      	push	{r5, r6, r7, lr}
10000570:	4699      	mov	r9, r3
10000572:	ab0c      	add	r3, sp, #48	; 0x30
10000574:	781c      	ldrb	r4, [r3, #0]
10000576:	ab0d      	add	r3, sp, #52	; 0x34
10000578:	781b      	ldrb	r3, [r3, #0]
1000057a:	0006      	movs	r6, r0
1000057c:	4690      	mov	r8, r2
1000057e:	469a      	mov	sl, r3
10000580:	6807      	ldr	r7, [r0, #0]
10000582:	2c00      	cmp	r4, #0
10000584:	d111      	bne.n	100005aa <add_alarm_under_lock.isra.0+0x46>
10000586:	7bbc      	ldrb	r4, [r7, #14]
10000588:	2c00      	cmp	r4, #0
1000058a:	d042      	beq.n	10000612 <add_alarm_under_lock.isra.0+0xae>
1000058c:	0065      	lsls	r5, r4, #1
1000058e:	683b      	ldr	r3, [r7, #0]
10000590:	192d      	adds	r5, r5, r4
10000592:	3d03      	subs	r5, #3
10000594:	1959      	adds	r1, r3, r5
10000596:	784b      	ldrb	r3, [r1, #1]
10000598:	73bb      	strb	r3, [r7, #14]
1000059a:	2b00      	cmp	r3, #0
1000059c:	d100      	bne.n	100005a0 <add_alarm_under_lock.isra.0+0x3c>
1000059e:	73fb      	strb	r3, [r7, #15]
100005a0:	2300      	movs	r3, #0
100005a2:	708b      	strb	r3, [r1, #2]
100005a4:	704b      	strb	r3, [r1, #1]
100005a6:	700b      	strb	r3, [r1, #0]
100005a8:	e004      	b.n	100005b4 <add_alarm_under_lock.isra.0+0x50>
100005aa:	0065      	lsls	r5, r4, #1
100005ac:	683b      	ldr	r3, [r7, #0]
100005ae:	192d      	adds	r5, r5, r4
100005b0:	3d03      	subs	r5, #3
100005b2:	1959      	adds	r1, r3, r5
100005b4:	68b2      	ldr	r2, [r6, #8]
100005b6:	4b2a      	ldr	r3, [pc, #168]	; (10000660 <add_alarm_under_lock.isra.0+0xfc>)
100005b8:	4694      	mov	ip, r2
100005ba:	4642      	mov	r2, r8
100005bc:	18e3      	adds	r3, r4, r3
100005be:	011b      	lsls	r3, r3, #4
100005c0:	4463      	add	r3, ip
100005c2:	601a      	str	r2, [r3, #0]
100005c4:	464a      	mov	r2, r9
100005c6:	605a      	str	r2, [r3, #4]
100005c8:	9a0a      	ldr	r2, [sp, #40]	; 0x28
100005ca:	609a      	str	r2, [r3, #8]
100005cc:	9a0b      	ldr	r2, [sp, #44]	; 0x2c
100005ce:	60da      	str	r2, [r3, #12]
100005d0:	2300      	movs	r3, #0
100005d2:	708b      	strb	r3, [r1, #2]
100005d4:	704b      	strb	r3, [r1, #1]
100005d6:	700b      	strb	r3, [r1, #0]
100005d8:	7b7b      	ldrb	r3, [r7, #13]
100005da:	469b      	mov	fp, r3
100005dc:	2b00      	cmp	r3, #0
100005de:	d02b      	beq.n	10000638 <add_alarm_under_lock.isra.0+0xd4>
100005e0:	0022      	movs	r2, r4
100005e2:	4659      	mov	r1, fp
100005e4:	68b8      	ldr	r0, [r7, #8]
100005e6:	687b      	ldr	r3, [r7, #4]
100005e8:	4798      	blx	r3
100005ea:	683a      	ldr	r2, [r7, #0]
100005ec:	2800      	cmp	r0, #0
100005ee:	d016      	beq.n	1000061e <add_alarm_under_lock.isra.0+0xba>
100005f0:	465b      	mov	r3, fp
100005f2:	4658      	mov	r0, fp
100005f4:	005b      	lsls	r3, r3, #1
100005f6:	445b      	add	r3, fp
100005f8:	1955      	adds	r5, r2, r5
100005fa:	3b03      	subs	r3, #3
100005fc:	70a8      	strb	r0, [r5, #2]
100005fe:	18d1      	adds	r1, r2, r3
10000600:	5cd3      	ldrb	r3, [r2, r3]
10000602:	2b00      	cmp	r3, #0
10000604:	d000      	beq.n	10000608 <add_alarm_under_lock.isra.0+0xa4>
10000606:	706b      	strb	r3, [r5, #1]
10000608:	465b      	mov	r3, fp
1000060a:	700c      	strb	r4, [r1, #0]
1000060c:	737b      	strb	r3, [r7, #13]
1000060e:	45a3      	cmp	fp, r4
10000610:	d013      	beq.n	1000063a <add_alarm_under_lock.isra.0+0xd6>
10000612:	bcf0      	pop	{r4, r5, r6, r7}
10000614:	46bb      	mov	fp, r7
10000616:	46b2      	mov	sl, r6
10000618:	46a9      	mov	r9, r5
1000061a:	46a0      	mov	r8, r4
1000061c:	bdf8      	pop	{r3, r4, r5, r6, r7, pc}
1000061e:	465b      	mov	r3, fp
10000620:	005b      	lsls	r3, r3, #1
10000622:	445b      	add	r3, fp
10000624:	3b03      	subs	r3, #3
10000626:	18d3      	adds	r3, r2, r3
10000628:	709c      	strb	r4, [r3, #2]
1000062a:	1951      	adds	r1, r2, r5
1000062c:	5d52      	ldrb	r2, [r2, r5]
1000062e:	2a00      	cmp	r2, #0
10000630:	d000      	beq.n	10000634 <add_alarm_under_lock.isra.0+0xd0>
10000632:	705a      	strb	r2, [r3, #1]
10000634:	465b      	mov	r3, fp
10000636:	700b      	strb	r3, [r1, #0]
10000638:	737c      	strb	r4, [r7, #13]
1000063a:	4642      	mov	r2, r8
1000063c:	464b      	mov	r3, r9
1000063e:	7d30      	ldrb	r0, [r6, #20]
10000640:	f000 f9de 	bl	10000a00 <hardware_alarm_set_target>
10000644:	1e05      	subs	r5, r0, #0
10000646:	d006      	beq.n	10000656 <add_alarm_under_lock.isra.0+0xf2>
10000648:	4653      	mov	r3, sl
1000064a:	2b00      	cmp	r3, #0
1000064c:	d103      	bne.n	10000656 <add_alarm_under_lock.isra.0+0xf2>
1000064e:	0021      	movs	r1, r4
10000650:	6830      	ldr	r0, [r6, #0]
10000652:	f000 fc1b 	bl	10000e8c <ph_remove_and_free_node>
10000656:	9b0e      	ldr	r3, [sp, #56]	; 0x38
10000658:	2b00      	cmp	r3, #0
1000065a:	d0da      	beq.n	10000612 <add_alarm_under_lock.isra.0+0xae>
1000065c:	701d      	strb	r5, [r3, #0]
1000065e:	e7d8      	b.n	10000612 <add_alarm_under_lock.isra.0+0xae>
10000660:	0fffffff 	.word	0x0fffffff

10000664 <alarm_pool_alarm_callback>:
10000664:	b5f0      	push	{r4, r5, r6, r7, lr}
10000666:	46de      	mov	lr, fp
10000668:	464e      	mov	r6, r9
1000066a:	4657      	mov	r7, sl
1000066c:	4645      	mov	r5, r8
1000066e:	2300      	movs	r3, #0
10000670:	b5e0      	push	{r5, r6, r7, lr}
10000672:	b08d      	sub	sp, #52	; 0x34
10000674:	930a      	str	r3, [sp, #40]	; 0x28
10000676:	4b6b      	ldr	r3, [pc, #428]	; (10000824 <alarm_pool_alarm_callback+0x1c0>)
10000678:	0082      	lsls	r2, r0, #2
1000067a:	58d3      	ldr	r3, [r2, r3]
1000067c:	900b      	str	r0, [sp, #44]	; 0x2c
1000067e:	4699      	mov	r9, r3
10000680:	2300      	movs	r3, #0
10000682:	469b      	mov	fp, r3
10000684:	464b      	mov	r3, r9
10000686:	9307      	str	r3, [sp, #28]
10000688:	f000 f96a 	bl	10000960 <time_us_64>
1000068c:	9c07      	ldr	r4, [sp, #28]
1000068e:	0006      	movs	r6, r0
10000690:	000f      	movs	r7, r1
10000692:	6862      	ldr	r2, [r4, #4]
10000694:	f3ef 8510 	mrs	r5, PRIMASK
10000698:	b672      	cpsid	i
1000069a:	6813      	ldr	r3, [r2, #0]
1000069c:	2b00      	cmp	r3, #0
1000069e:	d0fc      	beq.n	1000069a <alarm_pool_alarm_callback+0x36>
100006a0:	0022      	movs	r2, r4
100006a2:	9407      	str	r4, [sp, #28]
100006a4:	f3bf 8f5f 	dmb	sy
100006a8:	6824      	ldr	r4, [r4, #0]
100006aa:	7b63      	ldrb	r3, [r4, #13]
100006ac:	4699      	mov	r9, r3
100006ae:	2b00      	cmp	r3, #0
100006b0:	d067      	beq.n	10000782 <alarm_pool_alarm_callback+0x11e>
100006b2:	6892      	ldr	r2, [r2, #8]
100006b4:	4b5c      	ldr	r3, [pc, #368]	; (10000828 <alarm_pool_alarm_callback+0x1c4>)
100006b6:	4690      	mov	r8, r2
100006b8:	444b      	add	r3, r9
100006ba:	011b      	lsls	r3, r3, #4
100006bc:	4498      	add	r8, r3
100006be:	4643      	mov	r3, r8
100006c0:	681a      	ldr	r2, [r3, #0]
100006c2:	685b      	ldr	r3, [r3, #4]
100006c4:	0010      	movs	r0, r2
100006c6:	0019      	movs	r1, r3
100006c8:	1b80      	subs	r0, r0, r6
100006ca:	41b9      	sbcs	r1, r7
100006cc:	2900      	cmp	r1, #0
100006ce:	dd5f      	ble.n	10000790 <alarm_pool_alarm_callback+0x12c>
100006d0:	980b      	ldr	r0, [sp, #44]	; 0x2c
100006d2:	f000 f995 	bl	10000a00 <hardware_alarm_set_target>
100006d6:	2300      	movs	r3, #0
100006d8:	2600      	movs	r6, #0
100006da:	4698      	mov	r8, r3
100006dc:	2700      	movs	r7, #0
100006de:	469a      	mov	sl, r3
100006e0:	9c07      	ldr	r4, [sp, #28]
100006e2:	6863      	ldr	r3, [r4, #4]
100006e4:	f3bf 8f5f 	dmb	sy
100006e8:	465a      	mov	r2, fp
100006ea:	601a      	str	r2, [r3, #0]
100006ec:	f385 8810 	msr	PRIMASK, r5
100006f0:	4653      	mov	r3, sl
100006f2:	2b00      	cmp	r3, #0
100006f4:	d108      	bne.n	10000708 <alarm_pool_alarm_callback+0xa4>
100006f6:	2800      	cmp	r0, #0
100006f8:	d1c6      	bne.n	10000688 <alarm_pool_alarm_callback+0x24>
100006fa:	b00d      	add	sp, #52	; 0x34
100006fc:	bcf0      	pop	{r4, r5, r6, r7}
100006fe:	46bb      	mov	fp, r7
10000700:	46b2      	mov	sl, r6
10000702:	46a9      	mov	r9, r5
10000704:	46a0      	mov	r8, r4
10000706:	bdf0      	pop	{r4, r5, r6, r7, pc}
10000708:	9b0a      	ldr	r3, [sp, #40]	; 0x28
1000070a:	4641      	mov	r1, r8
1000070c:	0218      	lsls	r0, r3, #8
1000070e:	464b      	mov	r3, r9
10000710:	4318      	orrs	r0, r3
10000712:	47d0      	blx	sl
10000714:	9008      	str	r0, [sp, #32]
10000716:	9109      	str	r1, [sp, #36]	; 0x24
10000718:	6862      	ldr	r2, [r4, #4]
1000071a:	f3ef 8510 	mrs	r5, PRIMASK
1000071e:	b672      	cpsid	i
10000720:	6813      	ldr	r3, [r2, #0]
10000722:	2b00      	cmp	r3, #0
10000724:	d0fc      	beq.n	10000720 <alarm_pool_alarm_callback+0xbc>
10000726:	9407      	str	r4, [sp, #28]
10000728:	f3bf 8f5f 	dmb	sy
1000072c:	9908      	ldr	r1, [sp, #32]
1000072e:	9a09      	ldr	r2, [sp, #36]	; 0x24
10000730:	2a00      	cmp	r2, #0
10000732:	db48      	blt.n	100007c6 <alarm_pool_alarm_callback+0x162>
10000734:	4311      	orrs	r1, r2
10000736:	d003      	beq.n	10000740 <alarm_pool_alarm_callback+0xdc>
10000738:	9b07      	ldr	r3, [sp, #28]
1000073a:	691b      	ldr	r3, [r3, #16]
1000073c:	2b00      	cmp	r3, #0
1000073e:	d15d      	bne.n	100007fc <alarm_pool_alarm_callback+0x198>
10000740:	9b07      	ldr	r3, [sp, #28]
10000742:	681b      	ldr	r3, [r3, #0]
10000744:	7bd9      	ldrb	r1, [r3, #15]
10000746:	2900      	cmp	r1, #0
10000748:	d007      	beq.n	1000075a <alarm_pool_alarm_callback+0xf6>
1000074a:	004a      	lsls	r2, r1, #1
1000074c:	1852      	adds	r2, r2, r1
1000074e:	6819      	ldr	r1, [r3, #0]
10000750:	468c      	mov	ip, r1
10000752:	4649      	mov	r1, r9
10000754:	4462      	add	r2, ip
10000756:	3a03      	subs	r2, #3
10000758:	7051      	strb	r1, [r2, #1]
1000075a:	464a      	mov	r2, r9
1000075c:	73da      	strb	r2, [r3, #15]
1000075e:	464b      	mov	r3, r9
10000760:	9a07      	ldr	r2, [sp, #28]
10000762:	3b01      	subs	r3, #1
10000764:	68d1      	ldr	r1, [r2, #12]
10000766:	5cca      	ldrb	r2, [r1, r3]
10000768:	3201      	adds	r2, #1
1000076a:	54ca      	strb	r2, [r1, r3]
1000076c:	465b      	mov	r3, fp
1000076e:	9a07      	ldr	r2, [sp, #28]
10000770:	6113      	str	r3, [r2, #16]
10000772:	6853      	ldr	r3, [r2, #4]
10000774:	f3bf 8f5f 	dmb	sy
10000778:	465a      	mov	r2, fp
1000077a:	601a      	str	r2, [r3, #0]
1000077c:	f385 8810 	msr	PRIMASK, r5
10000780:	e782      	b.n	10000688 <alarm_pool_alarm_callback+0x24>
10000782:	2300      	movs	r3, #0
10000784:	2600      	movs	r6, #0
10000786:	4698      	mov	r8, r3
10000788:	2700      	movs	r7, #0
1000078a:	469a      	mov	sl, r3
1000078c:	2000      	movs	r0, #0
1000078e:	e7a7      	b.n	100006e0 <alarm_pool_alarm_callback+0x7c>
10000790:	2900      	cmp	r1, #0
10000792:	d101      	bne.n	10000798 <alarm_pool_alarm_callback+0x134>
10000794:	2800      	cmp	r0, #0
10000796:	d19b      	bne.n	100006d0 <alarm_pool_alarm_callback+0x6c>
10000798:	2100      	movs	r1, #0
1000079a:	0020      	movs	r0, r4
1000079c:	f000 faf8 	bl	10000d90 <ph_remove_head>
100007a0:	4643      	mov	r3, r8
100007a2:	681e      	ldr	r6, [r3, #0]
100007a4:	685f      	ldr	r7, [r3, #4]
100007a6:	689b      	ldr	r3, [r3, #8]
100007a8:	9a07      	ldr	r2, [sp, #28]
100007aa:	469a      	mov	sl, r3
100007ac:	4643      	mov	r3, r8
100007ae:	68db      	ldr	r3, [r3, #12]
100007b0:	4698      	mov	r8, r3
100007b2:	68d3      	ldr	r3, [r2, #12]
100007b4:	444b      	add	r3, r9
100007b6:	3b01      	subs	r3, #1
100007b8:	781b      	ldrb	r3, [r3, #0]
100007ba:	930a      	str	r3, [sp, #40]	; 0x28
100007bc:	021b      	lsls	r3, r3, #8
100007be:	4303      	orrs	r3, r0
100007c0:	6113      	str	r3, [r2, #16]
100007c2:	2000      	movs	r0, #0
100007c4:	e78c      	b.n	100006e0 <alarm_pool_alarm_callback+0x7c>
100007c6:	6923      	ldr	r3, [r4, #16]
100007c8:	2b00      	cmp	r3, #0
100007ca:	d0b9      	beq.n	10000740 <alarm_pool_alarm_callback+0xdc>
100007cc:	0033      	movs	r3, r6
100007ce:	003c      	movs	r4, r7
100007d0:	1a5b      	subs	r3, r3, r1
100007d2:	4194      	sbcs	r4, r2
100007d4:	001a      	movs	r2, r3
100007d6:	0023      	movs	r3, r4
100007d8:	42a7      	cmp	r7, r4
100007da:	d819      	bhi.n	10000810 <alarm_pool_alarm_callback+0x1ac>
100007dc:	429f      	cmp	r7, r3
100007de:	d01b      	beq.n	10000818 <alarm_pool_alarm_callback+0x1b4>
100007e0:	4659      	mov	r1, fp
100007e2:	9104      	str	r1, [sp, #16]
100007e4:	2101      	movs	r1, #1
100007e6:	9103      	str	r1, [sp, #12]
100007e8:	4649      	mov	r1, r9
100007ea:	9102      	str	r1, [sp, #8]
100007ec:	4641      	mov	r1, r8
100007ee:	9101      	str	r1, [sp, #4]
100007f0:	4651      	mov	r1, sl
100007f2:	9807      	ldr	r0, [sp, #28]
100007f4:	9100      	str	r1, [sp, #0]
100007f6:	f7ff feb5 	bl	10000564 <add_alarm_under_lock.isra.0>
100007fa:	e7b7      	b.n	1000076c <alarm_pool_alarm_callback+0x108>
100007fc:	f000 f8b0 	bl	10000960 <time_us_64>
10000800:	9a08      	ldr	r2, [sp, #32]
10000802:	9b09      	ldr	r3, [sp, #36]	; 0x24
10000804:	0006      	movs	r6, r0
10000806:	000f      	movs	r7, r1
10000808:	1992      	adds	r2, r2, r6
1000080a:	417b      	adcs	r3, r7
1000080c:	4299      	cmp	r1, r3
1000080e:	d9e5      	bls.n	100007dc <alarm_pool_alarm_callback+0x178>
10000810:	2201      	movs	r2, #1
10000812:	4252      	negs	r2, r2
10000814:	17d3      	asrs	r3, r2, #31
10000816:	e7e3      	b.n	100007e0 <alarm_pool_alarm_callback+0x17c>
10000818:	4296      	cmp	r6, r2
1000081a:	d9e1      	bls.n	100007e0 <alarm_pool_alarm_callback+0x17c>
1000081c:	2201      	movs	r2, #1
1000081e:	4252      	negs	r2, r2
10000820:	17d3      	asrs	r3, r2, #31
10000822:	e7dd      	b.n	100007e0 <alarm_pool_alarm_callback+0x17c>
10000824:	20000ff8 	.word	0x20000ff8
10000828:	0fffffff 	.word	0x0fffffff

1000082c <alarm_pool_init_default>:
1000082c:	b510      	push	{r4, lr}
1000082e:	4c12      	ldr	r4, [pc, #72]	; (10000878 <alarm_pool_init_default+0x4c>)
10000830:	6863      	ldr	r3, [r4, #4]
10000832:	2b00      	cmp	r3, #0
10000834:	d004      	beq.n	10000840 <alarm_pool_init_default+0x14>
10000836:	210a      	movs	r1, #10
10000838:	4810      	ldr	r0, [pc, #64]	; (1000087c <alarm_pool_init_default+0x50>)
1000083a:	f000 f96f 	bl	10000b1c <lock_init>
1000083e:	bd10      	pop	{r4, pc}
10000840:	0023      	movs	r3, r4
10000842:	4a0f      	ldr	r2, [pc, #60]	; (10000880 <alarm_pool_init_default+0x54>)
10000844:	2110      	movs	r1, #16
10000846:	6820      	ldr	r0, [r4, #0]
10000848:	f000 f9c0 	bl	10000bcc <ph_post_alloc_init>
1000084c:	2003      	movs	r0, #3
1000084e:	f000 f87b 	bl	10000948 <hardware_alarm_claim>
10000852:	2003      	movs	r0, #3
10000854:	f000 f944 	bl	10000ae0 <hardware_alarm_cancel>
10000858:	2003      	movs	r0, #3
1000085a:	490a      	ldr	r1, [pc, #40]	; (10000884 <alarm_pool_init_default+0x58>)
1000085c:	f000 f88a 	bl	10000974 <hardware_alarm_set_callback>
10000860:	f7ff fdea 	bl	10000438 <next_striped_spin_lock_num>
10000864:	4b08      	ldr	r3, [pc, #32]	; (10000888 <alarm_pool_init_default+0x5c>)
10000866:	469c      	mov	ip, r3
10000868:	2303      	movs	r3, #3
1000086a:	4460      	add	r0, ip
1000086c:	7523      	strb	r3, [r4, #20]
1000086e:	4b07      	ldr	r3, [pc, #28]	; (1000088c <alarm_pool_init_default+0x60>)
10000870:	0080      	lsls	r0, r0, #2
10000872:	6060      	str	r0, [r4, #4]
10000874:	60dc      	str	r4, [r3, #12]
10000876:	e7de      	b.n	10000836 <alarm_pool_init_default+0xa>
10000878:	2000017c 	.word	0x2000017c
1000087c:	2000100c 	.word	0x2000100c
10000880:	10000531 	.word	0x10000531
10000884:	10000665 	.word	0x10000665
10000888:	34000040 	.word	0x34000040
1000088c:	20000ff8 	.word	0x20000ff8

10000890 <hardware_alarm_irq_handler>:
10000890:	b5f0      	push	{r4, r5, r6, r7, lr}
10000892:	46d6      	mov	lr, sl
10000894:	464f      	mov	r7, r9
10000896:	4646      	mov	r6, r8
10000898:	b5c0      	push	{r6, r7, lr}
1000089a:	f3ef 8305 	mrs	r3, IPSR
1000089e:	223f      	movs	r2, #63	; 0x3f
100008a0:	4013      	ands	r3, r2
100008a2:	0018      	movs	r0, r3
100008a4:	3810      	subs	r0, #16
100008a6:	f3ef 8c10 	mrs	ip, PRIMASK
100008aa:	b672      	cpsid	i
100008ac:	4d20      	ldr	r5, [pc, #128]	; (10000930 <hardware_alarm_irq_handler+0xa0>)
100008ae:	682a      	ldr	r2, [r5, #0]
100008b0:	2a00      	cmp	r2, #0
100008b2:	d0fc      	beq.n	100008ae <hardware_alarm_irq_handler+0x1e>
100008b4:	f3bf 8f5f 	dmb	sy
100008b8:	2201      	movs	r2, #1
100008ba:	0011      	movs	r1, r2
100008bc:	4081      	lsls	r1, r0
100008be:	4c1d      	ldr	r4, [pc, #116]	; (10000934 <hardware_alarm_irq_handler+0xa4>)
100008c0:	4688      	mov	r8, r1
100008c2:	6361      	str	r1, [r4, #52]	; 0x34
100008c4:	491c      	ldr	r1, [pc, #112]	; (10000938 <hardware_alarm_irq_handler+0xa8>)
100008c6:	0017      	movs	r7, r2
100008c8:	780e      	ldrb	r6, [r1, #0]
100008ca:	468a      	mov	sl, r1
100008cc:	0031      	movs	r1, r6
100008ce:	40c1      	lsrs	r1, r0
100008d0:	400f      	ands	r7, r1
100008d2:	420a      	tst	r2, r1
100008d4:	d109      	bne.n	100008ea <hardware_alarm_irq_handler+0x5a>
100008d6:	f3bf 8f5f 	dmb	sy
100008da:	602f      	str	r7, [r5, #0]
100008dc:	f38c 8810 	msr	PRIMASK, ip
100008e0:	bce0      	pop	{r5, r6, r7}
100008e2:	46ba      	mov	sl, r7
100008e4:	46b1      	mov	r9, r6
100008e6:	46a8      	mov	r8, r5
100008e8:	bdf0      	pop	{r4, r5, r6, r7, pc}
100008ea:	4914      	ldr	r1, [pc, #80]	; (1000093c <hardware_alarm_irq_handler+0xac>)
100008ec:	0082      	lsls	r2, r0, #2
100008ee:	6a64      	ldr	r4, [r4, #36]	; 0x24
100008f0:	5851      	ldr	r1, [r2, r1]
100008f2:	428c      	cmp	r4, r1
100008f4:	d30f      	bcc.n	10000916 <hardware_alarm_irq_handler+0x86>
100008f6:	4b12      	ldr	r3, [pc, #72]	; (10000940 <hardware_alarm_irq_handler+0xb0>)
100008f8:	58d2      	ldr	r2, [r2, r3]
100008fa:	4643      	mov	r3, r8
100008fc:	439e      	bics	r6, r3
100008fe:	4653      	mov	r3, sl
10000900:	701e      	strb	r6, [r3, #0]
10000902:	f3bf 8f5f 	dmb	sy
10000906:	2300      	movs	r3, #0
10000908:	602b      	str	r3, [r5, #0]
1000090a:	f38c 8810 	msr	PRIMASK, ip
1000090e:	2a00      	cmp	r2, #0
10000910:	d0e6      	beq.n	100008e0 <hardware_alarm_irq_handler+0x50>
10000912:	4790      	blx	r2
10000914:	e7e4      	b.n	100008e0 <hardware_alarm_irq_handler+0x50>
10000916:	4a0b      	ldr	r2, [pc, #44]	; (10000944 <hardware_alarm_irq_handler+0xb4>)
10000918:	009b      	lsls	r3, r3, #2
1000091a:	4690      	mov	r8, r2
1000091c:	4443      	add	r3, r8
1000091e:	681a      	ldr	r2, [r3, #0]
10000920:	601a      	str	r2, [r3, #0]
10000922:	f3bf 8f5f 	dmb	sy
10000926:	2300      	movs	r3, #0
10000928:	602b      	str	r3, [r5, #0]
1000092a:	f38c 8810 	msr	PRIMASK, ip
1000092e:	e7d7      	b.n	100008e0 <hardware_alarm_irq_handler+0x50>
10000930:	d0000128 	.word	0xd0000128
10000934:	40054000 	.word	0x40054000
10000938:	2000102a 	.word	0x2000102a
1000093c:	20001010 	.word	0x20001010
10000940:	20000f6c 	.word	0x20000f6c
10000944:	40053fd0 	.word	0x40053fd0

10000948 <hardware_alarm_claim>:
10000948:	b510      	push	{r4, lr}
1000094a:	0001      	movs	r1, r0
1000094c:	4a02      	ldr	r2, [pc, #8]	; (10000958 <hardware_alarm_claim+0x10>)
1000094e:	4803      	ldr	r0, [pc, #12]	; (1000095c <hardware_alarm_claim+0x14>)
10000950:	f7ff fd3a 	bl	100003c8 <hw_claim_or_assert>
10000954:	bd10      	pop	{r4, pc}
10000956:	46c0      	nop			; (mov r8, r8)
10000958:	10005534 	.word	0x10005534
1000095c:	20001028 	.word	0x20001028

10000960 <time_us_64>:
10000960:	4b03      	ldr	r3, [pc, #12]	; (10000970 <time_us_64+0x10>)
10000962:	6a59      	ldr	r1, [r3, #36]	; 0x24
10000964:	000a      	movs	r2, r1
10000966:	6a98      	ldr	r0, [r3, #40]	; 0x28
10000968:	6a59      	ldr	r1, [r3, #36]	; 0x24
1000096a:	428a      	cmp	r2, r1
1000096c:	d1fa      	bne.n	10000964 <time_us_64+0x4>
1000096e:	4770      	bx	lr
10000970:	40054000 	.word	0x40054000

10000974 <hardware_alarm_set_callback>:
10000974:	b570      	push	{r4, r5, r6, lr}
10000976:	0004      	movs	r4, r0
10000978:	000d      	movs	r5, r1
1000097a:	f3ef 8610 	mrs	r6, PRIMASK
1000097e:	b672      	cpsid	i
10000980:	4a1a      	ldr	r2, [pc, #104]	; (100009ec <hardware_alarm_set_callback+0x78>)
10000982:	6813      	ldr	r3, [r2, #0]
10000984:	2b00      	cmp	r3, #0
10000986:	d0fc      	beq.n	10000982 <hardware_alarm_set_callback+0xe>
10000988:	f3bf 8f5f 	dmb	sy
1000098c:	2d00      	cmp	r5, #0
1000098e:	d01b      	beq.n	100009c8 <hardware_alarm_set_callback+0x54>
10000990:	0020      	movs	r0, r4
10000992:	f000 fce1 	bl	10001358 <irq_get_vtable_handler>
10000996:	4916      	ldr	r1, [pc, #88]	; (100009f0 <hardware_alarm_set_callback+0x7c>)
10000998:	4281      	cmp	r1, r0
1000099a:	d00a      	beq.n	100009b2 <hardware_alarm_set_callback+0x3e>
1000099c:	0020      	movs	r0, r4
1000099e:	f000 fce3 	bl	10001368 <irq_set_exclusive_handler>
100009a2:	2101      	movs	r1, #1
100009a4:	0020      	movs	r0, r4
100009a6:	f000 fcc5 	bl	10001334 <irq_set_enabled>
100009aa:	2301      	movs	r3, #1
100009ac:	40a3      	lsls	r3, r4
100009ae:	4a11      	ldr	r2, [pc, #68]	; (100009f4 <hardware_alarm_set_callback+0x80>)
100009b0:	6013      	str	r3, [r2, #0]
100009b2:	4b11      	ldr	r3, [pc, #68]	; (100009f8 <hardware_alarm_set_callback+0x84>)
100009b4:	00a4      	lsls	r4, r4, #2
100009b6:	50e5      	str	r5, [r4, r3]
100009b8:	f3bf 8f5f 	dmb	sy
100009bc:	2200      	movs	r2, #0
100009be:	4b0b      	ldr	r3, [pc, #44]	; (100009ec <hardware_alarm_set_callback+0x78>)
100009c0:	601a      	str	r2, [r3, #0]
100009c2:	f386 8810 	msr	PRIMASK, r6
100009c6:	bd70      	pop	{r4, r5, r6, pc}
100009c8:	4b0b      	ldr	r3, [pc, #44]	; (100009f8 <hardware_alarm_set_callback+0x84>)
100009ca:	00a2      	lsls	r2, r4, #2
100009cc:	50d5      	str	r5, [r2, r3]
100009ce:	2201      	movs	r2, #1
100009d0:	40a2      	lsls	r2, r4
100009d2:	490a      	ldr	r1, [pc, #40]	; (100009fc <hardware_alarm_set_callback+0x88>)
100009d4:	0020      	movs	r0, r4
100009d6:	780b      	ldrb	r3, [r1, #0]
100009d8:	4393      	bics	r3, r2
100009da:	700b      	strb	r3, [r1, #0]
100009dc:	4904      	ldr	r1, [pc, #16]	; (100009f0 <hardware_alarm_set_callback+0x7c>)
100009de:	f000 fced 	bl	100013bc <irq_remove_handler>
100009e2:	2100      	movs	r1, #0
100009e4:	0020      	movs	r0, r4
100009e6:	f000 fca5 	bl	10001334 <irq_set_enabled>
100009ea:	e7e5      	b.n	100009b8 <hardware_alarm_set_callback+0x44>
100009ec:	d0000128 	.word	0xd0000128
100009f0:	10000891 	.word	0x10000891
100009f4:	40056038 	.word	0x40056038
100009f8:	20000f6c 	.word	0x20000f6c
100009fc:	2000102a 	.word	0x2000102a

10000a00 <hardware_alarm_set_target>:
10000a00:	b5f0      	push	{r4, r5, r6, r7, lr}
10000a02:	464f      	mov	r7, r9
10000a04:	46d6      	mov	lr, sl
10000a06:	4646      	mov	r6, r8
10000a08:	b5c0      	push	{r6, r7, lr}
10000a0a:	0007      	movs	r7, r0
10000a0c:	4c2f      	ldr	r4, [pc, #188]	; (10000acc <hardware_alarm_set_target+0xcc>)
10000a0e:	6a61      	ldr	r1, [r4, #36]	; 0x24
10000a10:	000d      	movs	r5, r1
10000a12:	6aa6      	ldr	r6, [r4, #40]	; 0x28
10000a14:	6a61      	ldr	r1, [r4, #36]	; 0x24
10000a16:	42a9      	cmp	r1, r5
10000a18:	d1fa      	bne.n	10000a10 <hardware_alarm_set_target+0x10>
10000a1a:	428b      	cmp	r3, r1
10000a1c:	d808      	bhi.n	10000a30 <hardware_alarm_set_target+0x30>
10000a1e:	d005      	beq.n	10000a2c <hardware_alarm_set_target+0x2c>
10000a20:	2001      	movs	r0, #1
10000a22:	bce0      	pop	{r5, r6, r7}
10000a24:	46ba      	mov	sl, r7
10000a26:	46b1      	mov	r9, r6
10000a28:	46a8      	mov	r8, r5
10000a2a:	bdf0      	pop	{r4, r5, r6, r7, pc}
10000a2c:	42b2      	cmp	r2, r6
10000a2e:	d9f7      	bls.n	10000a20 <hardware_alarm_set_target+0x20>
10000a30:	f3ef 8a10 	mrs	sl, PRIMASK
10000a34:	b672      	cpsid	i
10000a36:	4826      	ldr	r0, [pc, #152]	; (10000ad0 <hardware_alarm_set_target+0xd0>)
10000a38:	6801      	ldr	r1, [r0, #0]
10000a3a:	2900      	cmp	r1, #0
10000a3c:	d0fc      	beq.n	10000a38 <hardware_alarm_set_target+0x38>
10000a3e:	f3bf 8f5f 	dmb	sy
10000a42:	2501      	movs	r5, #1
10000a44:	40bd      	lsls	r5, r7
10000a46:	4923      	ldr	r1, [pc, #140]	; (10000ad4 <hardware_alarm_set_target+0xd4>)
10000a48:	4c20      	ldr	r4, [pc, #128]	; (10000acc <hardware_alarm_set_target+0xcc>)
10000a4a:	4688      	mov	r8, r1
10000a4c:	7809      	ldrb	r1, [r1, #0]
10000a4e:	4689      	mov	r9, r1
10000a50:	4329      	orrs	r1, r5
10000a52:	b2c9      	uxtb	r1, r1
10000a54:	468c      	mov	ip, r1
10000a56:	4641      	mov	r1, r8
10000a58:	4660      	mov	r0, ip
10000a5a:	7008      	strb	r0, [r1, #0]
10000a5c:	1d39      	adds	r1, r7, #4
10000a5e:	481e      	ldr	r0, [pc, #120]	; (10000ad8 <hardware_alarm_set_target+0xd8>)
10000a60:	0089      	lsls	r1, r1, #2
10000a62:	6365      	str	r5, [r4, #52]	; 0x34
10000a64:	510a      	str	r2, [r1, r4]
10000a66:	00b9      	lsls	r1, r7, #2
10000a68:	500b      	str	r3, [r1, r0]
10000a6a:	6a21      	ldr	r1, [r4, #32]
10000a6c:	2000      	movs	r0, #0
10000a6e:	4229      	tst	r1, r5
10000a70:	d019      	beq.n	10000aa6 <hardware_alarm_set_target+0xa6>
10000a72:	6a61      	ldr	r1, [r4, #36]	; 0x24
10000a74:	0008      	movs	r0, r1
10000a76:	6aa6      	ldr	r6, [r4, #40]	; 0x28
10000a78:	6a61      	ldr	r1, [r4, #36]	; 0x24
10000a7a:	4281      	cmp	r1, r0
10000a7c:	d1fa      	bne.n	10000a74 <hardware_alarm_set_target+0x74>
10000a7e:	428b      	cmp	r3, r1
10000a80:	d819      	bhi.n	10000ab6 <hardware_alarm_set_target+0xb6>
10000a82:	d101      	bne.n	10000a88 <hardware_alarm_set_target+0x88>
10000a84:	42b2      	cmp	r2, r6
10000a86:	d816      	bhi.n	10000ab6 <hardware_alarm_set_target+0xb6>
10000a88:	45cc      	cmp	ip, r9
10000a8a:	d01d      	beq.n	10000ac8 <hardware_alarm_set_target+0xc8>
10000a8c:	4b0f      	ldr	r3, [pc, #60]	; (10000acc <hardware_alarm_set_target+0xcc>)
10000a8e:	201f      	movs	r0, #31
10000a90:	621d      	str	r5, [r3, #32]
10000a92:	635d      	str	r5, [r3, #52]	; 0x34
10000a94:	2301      	movs	r3, #1
10000a96:	4007      	ands	r7, r0
10000a98:	40bb      	lsls	r3, r7
10000a9a:	4a10      	ldr	r2, [pc, #64]	; (10000adc <hardware_alarm_set_target+0xdc>)
10000a9c:	381e      	subs	r0, #30
10000a9e:	6013      	str	r3, [r2, #0]
10000aa0:	4643      	mov	r3, r8
10000aa2:	464a      	mov	r2, r9
10000aa4:	701a      	strb	r2, [r3, #0]
10000aa6:	f3bf 8f5f 	dmb	sy
10000aaa:	2200      	movs	r2, #0
10000aac:	4b08      	ldr	r3, [pc, #32]	; (10000ad0 <hardware_alarm_set_target+0xd0>)
10000aae:	601a      	str	r2, [r3, #0]
10000ab0:	f38a 8810 	msr	PRIMASK, sl
10000ab4:	e7b5      	b.n	10000a22 <hardware_alarm_set_target+0x22>
10000ab6:	2000      	movs	r0, #0
10000ab8:	f3bf 8f5f 	dmb	sy
10000abc:	2200      	movs	r2, #0
10000abe:	4b04      	ldr	r3, [pc, #16]	; (10000ad0 <hardware_alarm_set_target+0xd0>)
10000ac0:	601a      	str	r2, [r3, #0]
10000ac2:	f38a 8810 	msr	PRIMASK, sl
10000ac6:	e7ac      	b.n	10000a22 <hardware_alarm_set_target+0x22>
10000ac8:	2001      	movs	r0, #1
10000aca:	e7ec      	b.n	10000aa6 <hardware_alarm_set_target+0xa6>
10000acc:	40054000 	.word	0x40054000
10000ad0:	d0000128 	.word	0xd0000128
10000ad4:	2000102a 	.word	0x2000102a
10000ad8:	20001010 	.word	0x20001010
10000adc:	e000e280 	.word	0xe000e280

10000ae0 <hardware_alarm_cancel>:
10000ae0:	f3ef 8c10 	mrs	ip, PRIMASK
10000ae4:	b672      	cpsid	i
10000ae6:	490a      	ldr	r1, [pc, #40]	; (10000b10 <hardware_alarm_cancel+0x30>)
10000ae8:	680b      	ldr	r3, [r1, #0]
10000aea:	2b00      	cmp	r3, #0
10000aec:	d0fc      	beq.n	10000ae8 <hardware_alarm_cancel+0x8>
10000aee:	f3bf 8f5f 	dmb	sy
10000af2:	2301      	movs	r3, #1
10000af4:	4083      	lsls	r3, r0
10000af6:	4a07      	ldr	r2, [pc, #28]	; (10000b14 <hardware_alarm_cancel+0x34>)
10000af8:	4807      	ldr	r0, [pc, #28]	; (10000b18 <hardware_alarm_cancel+0x38>)
10000afa:	6213      	str	r3, [r2, #32]
10000afc:	7802      	ldrb	r2, [r0, #0]
10000afe:	439a      	bics	r2, r3
10000b00:	7002      	strb	r2, [r0, #0]
10000b02:	f3bf 8f5f 	dmb	sy
10000b06:	2300      	movs	r3, #0
10000b08:	600b      	str	r3, [r1, #0]
10000b0a:	f38c 8810 	msr	PRIMASK, ip
10000b0e:	4770      	bx	lr
10000b10:	d0000128 	.word	0xd0000128
10000b14:	40054000 	.word	0x40054000
10000b18:	2000102a 	.word	0x2000102a

10000b1c <lock_init>:
10000b1c:	4b02      	ldr	r3, [pc, #8]	; (10000b28 <lock_init+0xc>)
10000b1e:	469c      	mov	ip, r3
10000b20:	4461      	add	r1, ip
10000b22:	0089      	lsls	r1, r1, #2
10000b24:	6001      	str	r1, [r0, #0]
10000b26:	4770      	bx	lr
10000b28:	34000040 	.word	0x34000040

10000b2c <mutex_init>:
10000b2c:	b510      	push	{r4, lr}
10000b2e:	0004      	movs	r4, r0
10000b30:	f7ff fc82 	bl	10000438 <next_striped_spin_lock_num>
10000b34:	0001      	movs	r1, r0
10000b36:	0020      	movs	r0, r4
10000b38:	f7ff fff0 	bl	10000b1c <lock_init>
10000b3c:	23ff      	movs	r3, #255	; 0xff
10000b3e:	7123      	strb	r3, [r4, #4]
10000b40:	f3bf 8f5f 	dmb	sy
10000b44:	bd10      	pop	{r4, pc}
10000b46:	46c0      	nop			; (mov r8, r8)

10000b48 <recursive_mutex_init>:
10000b48:	b510      	push	{r4, lr}
10000b4a:	0004      	movs	r4, r0
10000b4c:	f7ff fc74 	bl	10000438 <next_striped_spin_lock_num>
10000b50:	0001      	movs	r1, r0
10000b52:	0020      	movs	r0, r4
10000b54:	f7ff ffe2 	bl	10000b1c <lock_init>
10000b58:	23ff      	movs	r3, #255	; 0xff
10000b5a:	80a3      	strh	r3, [r4, #4]
10000b5c:	f3bf 8f5f 	dmb	sy
10000b60:	bd10      	pop	{r4, pc}
10000b62:	46c0      	nop			; (mov r8, r8)

10000b64 <ph_merge_nodes>:
10000b64:	b570      	push	{r4, r5, r6, lr}
10000b66:	0005      	movs	r5, r0
10000b68:	0014      	movs	r4, r2
10000b6a:	0016      	movs	r6, r2
10000b6c:	2900      	cmp	r1, #0
10000b6e:	d015      	beq.n	10000b9c <ph_merge_nodes+0x38>
10000b70:	000c      	movs	r4, r1
10000b72:	2a00      	cmp	r2, #0
10000b74:	d012      	beq.n	10000b9c <ph_merge_nodes+0x38>
10000b76:	6880      	ldr	r0, [r0, #8]
10000b78:	686b      	ldr	r3, [r5, #4]
10000b7a:	4798      	blx	r3
10000b7c:	6829      	ldr	r1, [r5, #0]
10000b7e:	2800      	cmp	r0, #0
10000b80:	d00e      	beq.n	10000ba0 <ph_merge_nodes+0x3c>
10000b82:	0073      	lsls	r3, r6, #1
10000b84:	199b      	adds	r3, r3, r6
10000b86:	0062      	lsls	r2, r4, #1
10000b88:	3b03      	subs	r3, #3
10000b8a:	1912      	adds	r2, r2, r4
10000b8c:	18cb      	adds	r3, r1, r3
10000b8e:	3a03      	subs	r2, #3
10000b90:	709c      	strb	r4, [r3, #2]
10000b92:	1888      	adds	r0, r1, r2
10000b94:	5c8a      	ldrb	r2, [r1, r2]
10000b96:	2a00      	cmp	r2, #0
10000b98:	d115      	bne.n	10000bc6 <ph_merge_nodes+0x62>
10000b9a:	7006      	strb	r6, [r0, #0]
10000b9c:	0020      	movs	r0, r4
10000b9e:	bd70      	pop	{r4, r5, r6, pc}
10000ba0:	0063      	lsls	r3, r4, #1
10000ba2:	191b      	adds	r3, r3, r4
10000ba4:	0072      	lsls	r2, r6, #1
10000ba6:	3b03      	subs	r3, #3
10000ba8:	1992      	adds	r2, r2, r6
10000baa:	18cb      	adds	r3, r1, r3
10000bac:	3a03      	subs	r2, #3
10000bae:	709e      	strb	r6, [r3, #2]
10000bb0:	1888      	adds	r0, r1, r2
10000bb2:	5c8a      	ldrb	r2, [r1, r2]
10000bb4:	2a00      	cmp	r2, #0
10000bb6:	d102      	bne.n	10000bbe <ph_merge_nodes+0x5a>
10000bb8:	7004      	strb	r4, [r0, #0]
10000bba:	0034      	movs	r4, r6
10000bbc:	e7ee      	b.n	10000b9c <ph_merge_nodes+0x38>
10000bbe:	705a      	strb	r2, [r3, #1]
10000bc0:	7004      	strb	r4, [r0, #0]
10000bc2:	0034      	movs	r4, r6
10000bc4:	e7ea      	b.n	10000b9c <ph_merge_nodes+0x38>
10000bc6:	705a      	strb	r2, [r3, #1]
10000bc8:	7006      	strb	r6, [r0, #0]
10000bca:	e7e7      	b.n	10000b9c <ph_merge_nodes+0x38>

10000bcc <ph_post_alloc_init>:
10000bcc:	b530      	push	{r4, r5, lr}
10000bce:	6083      	str	r3, [r0, #8]
10000bd0:	2300      	movs	r3, #0
10000bd2:	b2cc      	uxtb	r4, r1
10000bd4:	7343      	strb	r3, [r0, #13]
10000bd6:	3301      	adds	r3, #1
10000bd8:	7304      	strb	r4, [r0, #12]
10000bda:	6042      	str	r2, [r0, #4]
10000bdc:	7383      	strb	r3, [r0, #14]
10000bde:	73c4      	strb	r4, [r0, #15]
10000be0:	000d      	movs	r5, r1
10000be2:	6800      	ldr	r0, [r0, #0]
10000be4:	2c01      	cmp	r4, #1
10000be6:	d906      	bls.n	10000bf6 <ph_post_alloc_init+0x2a>
10000be8:	1c42      	adds	r2, r0, #1
10000bea:	3301      	adds	r3, #1
10000bec:	b2db      	uxtb	r3, r3
10000bee:	7013      	strb	r3, [r2, #0]
10000bf0:	3203      	adds	r2, #3
10000bf2:	429c      	cmp	r4, r3
10000bf4:	d1f9      	bne.n	10000bea <ph_post_alloc_init+0x1e>
10000bf6:	21ff      	movs	r1, #255	; 0xff
10000bf8:	4029      	ands	r1, r5
10000bfa:	004b      	lsls	r3, r1, #1
10000bfc:	1859      	adds	r1, r3, r1
10000bfe:	2300      	movs	r3, #0
10000c00:	1840      	adds	r0, r0, r1
10000c02:	3803      	subs	r0, #3
10000c04:	7043      	strb	r3, [r0, #1]
10000c06:	bd30      	pop	{r4, r5, pc}

10000c08 <ph_merge_two_pass>:
10000c08:	b5f8      	push	{r3, r4, r5, r6, r7, lr}
10000c0a:	46ce      	mov	lr, r9
10000c0c:	4647      	mov	r7, r8
10000c0e:	0006      	movs	r6, r0
10000c10:	000c      	movs	r4, r1
10000c12:	b580      	push	{r7, lr}
10000c14:	2900      	cmp	r1, #0
10000c16:	d007      	beq.n	10000c28 <ph_merge_two_pass+0x20>
10000c18:	004d      	lsls	r5, r1, #1
10000c1a:	6803      	ldr	r3, [r0, #0]
10000c1c:	186d      	adds	r5, r5, r1
10000c1e:	3d03      	subs	r5, #3
10000c20:	195a      	adds	r2, r3, r5
10000c22:	7857      	ldrb	r7, [r2, #1]
10000c24:	2f00      	cmp	r7, #0
10000c26:	d104      	bne.n	10000c32 <ph_merge_two_pass+0x2a>
10000c28:	0020      	movs	r0, r4
10000c2a:	bcc0      	pop	{r6, r7}
10000c2c:	46b9      	mov	r9, r7
10000c2e:	46b0      	mov	r8, r6
10000c30:	bdf8      	pop	{r3, r4, r5, r6, r7, pc}
10000c32:	0079      	lsls	r1, r7, #1
10000c34:	19c9      	adds	r1, r1, r7
10000c36:	3903      	subs	r1, #3
10000c38:	4688      	mov	r8, r1
10000c3a:	4443      	add	r3, r8
10000c3c:	7859      	ldrb	r1, [r3, #1]
10000c3e:	4689      	mov	r9, r1
10000c40:	2100      	movs	r1, #0
10000c42:	7059      	strb	r1, [r3, #1]
10000c44:	7051      	strb	r1, [r2, #1]
10000c46:	6873      	ldr	r3, [r6, #4]
10000c48:	003a      	movs	r2, r7
10000c4a:	0021      	movs	r1, r4
10000c4c:	6880      	ldr	r0, [r0, #8]
10000c4e:	4798      	blx	r3
10000c50:	6833      	ldr	r3, [r6, #0]
10000c52:	2800      	cmp	r0, #0
10000c54:	d014      	beq.n	10000c80 <ph_merge_two_pass+0x78>
10000c56:	4642      	mov	r2, r8
10000c58:	189a      	adds	r2, r3, r2
10000c5a:	7094      	strb	r4, [r2, #2]
10000c5c:	1959      	adds	r1, r3, r5
10000c5e:	5d5b      	ldrb	r3, [r3, r5]
10000c60:	2b00      	cmp	r3, #0
10000c62:	d000      	beq.n	10000c66 <ph_merge_two_pass+0x5e>
10000c64:	7053      	strb	r3, [r2, #1]
10000c66:	700f      	strb	r7, [r1, #0]
10000c68:	0027      	movs	r7, r4
10000c6a:	4649      	mov	r1, r9
10000c6c:	0030      	movs	r0, r6
10000c6e:	f7ff ffcb 	bl	10000c08 <ph_merge_two_pass>
10000c72:	0039      	movs	r1, r7
10000c74:	0002      	movs	r2, r0
10000c76:	0030      	movs	r0, r6
10000c78:	f7ff ff74 	bl	10000b64 <ph_merge_nodes>
10000c7c:	0004      	movs	r4, r0
10000c7e:	e7d3      	b.n	10000c28 <ph_merge_two_pass+0x20>
10000c80:	4642      	mov	r2, r8
10000c82:	4641      	mov	r1, r8
10000c84:	195d      	adds	r5, r3, r5
10000c86:	70af      	strb	r7, [r5, #2]
10000c88:	189a      	adds	r2, r3, r2
10000c8a:	5c5b      	ldrb	r3, [r3, r1]
10000c8c:	2b00      	cmp	r3, #0
10000c8e:	d000      	beq.n	10000c92 <ph_merge_two_pass+0x8a>
10000c90:	706b      	strb	r3, [r5, #1]
10000c92:	7014      	strb	r4, [r2, #0]
10000c94:	e7e9      	b.n	10000c6a <ph_merge_two_pass+0x62>
10000c96:	46c0      	nop			; (mov r8, r8)

10000c98 <ph_remove_any_head>:
10000c98:	b5f0      	push	{r4, r5, r6, r7, lr}
10000c9a:	4657      	mov	r7, sl
10000c9c:	4645      	mov	r5, r8
10000c9e:	46de      	mov	lr, fp
10000ca0:	464e      	mov	r6, r9
10000ca2:	b5e0      	push	{r5, r6, r7, lr}
10000ca4:	000d      	movs	r5, r1
10000ca6:	006b      	lsls	r3, r5, #1
10000ca8:	6801      	ldr	r1, [r0, #0]
10000caa:	195b      	adds	r3, r3, r5
10000cac:	1edf      	subs	r7, r3, #3
10000cae:	0004      	movs	r4, r0
10000cb0:	5dc8      	ldrb	r0, [r1, r7]
10000cb2:	b083      	sub	sp, #12
10000cb4:	9201      	str	r2, [sp, #4]
10000cb6:	19ca      	adds	r2, r1, r7
10000cb8:	2800      	cmp	r0, #0
10000cba:	d04c      	beq.n	10000d56 <ph_remove_any_head+0xbe>
10000cbc:	0043      	lsls	r3, r0, #1
10000cbe:	181b      	adds	r3, r3, r0
10000cc0:	3b03      	subs	r3, #3
10000cc2:	18cb      	adds	r3, r1, r3
10000cc4:	785e      	ldrb	r6, [r3, #1]
10000cc6:	46b4      	mov	ip, r6
10000cc8:	2e00      	cmp	r6, #0
10000cca:	d116      	bne.n	10000cfa <ph_remove_any_head+0x62>
10000ccc:	9e01      	ldr	r6, [sp, #4]
10000cce:	2e00      	cmp	r6, #0
10000cd0:	d03e      	beq.n	10000d50 <ph_remove_any_head+0xb8>
10000cd2:	7be6      	ldrb	r6, [r4, #15]
10000cd4:	2e00      	cmp	r6, #0
10000cd6:	d004      	beq.n	10000ce2 <ph_remove_any_head+0x4a>
10000cd8:	0073      	lsls	r3, r6, #1
10000cda:	199b      	adds	r3, r3, r6
10000cdc:	18cb      	adds	r3, r1, r3
10000cde:	3b03      	subs	r3, #3
10000ce0:	705d      	strb	r5, [r3, #1]
10000ce2:	73e5      	strb	r5, [r4, #15]
10000ce4:	2800      	cmp	r0, #0
10000ce6:	d12f      	bne.n	10000d48 <ph_remove_any_head+0xb0>
10000ce8:	2300      	movs	r3, #0
10000cea:	7053      	strb	r3, [r2, #1]
10000cec:	b003      	add	sp, #12
10000cee:	bcf0      	pop	{r4, r5, r6, r7}
10000cf0:	46bb      	mov	fp, r7
10000cf2:	46b2      	mov	sl, r6
10000cf4:	46a9      	mov	r9, r5
10000cf6:	46a0      	mov	r8, r4
10000cf8:	bdf0      	pop	{r4, r5, r6, r7, pc}
10000cfa:	0072      	lsls	r2, r6, #1
10000cfc:	4462      	add	r2, ip
10000cfe:	3a03      	subs	r2, #3
10000d00:	1889      	adds	r1, r1, r2
10000d02:	784a      	ldrb	r2, [r1, #1]
10000d04:	4690      	mov	r8, r2
10000d06:	2200      	movs	r2, #0
10000d08:	704a      	strb	r2, [r1, #1]
10000d0a:	4691      	mov	r9, r2
10000d0c:	705a      	strb	r2, [r3, #1]
10000d0e:	0001      	movs	r1, r0
10000d10:	0032      	movs	r2, r6
10000d12:	0020      	movs	r0, r4
10000d14:	f7ff ff26 	bl	10000b64 <ph_merge_nodes>
10000d18:	4643      	mov	r3, r8
10000d1a:	4682      	mov	sl, r0
10000d1c:	2b00      	cmp	r3, #0
10000d1e:	d007      	beq.n	10000d30 <ph_remove_any_head+0x98>
10000d20:	005b      	lsls	r3, r3, #1
10000d22:	6821      	ldr	r1, [r4, #0]
10000d24:	4443      	add	r3, r8
10000d26:	3b03      	subs	r3, #3
10000d28:	18cb      	adds	r3, r1, r3
10000d2a:	785a      	ldrb	r2, [r3, #1]
10000d2c:	2a00      	cmp	r2, #0
10000d2e:	d116      	bne.n	10000d5e <ph_remove_any_head+0xc6>
10000d30:	4642      	mov	r2, r8
10000d32:	4651      	mov	r1, sl
10000d34:	0020      	movs	r0, r4
10000d36:	f7ff ff15 	bl	10000b64 <ph_merge_nodes>
10000d3a:	6821      	ldr	r1, [r4, #0]
10000d3c:	9b01      	ldr	r3, [sp, #4]
10000d3e:	19ca      	adds	r2, r1, r7
10000d40:	2b00      	cmp	r3, #0
10000d42:	d1c6      	bne.n	10000cd2 <ph_remove_any_head+0x3a>
10000d44:	2800      	cmp	r0, #0
10000d46:	d0cf      	beq.n	10000ce8 <ph_remove_any_head+0x50>
10000d48:	0043      	lsls	r3, r0, #1
10000d4a:	181b      	adds	r3, r3, r0
10000d4c:	3b03      	subs	r3, #3
10000d4e:	18cb      	adds	r3, r1, r3
10000d50:	2100      	movs	r1, #0
10000d52:	7099      	strb	r1, [r3, #2]
10000d54:	e7c8      	b.n	10000ce8 <ph_remove_any_head+0x50>
10000d56:	9b01      	ldr	r3, [sp, #4]
10000d58:	2b00      	cmp	r3, #0
10000d5a:	d1ba      	bne.n	10000cd2 <ph_remove_any_head+0x3a>
10000d5c:	e7c4      	b.n	10000ce8 <ph_remove_any_head+0x50>
10000d5e:	0050      	lsls	r0, r2, #1
10000d60:	1880      	adds	r0, r0, r2
10000d62:	3803      	subs	r0, #3
10000d64:	1809      	adds	r1, r1, r0
10000d66:	7848      	ldrb	r0, [r1, #1]
10000d68:	4683      	mov	fp, r0
10000d6a:	4648      	mov	r0, r9
10000d6c:	7048      	strb	r0, [r1, #1]
10000d6e:	7058      	strb	r0, [r3, #1]
10000d70:	4641      	mov	r1, r8
10000d72:	0020      	movs	r0, r4
10000d74:	f7ff fef6 	bl	10000b64 <ph_merge_nodes>
10000d78:	4659      	mov	r1, fp
10000d7a:	4680      	mov	r8, r0
10000d7c:	0020      	movs	r0, r4
10000d7e:	f7ff ff43 	bl	10000c08 <ph_merge_two_pass>
10000d82:	4641      	mov	r1, r8
10000d84:	0002      	movs	r2, r0
10000d86:	0020      	movs	r0, r4
10000d88:	f7ff feec 	bl	10000b64 <ph_merge_nodes>
10000d8c:	4680      	mov	r8, r0
10000d8e:	e7cf      	b.n	10000d30 <ph_remove_any_head+0x98>

10000d90 <ph_remove_head>:
10000d90:	b5f0      	push	{r4, r5, r6, r7, lr}
10000d92:	4657      	mov	r7, sl
10000d94:	4645      	mov	r5, r8
10000d96:	46de      	mov	lr, fp
10000d98:	464e      	mov	r6, r9
10000d9a:	b5e0      	push	{r5, r6, r7, lr}
10000d9c:	b083      	sub	sp, #12
10000d9e:	9101      	str	r1, [sp, #4]
10000da0:	7b45      	ldrb	r5, [r0, #13]
10000da2:	0004      	movs	r4, r0
10000da4:	006b      	lsls	r3, r5, #1
10000da6:	6800      	ldr	r0, [r0, #0]
10000da8:	195b      	adds	r3, r3, r5
10000daa:	1edf      	subs	r7, r3, #3
10000dac:	5dc1      	ldrb	r1, [r0, r7]
10000dae:	19c2      	adds	r2, r0, r7
10000db0:	2900      	cmp	r1, #0
10000db2:	d04e      	beq.n	10000e52 <ph_remove_head+0xc2>
10000db4:	004b      	lsls	r3, r1, #1
10000db6:	185b      	adds	r3, r3, r1
10000db8:	3b03      	subs	r3, #3
10000dba:	18c3      	adds	r3, r0, r3
10000dbc:	785e      	ldrb	r6, [r3, #1]
10000dbe:	46b4      	mov	ip, r6
10000dc0:	2e00      	cmp	r6, #0
10000dc2:	d118      	bne.n	10000df6 <ph_remove_head+0x66>
10000dc4:	9e01      	ldr	r6, [sp, #4]
10000dc6:	2e00      	cmp	r6, #0
10000dc8:	d040      	beq.n	10000e4c <ph_remove_head+0xbc>
10000dca:	7be6      	ldrb	r6, [r4, #15]
10000dcc:	2e00      	cmp	r6, #0
10000dce:	d004      	beq.n	10000dda <ph_remove_head+0x4a>
10000dd0:	0073      	lsls	r3, r6, #1
10000dd2:	199b      	adds	r3, r3, r6
10000dd4:	18c3      	adds	r3, r0, r3
10000dd6:	3b03      	subs	r3, #3
10000dd8:	705d      	strb	r5, [r3, #1]
10000dda:	73e5      	strb	r5, [r4, #15]
10000ddc:	2900      	cmp	r1, #0
10000dde:	d131      	bne.n	10000e44 <ph_remove_head+0xb4>
10000de0:	2300      	movs	r3, #0
10000de2:	0028      	movs	r0, r5
10000de4:	7053      	strb	r3, [r2, #1]
10000de6:	7361      	strb	r1, [r4, #13]
10000de8:	b003      	add	sp, #12
10000dea:	bcf0      	pop	{r4, r5, r6, r7}
10000dec:	46bb      	mov	fp, r7
10000dee:	46b2      	mov	sl, r6
10000df0:	46a9      	mov	r9, r5
10000df2:	46a0      	mov	r8, r4
10000df4:	bdf0      	pop	{r4, r5, r6, r7, pc}
10000df6:	0072      	lsls	r2, r6, #1
10000df8:	4462      	add	r2, ip
10000dfa:	3a03      	subs	r2, #3
10000dfc:	1880      	adds	r0, r0, r2
10000dfe:	7842      	ldrb	r2, [r0, #1]
10000e00:	4690      	mov	r8, r2
10000e02:	2200      	movs	r2, #0
10000e04:	7042      	strb	r2, [r0, #1]
10000e06:	4691      	mov	r9, r2
10000e08:	705a      	strb	r2, [r3, #1]
10000e0a:	0020      	movs	r0, r4
10000e0c:	0032      	movs	r2, r6
10000e0e:	f7ff fea9 	bl	10000b64 <ph_merge_nodes>
10000e12:	4643      	mov	r3, r8
10000e14:	4682      	mov	sl, r0
10000e16:	2b00      	cmp	r3, #0
10000e18:	d007      	beq.n	10000e2a <ph_remove_head+0x9a>
10000e1a:	005b      	lsls	r3, r3, #1
10000e1c:	6821      	ldr	r1, [r4, #0]
10000e1e:	4443      	add	r3, r8
10000e20:	3b03      	subs	r3, #3
10000e22:	18cb      	adds	r3, r1, r3
10000e24:	785a      	ldrb	r2, [r3, #1]
10000e26:	2a00      	cmp	r2, #0
10000e28:	d117      	bne.n	10000e5a <ph_remove_head+0xca>
10000e2a:	4642      	mov	r2, r8
10000e2c:	4651      	mov	r1, sl
10000e2e:	0020      	movs	r0, r4
10000e30:	f7ff fe98 	bl	10000b64 <ph_merge_nodes>
10000e34:	9b01      	ldr	r3, [sp, #4]
10000e36:	0001      	movs	r1, r0
10000e38:	6820      	ldr	r0, [r4, #0]
10000e3a:	19c2      	adds	r2, r0, r7
10000e3c:	2b00      	cmp	r3, #0
10000e3e:	d1c4      	bne.n	10000dca <ph_remove_head+0x3a>
10000e40:	2900      	cmp	r1, #0
10000e42:	d0cd      	beq.n	10000de0 <ph_remove_head+0x50>
10000e44:	004b      	lsls	r3, r1, #1
10000e46:	185b      	adds	r3, r3, r1
10000e48:	3b03      	subs	r3, #3
10000e4a:	18c3      	adds	r3, r0, r3
10000e4c:	2000      	movs	r0, #0
10000e4e:	7098      	strb	r0, [r3, #2]
10000e50:	e7c6      	b.n	10000de0 <ph_remove_head+0x50>
10000e52:	9b01      	ldr	r3, [sp, #4]
10000e54:	2b00      	cmp	r3, #0
10000e56:	d1b8      	bne.n	10000dca <ph_remove_head+0x3a>
10000e58:	e7c2      	b.n	10000de0 <ph_remove_head+0x50>
10000e5a:	0050      	lsls	r0, r2, #1
10000e5c:	1880      	adds	r0, r0, r2
10000e5e:	3803      	subs	r0, #3
10000e60:	1809      	adds	r1, r1, r0
10000e62:	7848      	ldrb	r0, [r1, #1]
10000e64:	4683      	mov	fp, r0
10000e66:	4648      	mov	r0, r9
10000e68:	7048      	strb	r0, [r1, #1]
10000e6a:	7058      	strb	r0, [r3, #1]
10000e6c:	4641      	mov	r1, r8
10000e6e:	0020      	movs	r0, r4
10000e70:	f7ff fe78 	bl	10000b64 <ph_merge_nodes>
10000e74:	4659      	mov	r1, fp
10000e76:	4680      	mov	r8, r0
10000e78:	0020      	movs	r0, r4
10000e7a:	f7ff fec5 	bl	10000c08 <ph_merge_two_pass>
10000e7e:	4641      	mov	r1, r8
10000e80:	0002      	movs	r2, r0
10000e82:	0020      	movs	r0, r4
10000e84:	f7ff fe6e 	bl	10000b64 <ph_merge_nodes>
10000e88:	4680      	mov	r8, r0
10000e8a:	e7ce      	b.n	10000e2a <ph_remove_head+0x9a>

10000e8c <ph_remove_and_free_node>:
10000e8c:	b570      	push	{r4, r5, r6, lr}
10000e8e:	0004      	movs	r4, r0
10000e90:	2900      	cmp	r1, #0
10000e92:	d02c      	beq.n	10000eee <ph_remove_and_free_node+0x62>
10000e94:	7b43      	ldrb	r3, [r0, #13]
10000e96:	428b      	cmp	r3, r1
10000e98:	d02e      	beq.n	10000ef8 <ph_remove_and_free_node+0x6c>
10000e9a:	6805      	ldr	r5, [r0, #0]
10000e9c:	0048      	lsls	r0, r1, #1
10000e9e:	1840      	adds	r0, r0, r1
10000ea0:	3803      	subs	r0, #3
10000ea2:	1828      	adds	r0, r5, r0
10000ea4:	7882      	ldrb	r2, [r0, #2]
10000ea6:	2a00      	cmp	r2, #0
10000ea8:	d021      	beq.n	10000eee <ph_remove_and_free_node+0x62>
10000eaa:	0053      	lsls	r3, r2, #1
10000eac:	189b      	adds	r3, r3, r2
10000eae:	3b03      	subs	r3, #3
10000eb0:	5cea      	ldrb	r2, [r5, r3]
10000eb2:	18ee      	adds	r6, r5, r3
10000eb4:	428a      	cmp	r2, r1
10000eb6:	d102      	bne.n	10000ebe <ph_remove_and_free_node+0x32>
10000eb8:	e01b      	b.n	10000ef2 <ph_remove_and_free_node+0x66>
10000eba:	2a00      	cmp	r2, #0
10000ebc:	d008      	beq.n	10000ed0 <ph_remove_and_free_node+0x44>
10000ebe:	0053      	lsls	r3, r2, #1
10000ec0:	189b      	adds	r3, r3, r2
10000ec2:	3b03      	subs	r3, #3
10000ec4:	18eb      	adds	r3, r5, r3
10000ec6:	785a      	ldrb	r2, [r3, #1]
10000ec8:	428a      	cmp	r2, r1
10000eca:	d1f6      	bne.n	10000eba <ph_remove_and_free_node+0x2e>
10000ecc:	7842      	ldrb	r2, [r0, #1]
10000ece:	705a      	strb	r2, [r3, #1]
10000ed0:	2300      	movs	r3, #0
10000ed2:	2201      	movs	r2, #1
10000ed4:	7083      	strb	r3, [r0, #2]
10000ed6:	7043      	strb	r3, [r0, #1]
10000ed8:	0020      	movs	r0, r4
10000eda:	f7ff fedd 	bl	10000c98 <ph_remove_any_head>
10000ede:	7b61      	ldrb	r1, [r4, #13]
10000ee0:	0002      	movs	r2, r0
10000ee2:	0020      	movs	r0, r4
10000ee4:	f7ff fe3e 	bl	10000b64 <ph_merge_nodes>
10000ee8:	7360      	strb	r0, [r4, #13]
10000eea:	2001      	movs	r0, #1
10000eec:	e000      	b.n	10000ef0 <ph_remove_and_free_node+0x64>
10000eee:	2000      	movs	r0, #0
10000ef0:	bd70      	pop	{r4, r5, r6, pc}
10000ef2:	7843      	ldrb	r3, [r0, #1]
10000ef4:	7033      	strb	r3, [r6, #0]
10000ef6:	e7eb      	b.n	10000ed0 <ph_remove_and_free_node+0x44>
10000ef8:	2201      	movs	r2, #1
10000efa:	0019      	movs	r1, r3
10000efc:	f7ff fecc 	bl	10000c98 <ph_remove_any_head>
10000f00:	7360      	strb	r0, [r4, #13]
10000f02:	2001      	movs	r0, #1
10000f04:	e7f4      	b.n	10000ef0 <ph_remove_and_free_node+0x64>
10000f06:	46c0      	nop			; (mov r8, r8)

10000f08 <runtime_init>:
10000f08:	4b2c      	ldr	r3, [pc, #176]	; (10000fbc <runtime_init+0xb4>)
10000f0a:	4a2d      	ldr	r2, [pc, #180]	; (10000fc0 <runtime_init+0xb8>)
10000f0c:	b570      	push	{r4, r5, r6, lr}
10000f0e:	601a      	str	r2, [r3, #0]
10000f10:	4a2c      	ldr	r2, [pc, #176]	; (10000fc4 <runtime_init+0xbc>)
10000f12:	4b2d      	ldr	r3, [pc, #180]	; (10000fc8 <runtime_init+0xc0>)
10000f14:	492d      	ldr	r1, [pc, #180]	; (10000fcc <runtime_init+0xc4>)
10000f16:	601a      	str	r2, [r3, #0]
10000f18:	0014      	movs	r4, r2
10000f1a:	688b      	ldr	r3, [r1, #8]
10000f1c:	439c      	bics	r4, r3
10000f1e:	d1fb      	bne.n	10000f18 <runtime_init+0x10>
10000f20:	4d2b      	ldr	r5, [pc, #172]	; (10000fd0 <runtime_init+0xc8>)
10000f22:	4e2c      	ldr	r6, [pc, #176]	; (10000fd4 <runtime_init+0xcc>)
10000f24:	42b5      	cmp	r5, r6
10000f26:	d208      	bcs.n	10000f3a <runtime_init+0x32>
10000f28:	3e01      	subs	r6, #1
10000f2a:	1b76      	subs	r6, r6, r5
10000f2c:	08b6      	lsrs	r6, r6, #2
10000f2e:	cd08      	ldmia	r5!, {r3}
10000f30:	4798      	blx	r3
10000f32:	0023      	movs	r3, r4
10000f34:	3401      	adds	r4, #1
10000f36:	42b3      	cmp	r3, r6
10000f38:	d1f9      	bne.n	10000f2e <runtime_init+0x26>
10000f3a:	f000 f897 	bl	1000106c <clocks_init>
10000f3e:	4a26      	ldr	r2, [pc, #152]	; (10000fd8 <runtime_init+0xd0>)
10000f40:	4b21      	ldr	r3, [pc, #132]	; (10000fc8 <runtime_init+0xc0>)
10000f42:	601a      	str	r2, [r3, #0]
10000f44:	4a21      	ldr	r2, [pc, #132]	; (10000fcc <runtime_init+0xc4>)
10000f46:	6893      	ldr	r3, [r2, #8]
10000f48:	43db      	mvns	r3, r3
10000f4a:	01db      	lsls	r3, r3, #7
10000f4c:	09dd      	lsrs	r5, r3, #7
10000f4e:	2b00      	cmp	r3, #0
10000f50:	d1f9      	bne.n	10000f46 <runtime_init+0x3e>
10000f52:	2240      	movs	r2, #64	; 0x40
10000f54:	4b21      	ldr	r3, [pc, #132]	; (10000fdc <runtime_init+0xd4>)
10000f56:	4c22      	ldr	r4, [pc, #136]	; (10000fe0 <runtime_init+0xd8>)
10000f58:	4e22      	ldr	r6, [pc, #136]	; (10000fe4 <runtime_init+0xdc>)
10000f5a:	679a      	str	r2, [r3, #120]	; 0x78
10000f5c:	675a      	str	r2, [r3, #116]	; 0x74
10000f5e:	671a      	str	r2, [r3, #112]	; 0x70
10000f60:	66da      	str	r2, [r3, #108]	; 0x6c
10000f62:	42b4      	cmp	r4, r6
10000f64:	d208      	bcs.n	10000f78 <runtime_init+0x70>
10000f66:	6823      	ldr	r3, [r4, #0]
10000f68:	0020      	movs	r0, r4
10000f6a:	2b00      	cmp	r3, #0
10000f6c:	d020      	beq.n	10000fb0 <runtime_init+0xa8>
10000f6e:	3408      	adds	r4, #8
10000f70:	f7ff fdea 	bl	10000b48 <recursive_mutex_init>
10000f74:	42b4      	cmp	r4, r6
10000f76:	d3f6      	bcc.n	10000f66 <runtime_init+0x5e>
10000f78:	4e1b      	ldr	r6, [pc, #108]	; (10000fe8 <runtime_init+0xe0>)
10000f7a:	4c1c      	ldr	r4, [pc, #112]	; (10000fec <runtime_init+0xe4>)
10000f7c:	22c0      	movs	r2, #192	; 0xc0
10000f7e:	68a1      	ldr	r1, [r4, #8]
10000f80:	0030      	movs	r0, r6
10000f82:	f000 fd1d 	bl	100019c0 <__wrap___aeabi_memcpy>
10000f86:	60a6      	str	r6, [r4, #8]
10000f88:	f7ff fa48 	bl	1000041c <spin_locks_reset>
10000f8c:	f000 fb4a 	bl	10001624 <irq_init_priorities>
10000f90:	f7ff fc4c 	bl	1000082c <alarm_pool_init_default>
10000f94:	4c16      	ldr	r4, [pc, #88]	; (10000ff0 <runtime_init+0xe8>)
10000f96:	4e17      	ldr	r6, [pc, #92]	; (10000ff4 <runtime_init+0xec>)
10000f98:	42b4      	cmp	r4, r6
10000f9a:	d208      	bcs.n	10000fae <runtime_init+0xa6>
10000f9c:	3e01      	subs	r6, #1
10000f9e:	1b36      	subs	r6, r6, r4
10000fa0:	08b6      	lsrs	r6, r6, #2
10000fa2:	cc08      	ldmia	r4!, {r3}
10000fa4:	4798      	blx	r3
10000fa6:	002b      	movs	r3, r5
10000fa8:	3501      	adds	r5, #1
10000faa:	429e      	cmp	r6, r3
10000fac:	d1f9      	bne.n	10000fa2 <runtime_init+0x9a>
10000fae:	bd70      	pop	{r4, r5, r6, pc}
10000fb0:	3408      	adds	r4, #8
10000fb2:	f7ff fdbb 	bl	10000b2c <mutex_init>
10000fb6:	42b4      	cmp	r4, r6
10000fb8:	d3d5      	bcc.n	10000f66 <runtime_init+0x5e>
10000fba:	e7dd      	b.n	10000f78 <runtime_init+0x70>
10000fbc:	4000e000 	.word	0x4000e000
10000fc0:	fefbcdbf 	.word	0xfefbcdbf
10000fc4:	003c7ffe 	.word	0x003c7ffe
10000fc8:	4000f000 	.word	0x4000f000
10000fcc:	4000c000 	.word	0x4000c000
10000fd0:	20000a70 	.word	0x20000a70
10000fd4:	20000a80 	.word	0x20000a80
10000fd8:	01ffffff 	.word	0x01ffffff
10000fdc:	4001f000 	.word	0x4001f000
10000fe0:	20000a68 	.word	0x20000a68
10000fe4:	20000a70 	.word	0x20000a70
10000fe8:	20000000 	.word	0x20000000
10000fec:	e000ed00 	.word	0xe000ed00
10000ff0:	20000a80 	.word	0x20000a80
10000ff4:	20000a84 	.word	0x20000a84

10000ff8 <_sbrk>:
10000ff8:	4a09      	ldr	r2, [pc, #36]	; (10001020 <_sbrk+0x28>)
10000ffa:	0003      	movs	r3, r0
10000ffc:	6810      	ldr	r0, [r2, #0]
10000ffe:	2800      	cmp	r0, #0
10001000:	d005      	beq.n	1000100e <_sbrk+0x16>
10001002:	4908      	ldr	r1, [pc, #32]	; (10001024 <_sbrk+0x2c>)
10001004:	18c3      	adds	r3, r0, r3
10001006:	428b      	cmp	r3, r1
10001008:	d807      	bhi.n	1000101a <_sbrk+0x22>
1000100a:	6013      	str	r3, [r2, #0]
1000100c:	4770      	bx	lr
1000100e:	4806      	ldr	r0, [pc, #24]	; (10001028 <_sbrk+0x30>)
10001010:	4904      	ldr	r1, [pc, #16]	; (10001024 <_sbrk+0x2c>)
10001012:	18c3      	adds	r3, r0, r3
10001014:	6010      	str	r0, [r2, #0]
10001016:	428b      	cmp	r3, r1
10001018:	d9f7      	bls.n	1000100a <_sbrk+0x12>
1000101a:	2001      	movs	r0, #1
1000101c:	4240      	negs	r0, r0
1000101e:	e7f5      	b.n	1000100c <_sbrk+0x14>
10001020:	20000ff0 	.word	0x20000ff0
10001024:	20040000 	.word	0x20040000
10001028:	2000102c 	.word	0x2000102c

1000102c <exit>:
1000102c:	be00      	bkpt	0x0000
1000102e:	e7fd      	b.n	1000102c <exit>

10001030 <panic>:
10001030:	b40f      	push	{r0, r1, r2, r3}
10001032:	b500      	push	{lr}
10001034:	4808      	ldr	r0, [pc, #32]	; (10001058 <panic+0x28>)
10001036:	b083      	sub	sp, #12
10001038:	f000 fdf8 	bl	10001c2c <__wrap_puts>
1000103c:	9b04      	ldr	r3, [sp, #16]
1000103e:	2b00      	cmp	r3, #0
10001040:	d007      	beq.n	10001052 <panic+0x22>
10001042:	a905      	add	r1, sp, #20
10001044:	0018      	movs	r0, r3
10001046:	9101      	str	r1, [sp, #4]
10001048:	f000 fb76 	bl	10001738 <weak_raw_vprintf>
1000104c:	4803      	ldr	r0, [pc, #12]	; (1000105c <panic+0x2c>)
1000104e:	f000 fded 	bl	10001c2c <__wrap_puts>
10001052:	be00      	bkpt	0x0000
10001054:	e7fd      	b.n	10001052 <panic+0x22>
10001056:	46c0      	nop			; (mov r8, r8)
10001058:	10005558 	.word	0x10005558
1000105c:	10005568 	.word	0x10005568

10001060 <hard_assertion_failure>:
10001060:	b510      	push	{r4, lr}
10001062:	4801      	ldr	r0, [pc, #4]	; (10001068 <hard_assertion_failure+0x8>)
10001064:	f7ff ffe4 	bl	10001030 <panic>
10001068:	1000556c 	.word	0x1000556c

1000106c <clocks_init>:
1000106c:	b530      	push	{r4, r5, lr}
1000106e:	200c      	movs	r0, #12
10001070:	b083      	sub	sp, #12
10001072:	f000 fb3d 	bl	100016f0 <watchdog_start_tick>
10001076:	f7ff f9c9 	bl	1000040c <running_on_fpga>
1000107a:	2800      	cmp	r0, #0
1000107c:	d00e      	beq.n	1000109c <clocks_init+0x30>
1000107e:	4b94      	ldr	r3, [pc, #592]	; (100012d0 <clocks_init+0x264>)
10001080:	4a94      	ldr	r2, [pc, #592]	; (100012d4 <clocks_init+0x268>)
10001082:	601a      	str	r2, [r3, #0]
10001084:	605a      	str	r2, [r3, #4]
10001086:	609a      	str	r2, [r3, #8]
10001088:	60da      	str	r2, [r3, #12]
1000108a:	611a      	str	r2, [r3, #16]
1000108c:	615a      	str	r2, [r3, #20]
1000108e:	619a      	str	r2, [r3, #24]
10001090:	61da      	str	r2, [r3, #28]
10001092:	621a      	str	r2, [r3, #32]
10001094:	4a90      	ldr	r2, [pc, #576]	; (100012d8 <clocks_init+0x26c>)
10001096:	625a      	str	r2, [r3, #36]	; 0x24
10001098:	b003      	add	sp, #12
1000109a:	bd30      	pop	{r4, r5, pc}
1000109c:	4c8f      	ldr	r4, [pc, #572]	; (100012dc <clocks_init+0x270>)
1000109e:	67a0      	str	r0, [r4, #120]	; 0x78
100010a0:	f000 fb2e 	bl	10001700 <xosc_init>
100010a4:	2201      	movs	r2, #1
100010a6:	4b8e      	ldr	r3, [pc, #568]	; (100012e0 <clocks_init+0x274>)
100010a8:	601a      	str	r2, [r3, #0]
100010aa:	6c63      	ldr	r3, [r4, #68]	; 0x44
100010ac:	2b01      	cmp	r3, #1
100010ae:	d1fc      	bne.n	100010aa <clocks_init+0x3e>
100010b0:	2203      	movs	r2, #3
100010b2:	4b8c      	ldr	r3, [pc, #560]	; (100012e4 <clocks_init+0x278>)
100010b4:	601a      	str	r2, [r3, #0]
100010b6:	4a89      	ldr	r2, [pc, #548]	; (100012dc <clocks_init+0x270>)
100010b8:	6b93      	ldr	r3, [r2, #56]	; 0x38
100010ba:	2b01      	cmp	r3, #1
100010bc:	d1fc      	bne.n	100010b8 <clocks_init+0x4c>
100010be:	2402      	movs	r4, #2
100010c0:	2101      	movs	r1, #1
100010c2:	4a89      	ldr	r2, [pc, #548]	; (100012e8 <clocks_init+0x27c>)
100010c4:	4889      	ldr	r0, [pc, #548]	; (100012ec <clocks_init+0x280>)
100010c6:	3305      	adds	r3, #5
100010c8:	9400      	str	r4, [sp, #0]
100010ca:	f000 fabd 	bl	10001648 <pll_init>
100010ce:	2305      	movs	r3, #5
100010d0:	4a87      	ldr	r2, [pc, #540]	; (100012f0 <clocks_init+0x284>)
100010d2:	2101      	movs	r1, #1
100010d4:	4887      	ldr	r0, [pc, #540]	; (100012f4 <clocks_init+0x288>)
100010d6:	9400      	str	r4, [sp, #0]
100010d8:	f000 fab6 	bl	10001648 <pll_init>
100010dc:	4b86      	ldr	r3, [pc, #536]	; (100012f8 <clocks_init+0x28c>)
100010de:	685a      	ldr	r2, [r3, #4]
100010e0:	2aff      	cmp	r2, #255	; 0xff
100010e2:	d802      	bhi.n	100010ea <clocks_init+0x7e>
100010e4:	2280      	movs	r2, #128	; 0x80
100010e6:	0052      	lsls	r2, r2, #1
100010e8:	605a      	str	r2, [r3, #4]
100010ea:	2280      	movs	r2, #128	; 0x80
100010ec:	4c78      	ldr	r4, [pc, #480]	; (100012d0 <clocks_init+0x264>)
100010ee:	4b7d      	ldr	r3, [pc, #500]	; (100012e4 <clocks_init+0x278>)
100010f0:	6921      	ldr	r1, [r4, #16]
100010f2:	0112      	lsls	r2, r2, #4
100010f4:	4d80      	ldr	r5, [pc, #512]	; (100012f8 <clocks_init+0x28c>)
100010f6:	601a      	str	r2, [r3, #0]
100010f8:	2900      	cmp	r1, #0
100010fa:	d005      	beq.n	10001108 <clocks_init+0x9c>
100010fc:	6960      	ldr	r0, [r4, #20]
100010fe:	f000 fb6d 	bl	100017dc <__wrap___aeabi_uidiv>
10001102:	3001      	adds	r0, #1
10001104:	3801      	subs	r0, #1
10001106:	d1fd      	bne.n	10001104 <clocks_init+0x98>
10001108:	21e0      	movs	r1, #224	; 0xe0
1000110a:	4b7b      	ldr	r3, [pc, #492]	; (100012f8 <clocks_init+0x28c>)
1000110c:	2002      	movs	r0, #2
1000110e:	681a      	ldr	r2, [r3, #0]
10001110:	4011      	ands	r1, r2
10001112:	2280      	movs	r2, #128	; 0x80
10001114:	0152      	lsls	r2, r2, #5
10001116:	432a      	orrs	r2, r5
10001118:	6011      	str	r1, [r2, #0]
1000111a:	6819      	ldr	r1, [r3, #0]
1000111c:	4048      	eors	r0, r1
1000111e:	2103      	movs	r1, #3
10001120:	4001      	ands	r1, r0
10001122:	6011      	str	r1, [r2, #0]
10001124:	2104      	movs	r1, #4
10001126:	689a      	ldr	r2, [r3, #8]
10001128:	4211      	tst	r1, r2
1000112a:	d0fc      	beq.n	10001126 <clocks_init+0xba>
1000112c:	2280      	movs	r2, #128	; 0x80
1000112e:	2180      	movs	r1, #128	; 0x80
10001130:	0192      	lsls	r2, r2, #6
10001132:	432a      	orrs	r2, r5
10001134:	0109      	lsls	r1, r1, #4
10001136:	6011      	str	r1, [r2, #0]
10001138:	2280      	movs	r2, #128	; 0x80
1000113a:	0052      	lsls	r2, r2, #1
1000113c:	605a      	str	r2, [r3, #4]
1000113e:	4b6f      	ldr	r3, [pc, #444]	; (100012fc <clocks_init+0x290>)
10001140:	6123      	str	r3, [r4, #16]
10001142:	4b6f      	ldr	r3, [pc, #444]	; (10001300 <clocks_init+0x294>)
10001144:	6859      	ldr	r1, [r3, #4]
10001146:	29ff      	cmp	r1, #255	; 0xff
10001148:	d800      	bhi.n	1000114c <clocks_init+0xe0>
1000114a:	605a      	str	r2, [r3, #4]
1000114c:	2103      	movs	r1, #3
1000114e:	4a64      	ldr	r2, [pc, #400]	; (100012e0 <clocks_init+0x274>)
10001150:	4b6b      	ldr	r3, [pc, #428]	; (10001300 <clocks_init+0x294>)
10001152:	6011      	str	r1, [r2, #0]
10001154:	3902      	subs	r1, #2
10001156:	689a      	ldr	r2, [r3, #8]
10001158:	4211      	tst	r1, r2
1000115a:	d0fc      	beq.n	10001156 <clocks_init+0xea>
1000115c:	20e0      	movs	r0, #224	; 0xe0
1000115e:	681a      	ldr	r2, [r3, #0]
10001160:	4010      	ands	r0, r2
10001162:	2280      	movs	r2, #128	; 0x80
10001164:	0152      	lsls	r2, r2, #5
10001166:	431a      	orrs	r2, r3
10001168:	6010      	str	r0, [r2, #0]
1000116a:	6818      	ldr	r0, [r3, #0]
1000116c:	4048      	eors	r0, r1
1000116e:	2103      	movs	r1, #3
10001170:	4001      	ands	r1, r0
10001172:	2002      	movs	r0, #2
10001174:	6011      	str	r1, [r2, #0]
10001176:	4962      	ldr	r1, [pc, #392]	; (10001300 <clocks_init+0x294>)
10001178:	688a      	ldr	r2, [r1, #8]
1000117a:	4210      	tst	r0, r2
1000117c:	d0fc      	beq.n	10001178 <clocks_init+0x10c>
1000117e:	2280      	movs	r2, #128	; 0x80
10001180:	0192      	lsls	r2, r2, #6
10001182:	4313      	orrs	r3, r2
10001184:	2280      	movs	r2, #128	; 0x80
10001186:	0112      	lsls	r2, r2, #4
10001188:	601a      	str	r2, [r3, #0]
1000118a:	2280      	movs	r2, #128	; 0x80
1000118c:	4b5d      	ldr	r3, [pc, #372]	; (10001304 <clocks_init+0x298>)
1000118e:	0052      	lsls	r2, r2, #1
10001190:	604a      	str	r2, [r1, #4]
10001192:	6163      	str	r3, [r4, #20]
10001194:	4b5c      	ldr	r3, [pc, #368]	; (10001308 <clocks_init+0x29c>)
10001196:	6859      	ldr	r1, [r3, #4]
10001198:	29ff      	cmp	r1, #255	; 0xff
1000119a:	d800      	bhi.n	1000119e <clocks_init+0x132>
1000119c:	605a      	str	r2, [r3, #4]
1000119e:	2280      	movs	r2, #128	; 0x80
100011a0:	4b5a      	ldr	r3, [pc, #360]	; (1000130c <clocks_init+0x2a0>)
100011a2:	69e1      	ldr	r1, [r4, #28]
100011a4:	0112      	lsls	r2, r2, #4
100011a6:	4d58      	ldr	r5, [pc, #352]	; (10001308 <clocks_init+0x29c>)
100011a8:	601a      	str	r2, [r3, #0]
100011aa:	2900      	cmp	r1, #0
100011ac:	d005      	beq.n	100011ba <clocks_init+0x14e>
100011ae:	6960      	ldr	r0, [r4, #20]
100011b0:	f000 fb14 	bl	100017dc <__wrap___aeabi_uidiv>
100011b4:	3001      	adds	r0, #1
100011b6:	3801      	subs	r0, #1
100011b8:	d1fd      	bne.n	100011b6 <clocks_init+0x14a>
100011ba:	22e0      	movs	r2, #224	; 0xe0
100011bc:	4952      	ldr	r1, [pc, #328]	; (10001308 <clocks_init+0x29c>)
100011be:	680b      	ldr	r3, [r1, #0]
100011c0:	401a      	ands	r2, r3
100011c2:	2380      	movs	r3, #128	; 0x80
100011c4:	015b      	lsls	r3, r3, #5
100011c6:	432b      	orrs	r3, r5
100011c8:	601a      	str	r2, [r3, #0]
100011ca:	2380      	movs	r3, #128	; 0x80
100011cc:	2280      	movs	r2, #128	; 0x80
100011ce:	019b      	lsls	r3, r3, #6
100011d0:	432b      	orrs	r3, r5
100011d2:	0112      	lsls	r2, r2, #4
100011d4:	601a      	str	r2, [r3, #0]
100011d6:	2280      	movs	r2, #128	; 0x80
100011d8:	4b3e      	ldr	r3, [pc, #248]	; (100012d4 <clocks_init+0x268>)
100011da:	0052      	lsls	r2, r2, #1
100011dc:	604a      	str	r2, [r1, #4]
100011de:	61e3      	str	r3, [r4, #28]
100011e0:	4b4b      	ldr	r3, [pc, #300]	; (10001310 <clocks_init+0x2a4>)
100011e2:	6859      	ldr	r1, [r3, #4]
100011e4:	29ff      	cmp	r1, #255	; 0xff
100011e6:	d800      	bhi.n	100011ea <clocks_init+0x17e>
100011e8:	605a      	str	r2, [r3, #4]
100011ea:	2280      	movs	r2, #128	; 0x80
100011ec:	4b49      	ldr	r3, [pc, #292]	; (10001314 <clocks_init+0x2a8>)
100011ee:	6a21      	ldr	r1, [r4, #32]
100011f0:	0112      	lsls	r2, r2, #4
100011f2:	4d47      	ldr	r5, [pc, #284]	; (10001310 <clocks_init+0x2a4>)
100011f4:	601a      	str	r2, [r3, #0]
100011f6:	2900      	cmp	r1, #0
100011f8:	d005      	beq.n	10001206 <clocks_init+0x19a>
100011fa:	6960      	ldr	r0, [r4, #20]
100011fc:	f000 faee 	bl	100017dc <__wrap___aeabi_uidiv>
10001200:	3001      	adds	r0, #1
10001202:	3801      	subs	r0, #1
10001204:	d1fd      	bne.n	10001202 <clocks_init+0x196>
10001206:	22e0      	movs	r2, #224	; 0xe0
10001208:	4941      	ldr	r1, [pc, #260]	; (10001310 <clocks_init+0x2a4>)
1000120a:	680b      	ldr	r3, [r1, #0]
1000120c:	401a      	ands	r2, r3
1000120e:	2380      	movs	r3, #128	; 0x80
10001210:	015b      	lsls	r3, r3, #5
10001212:	432b      	orrs	r3, r5
10001214:	601a      	str	r2, [r3, #0]
10001216:	2380      	movs	r3, #128	; 0x80
10001218:	2280      	movs	r2, #128	; 0x80
1000121a:	019b      	lsls	r3, r3, #6
1000121c:	432b      	orrs	r3, r5
1000121e:	0112      	lsls	r2, r2, #4
10001220:	601a      	str	r2, [r3, #0]
10001222:	2380      	movs	r3, #128	; 0x80
10001224:	2280      	movs	r2, #128	; 0x80
10001226:	005b      	lsls	r3, r3, #1
10001228:	604b      	str	r3, [r1, #4]
1000122a:	4b2a      	ldr	r3, [pc, #168]	; (100012d4 <clocks_init+0x268>)
1000122c:	02d2      	lsls	r2, r2, #11
1000122e:	6223      	str	r3, [r4, #32]
10001230:	4b39      	ldr	r3, [pc, #228]	; (10001318 <clocks_init+0x2ac>)
10001232:	6859      	ldr	r1, [r3, #4]
10001234:	4291      	cmp	r1, r2
10001236:	d200      	bcs.n	1000123a <clocks_init+0x1ce>
10001238:	605a      	str	r2, [r3, #4]
1000123a:	2280      	movs	r2, #128	; 0x80
1000123c:	4b37      	ldr	r3, [pc, #220]	; (1000131c <clocks_init+0x2b0>)
1000123e:	6a61      	ldr	r1, [r4, #36]	; 0x24
10001240:	0112      	lsls	r2, r2, #4
10001242:	4d35      	ldr	r5, [pc, #212]	; (10001318 <clocks_init+0x2ac>)
10001244:	601a      	str	r2, [r3, #0]
10001246:	2900      	cmp	r1, #0
10001248:	d005      	beq.n	10001256 <clocks_init+0x1ea>
1000124a:	6960      	ldr	r0, [r4, #20]
1000124c:	f000 fac6 	bl	100017dc <__wrap___aeabi_uidiv>
10001250:	3001      	adds	r0, #1
10001252:	3801      	subs	r0, #1
10001254:	d1fd      	bne.n	10001252 <clocks_init+0x1e6>
10001256:	22e0      	movs	r2, #224	; 0xe0
10001258:	492f      	ldr	r1, [pc, #188]	; (10001318 <clocks_init+0x2ac>)
1000125a:	680b      	ldr	r3, [r1, #0]
1000125c:	401a      	ands	r2, r3
1000125e:	2380      	movs	r3, #128	; 0x80
10001260:	015b      	lsls	r3, r3, #5
10001262:	432b      	orrs	r3, r5
10001264:	601a      	str	r2, [r3, #0]
10001266:	2380      	movs	r3, #128	; 0x80
10001268:	2280      	movs	r2, #128	; 0x80
1000126a:	019b      	lsls	r3, r3, #6
1000126c:	432b      	orrs	r3, r5
1000126e:	0112      	lsls	r2, r2, #4
10001270:	601a      	str	r2, [r3, #0]
10001272:	2380      	movs	r3, #128	; 0x80
10001274:	02db      	lsls	r3, r3, #11
10001276:	604b      	str	r3, [r1, #4]
10001278:	4b17      	ldr	r3, [pc, #92]	; (100012d8 <clocks_init+0x26c>)
1000127a:	6263      	str	r3, [r4, #36]	; 0x24
1000127c:	4b28      	ldr	r3, [pc, #160]	; (10001320 <clocks_init+0x2b4>)
1000127e:	685a      	ldr	r2, [r3, #4]
10001280:	2aff      	cmp	r2, #255	; 0xff
10001282:	d802      	bhi.n	1000128a <clocks_init+0x21e>
10001284:	2280      	movs	r2, #128	; 0x80
10001286:	0052      	lsls	r2, r2, #1
10001288:	605a      	str	r2, [r3, #4]
1000128a:	2280      	movs	r2, #128	; 0x80
1000128c:	4b25      	ldr	r3, [pc, #148]	; (10001324 <clocks_init+0x2b8>)
1000128e:	69a1      	ldr	r1, [r4, #24]
10001290:	0112      	lsls	r2, r2, #4
10001292:	4d23      	ldr	r5, [pc, #140]	; (10001320 <clocks_init+0x2b4>)
10001294:	601a      	str	r2, [r3, #0]
10001296:	2900      	cmp	r1, #0
10001298:	d005      	beq.n	100012a6 <clocks_init+0x23a>
1000129a:	6960      	ldr	r0, [r4, #20]
1000129c:	f000 fa9e 	bl	100017dc <__wrap___aeabi_uidiv>
100012a0:	3001      	adds	r0, #1
100012a2:	3801      	subs	r0, #1
100012a4:	d1fd      	bne.n	100012a2 <clocks_init+0x236>
100012a6:	22e0      	movs	r2, #224	; 0xe0
100012a8:	491d      	ldr	r1, [pc, #116]	; (10001320 <clocks_init+0x2b4>)
100012aa:	680b      	ldr	r3, [r1, #0]
100012ac:	401a      	ands	r2, r3
100012ae:	2380      	movs	r3, #128	; 0x80
100012b0:	015b      	lsls	r3, r3, #5
100012b2:	432b      	orrs	r3, r5
100012b4:	601a      	str	r2, [r3, #0]
100012b6:	2380      	movs	r3, #128	; 0x80
100012b8:	2280      	movs	r2, #128	; 0x80
100012ba:	019b      	lsls	r3, r3, #6
100012bc:	432b      	orrs	r3, r5
100012be:	0112      	lsls	r2, r2, #4
100012c0:	601a      	str	r2, [r3, #0]
100012c2:	2380      	movs	r3, #128	; 0x80
100012c4:	005b      	lsls	r3, r3, #1
100012c6:	604b      	str	r3, [r1, #4]
100012c8:	4b0e      	ldr	r3, [pc, #56]	; (10001304 <clocks_init+0x298>)
100012ca:	61a3      	str	r3, [r4, #24]
100012cc:	e6e4      	b.n	10001098 <clocks_init+0x2c>
100012ce:	46c0      	nop			; (mov r8, r8)
100012d0:	20000f7c 	.word	0x20000f7c
100012d4:	02dc6c00 	.word	0x02dc6c00
100012d8:	0000b71b 	.word	0x0000b71b
100012dc:	40008000 	.word	0x40008000
100012e0:	4000b03c 	.word	0x4000b03c
100012e4:	4000b030 	.word	0x4000b030
100012e8:	59682f00 	.word	0x59682f00
100012ec:	40028000 	.word	0x40028000
100012f0:	1c9c3800 	.word	0x1c9c3800
100012f4:	4002c000 	.word	0x4002c000
100012f8:	40008030 	.word	0x40008030
100012fc:	00b71b00 	.word	0x00b71b00
10001300:	4000803c 	.word	0x4000803c
10001304:	07735940 	.word	0x07735940
10001308:	40008054 	.word	0x40008054
1000130c:	4000b054 	.word	0x4000b054
10001310:	40008060 	.word	0x40008060
10001314:	4000b060 	.word	0x4000b060
10001318:	4000806c 	.word	0x4000806c
1000131c:	4000b06c 	.word	0x4000b06c
10001320:	40008048 	.word	0x40008048
10001324:	4000b048 	.word	0x4000b048

10001328 <clock_get_hz>:
10001328:	4b01      	ldr	r3, [pc, #4]	; (10001330 <clock_get_hz+0x8>)
1000132a:	0080      	lsls	r0, r0, #2
1000132c:	58c0      	ldr	r0, [r0, r3]
1000132e:	4770      	bx	lr
10001330:	20000f7c 	.word	0x20000f7c

10001334 <irq_set_enabled>:
10001334:	2301      	movs	r3, #1
10001336:	4083      	lsls	r3, r0
10001338:	2900      	cmp	r1, #0
1000133a:	d004      	beq.n	10001346 <irq_set_enabled+0x12>
1000133c:	4a03      	ldr	r2, [pc, #12]	; (1000134c <irq_set_enabled+0x18>)
1000133e:	6013      	str	r3, [r2, #0]
10001340:	4a03      	ldr	r2, [pc, #12]	; (10001350 <irq_set_enabled+0x1c>)
10001342:	6013      	str	r3, [r2, #0]
10001344:	4770      	bx	lr
10001346:	4a03      	ldr	r2, [pc, #12]	; (10001354 <irq_set_enabled+0x20>)
10001348:	6013      	str	r3, [r2, #0]
1000134a:	e7fb      	b.n	10001344 <irq_set_enabled+0x10>
1000134c:	e000e280 	.word	0xe000e280
10001350:	e000e100 	.word	0xe000e100
10001354:	e000e180 	.word	0xe000e180

10001358 <irq_get_vtable_handler>:
10001358:	4b02      	ldr	r3, [pc, #8]	; (10001364 <irq_get_vtable_handler+0xc>)
1000135a:	3010      	adds	r0, #16
1000135c:	689b      	ldr	r3, [r3, #8]
1000135e:	0080      	lsls	r0, r0, #2
10001360:	58c0      	ldr	r0, [r0, r3]
10001362:	4770      	bx	lr
10001364:	e000ed00 	.word	0xe000ed00

10001368 <irq_set_exclusive_handler>:
10001368:	b570      	push	{r4, r5, r6, lr}
1000136a:	000d      	movs	r5, r1
1000136c:	f3ef 8610 	mrs	r6, PRIMASK
10001370:	b672      	cpsid	i
10001372:	4a0f      	ldr	r2, [pc, #60]	; (100013b0 <irq_set_exclusive_handler+0x48>)
10001374:	6813      	ldr	r3, [r2, #0]
10001376:	2b00      	cmp	r3, #0
10001378:	d0fc      	beq.n	10001374 <irq_set_exclusive_handler+0xc>
1000137a:	f3bf 8f5f 	dmb	sy
1000137e:	4b0d      	ldr	r3, [pc, #52]	; (100013b4 <irq_set_exclusive_handler+0x4c>)
10001380:	3010      	adds	r0, #16
10001382:	689b      	ldr	r3, [r3, #8]
10001384:	0084      	lsls	r4, r0, #2
10001386:	591b      	ldr	r3, [r3, r4]
10001388:	4a0b      	ldr	r2, [pc, #44]	; (100013b8 <irq_set_exclusive_handler+0x50>)
1000138a:	4293      	cmp	r3, r2
1000138c:	d003      	beq.n	10001396 <irq_set_exclusive_handler+0x2e>
1000138e:	429d      	cmp	r5, r3
10001390:	d001      	beq.n	10001396 <irq_set_exclusive_handler+0x2e>
10001392:	f7ff fe65 	bl	10001060 <hard_assertion_failure>
10001396:	4b07      	ldr	r3, [pc, #28]	; (100013b4 <irq_set_exclusive_handler+0x4c>)
10001398:	689b      	ldr	r3, [r3, #8]
1000139a:	511d      	str	r5, [r3, r4]
1000139c:	f3bf 8f5f 	dmb	sy
100013a0:	f3bf 8f5f 	dmb	sy
100013a4:	2200      	movs	r2, #0
100013a6:	4b02      	ldr	r3, [pc, #8]	; (100013b0 <irq_set_exclusive_handler+0x48>)
100013a8:	601a      	str	r2, [r3, #0]
100013aa:	f386 8810 	msr	PRIMASK, r6
100013ae:	bd70      	pop	{r4, r5, r6, pc}
100013b0:	d0000124 	.word	0xd0000124
100013b4:	e000ed00 	.word	0xe000ed00
100013b8:	100001cd 	.word	0x100001cd

100013bc <irq_remove_handler>:
100013bc:	b5f0      	push	{r4, r5, r6, r7, lr}
100013be:	46de      	mov	lr, fp
100013c0:	4657      	mov	r7, sl
100013c2:	464e      	mov	r6, r9
100013c4:	4645      	mov	r5, r8
100013c6:	b5e0      	push	{r5, r6, r7, lr}
100013c8:	000c      	movs	r4, r1
100013ca:	b083      	sub	sp, #12
100013cc:	f3ef 8a10 	mrs	sl, PRIMASK
100013d0:	b672      	cpsid	i
100013d2:	4a5a      	ldr	r2, [pc, #360]	; (1000153c <irq_remove_handler+0x180>)
100013d4:	6813      	ldr	r3, [r2, #0]
100013d6:	2b00      	cmp	r3, #0
100013d8:	d0fc      	beq.n	100013d4 <irq_remove_handler+0x18>
100013da:	f3bf 8f5f 	dmb	sy
100013de:	2210      	movs	r2, #16
100013e0:	4691      	mov	r9, r2
100013e2:	4481      	add	r9, r0
100013e4:	464a      	mov	r2, r9
100013e6:	4b56      	ldr	r3, [pc, #344]	; (10001540 <irq_remove_handler+0x184>)
100013e8:	0096      	lsls	r6, r2, #2
100013ea:	689b      	ldr	r3, [r3, #8]
100013ec:	599d      	ldr	r5, [r3, r6]
100013ee:	4b55      	ldr	r3, [pc, #340]	; (10001544 <irq_remove_handler+0x188>)
100013f0:	4698      	mov	r8, r3
100013f2:	429d      	cmp	r5, r3
100013f4:	d005      	beq.n	10001402 <irq_remove_handler+0x46>
100013f6:	42a5      	cmp	r5, r4
100013f8:	d016      	beq.n	10001428 <irq_remove_handler+0x6c>
100013fa:	4f53      	ldr	r7, [pc, #332]	; (10001548 <irq_remove_handler+0x18c>)
100013fc:	1beb      	subs	r3, r5, r7
100013fe:	2b2f      	cmp	r3, #47	; 0x2f
10001400:	d914      	bls.n	1000142c <irq_remove_handler+0x70>
10001402:	4b4f      	ldr	r3, [pc, #316]	; (10001540 <irq_remove_handler+0x184>)
10001404:	689b      	ldr	r3, [r3, #8]
10001406:	519d      	str	r5, [r3, r6]
10001408:	f3bf 8f5f 	dmb	sy
1000140c:	f3bf 8f5f 	dmb	sy
10001410:	2200      	movs	r2, #0
10001412:	4b4a      	ldr	r3, [pc, #296]	; (1000153c <irq_remove_handler+0x180>)
10001414:	601a      	str	r2, [r3, #0]
10001416:	f38a 8810 	msr	PRIMASK, sl
1000141a:	b003      	add	sp, #12
1000141c:	bcf0      	pop	{r4, r5, r6, r7}
1000141e:	46bb      	mov	fp, r7
10001420:	46b2      	mov	sl, r6
10001422:	46a9      	mov	r9, r5
10001424:	46a0      	mov	r8, r4
10001426:	bdf0      	pop	{r4, r5, r6, r7, pc}
10001428:	001d      	movs	r5, r3
1000142a:	e7ea      	b.n	10001402 <irq_remove_handler+0x46>
1000142c:	2301      	movs	r3, #1
1000142e:	4083      	lsls	r3, r0
10001430:	469b      	mov	fp, r3
10001432:	465a      	mov	r2, fp
10001434:	4b45      	ldr	r3, [pc, #276]	; (1000154c <irq_remove_handler+0x190>)
10001436:	681b      	ldr	r3, [r3, #0]
10001438:	401a      	ands	r2, r3
1000143a:	9200      	str	r2, [sp, #0]
1000143c:	465a      	mov	r2, fp
1000143e:	4b44      	ldr	r3, [pc, #272]	; (10001550 <irq_remove_handler+0x194>)
10001440:	601a      	str	r2, [r3, #0]
10001442:	f3bf 8f5f 	dmb	sy
10001446:	f7fe ff0e 	bl	10000266 <__get_current_exception>
1000144a:	9001      	str	r0, [sp, #4]
1000144c:	2800      	cmp	r0, #0
1000144e:	d003      	beq.n	10001458 <irq_remove_handler+0x9c>
10001450:	4581      	cmp	r9, r0
10001452:	d001      	beq.n	10001458 <irq_remove_handler+0x9c>
10001454:	f7ff fe04 	bl	10001060 <hard_assertion_failure>
10001458:	2301      	movs	r3, #1
1000145a:	002a      	movs	r2, r5
1000145c:	439a      	bics	r2, r3
1000145e:	0013      	movs	r3, r2
10001460:	493c      	ldr	r1, [pc, #240]	; (10001554 <irq_remove_handler+0x198>)
10001462:	1bdb      	subs	r3, r3, r7
10001464:	415b      	adcs	r3, r3
10001466:	4359      	muls	r1, r3
10001468:	0d09      	lsrs	r1, r1, #20
1000146a:	6893      	ldr	r3, [r2, #8]
1000146c:	429c      	cmp	r4, r3
1000146e:	d108      	bne.n	10001482 <irq_remove_handler+0xc6>
10001470:	e05a      	b.n	10001528 <irq_remove_handler+0x16c>
10001472:	0043      	lsls	r3, r0, #1
10001474:	181b      	adds	r3, r3, r0
10001476:	009b      	lsls	r3, r3, #2
10001478:	18fb      	adds	r3, r7, r3
1000147a:	6898      	ldr	r0, [r3, #8]
1000147c:	42a0      	cmp	r0, r4
1000147e:	d011      	beq.n	100014a4 <irq_remove_handler+0xe8>
10001480:	001a      	movs	r2, r3
10001482:	2006      	movs	r0, #6
10001484:	5610      	ldrsb	r0, [r2, r0]
10001486:	2800      	cmp	r0, #0
10001488:	daf3      	bge.n	10001472 <irq_remove_handler+0xb6>
1000148a:	9b00      	ldr	r3, [sp, #0]
1000148c:	2b00      	cmp	r3, #0
1000148e:	d005      	beq.n	1000149c <irq_remove_handler+0xe0>
10001490:	465a      	mov	r2, fp
10001492:	4b31      	ldr	r3, [pc, #196]	; (10001558 <irq_remove_handler+0x19c>)
10001494:	601a      	str	r2, [r3, #0]
10001496:	4b2d      	ldr	r3, [pc, #180]	; (1000154c <irq_remove_handler+0x190>)
10001498:	601a      	str	r2, [r3, #0]
1000149a:	e7b2      	b.n	10001402 <irq_remove_handler+0x46>
1000149c:	465a      	mov	r2, fp
1000149e:	4b2c      	ldr	r3, [pc, #176]	; (10001550 <irq_remove_handler+0x194>)
100014a0:	601a      	str	r2, [r3, #0]
100014a2:	e7ae      	b.n	10001402 <irq_remove_handler+0x46>
100014a4:	2006      	movs	r0, #6
100014a6:	5618      	ldrsb	r0, [r3, r0]
100014a8:	2800      	cmp	r0, #0
100014aa:	db21      	blt.n	100014f0 <irq_remove_handler+0x134>
100014ac:	0042      	lsls	r2, r0, #1
100014ae:	1811      	adds	r1, r2, r0
100014b0:	0089      	lsls	r1, r1, #2
100014b2:	187c      	adds	r4, r7, r1
100014b4:	4688      	mov	r8, r1
100014b6:	68a1      	ldr	r1, [r4, #8]
100014b8:	6099      	str	r1, [r3, #8]
100014ba:	79e1      	ldrb	r1, [r4, #7]
100014bc:	71d9      	strb	r1, [r3, #7]
100014be:	2106      	movs	r1, #6
100014c0:	5661      	ldrsb	r1, [r4, r1]
100014c2:	7199      	strb	r1, [r3, #6]
100014c4:	2900      	cmp	r1, #0
100014c6:	db1f      	blt.n	10001508 <irq_remove_handler+0x14c>
100014c8:	88a4      	ldrh	r4, [r4, #4]
100014ca:	1af9      	subs	r1, r7, r3
100014cc:	0564      	lsls	r4, r4, #21
100014ce:	1524      	asrs	r4, r4, #20
100014d0:	4444      	add	r4, r8
100014d2:	1909      	adds	r1, r1, r4
100014d4:	24e0      	movs	r4, #224	; 0xe0
100014d6:	0509      	lsls	r1, r1, #20
100014d8:	0d49      	lsrs	r1, r1, #21
100014da:	0224      	lsls	r4, r4, #8
100014dc:	4321      	orrs	r1, r4
100014de:	8099      	strh	r1, [r3, #4]
100014e0:	1812      	adds	r2, r2, r0
100014e2:	4b1e      	ldr	r3, [pc, #120]	; (1000155c <irq_remove_handler+0x1a0>)
100014e4:	0092      	lsls	r2, r2, #2
100014e6:	18bf      	adds	r7, r7, r2
100014e8:	781a      	ldrb	r2, [r3, #0]
100014ea:	7018      	strb	r0, [r3, #0]
100014ec:	71ba      	strb	r2, [r7, #6]
100014ee:	e7cc      	b.n	1000148a <irq_remove_handler+0xce>
100014f0:	9801      	ldr	r0, [sp, #4]
100014f2:	2800      	cmp	r0, #0
100014f4:	d10b      	bne.n	1000150e <irq_remove_handler+0x152>
100014f6:	30ff      	adds	r0, #255	; 0xff
100014f8:	7190      	strb	r0, [r2, #6]
100014fa:	4819      	ldr	r0, [pc, #100]	; (10001560 <irq_remove_handler+0x1a4>)
100014fc:	8090      	strh	r0, [r2, #4]
100014fe:	4a17      	ldr	r2, [pc, #92]	; (1000155c <irq_remove_handler+0x1a0>)
10001500:	7810      	ldrb	r0, [r2, #0]
10001502:	7011      	strb	r1, [r2, #0]
10001504:	7198      	strb	r0, [r3, #6]
10001506:	e7c0      	b.n	1000148a <irq_remove_handler+0xce>
10001508:	21bd      	movs	r1, #189	; 0xbd
1000150a:	0209      	lsls	r1, r1, #8
1000150c:	e7e7      	b.n	100014de <irq_remove_handler+0x122>
1000150e:	4a15      	ldr	r2, [pc, #84]	; (10001564 <irq_remove_handler+0x1a8>)
10001510:	4915      	ldr	r1, [pc, #84]	; (10001568 <irq_remove_handler+0x1ac>)
10001512:	1ad2      	subs	r2, r2, r3
10001514:	3a08      	subs	r2, #8
10001516:	0250      	lsls	r0, r2, #9
10001518:	0d40      	lsrs	r0, r0, #21
1000151a:	4301      	orrs	r1, r0
1000151c:	8099      	strh	r1, [r3, #4]
1000151e:	4913      	ldr	r1, [pc, #76]	; (1000156c <irq_remove_handler+0x1b0>)
10001520:	0852      	lsrs	r2, r2, #1
10001522:	430a      	orrs	r2, r1
10001524:	80da      	strh	r2, [r3, #6]
10001526:	e7b0      	b.n	1000148a <irq_remove_handler+0xce>
10001528:	2006      	movs	r0, #6
1000152a:	5610      	ldrsb	r0, [r2, r0]
1000152c:	0013      	movs	r3, r2
1000152e:	2800      	cmp	r0, #0
10001530:	dabc      	bge.n	100014ac <irq_remove_handler+0xf0>
10001532:	9a01      	ldr	r2, [sp, #4]
10001534:	2a00      	cmp	r2, #0
10001536:	d1ea      	bne.n	1000150e <irq_remove_handler+0x152>
10001538:	4645      	mov	r5, r8
1000153a:	e7e0      	b.n	100014fe <irq_remove_handler+0x142>
1000153c:	d0000124 	.word	0xd0000124
10001540:	e000ed00 	.word	0xe000ed00
10001544:	100001cd 	.word	0x100001cd
10001548:	200001a4 	.word	0x200001a4
1000154c:	e000e100 	.word	0xe000e100
10001550:	e000e180 	.word	0xe000e180
10001554:	0000aaaa 	.word	0x0000aaaa
10001558:	e000e280 	.word	0xe000e280
1000155c:	20001029 	.word	0x20001029
10001560:	ffffbd00 	.word	0xffffbd00
10001564:	200001de 	.word	0x200001de
10001568:	fffff000 	.word	0xfffff000
1000156c:	fffff800 	.word	0xfffff800

10001570 <irq_add_tail_to_free_list>:
10001570:	b5f8      	push	{r3, r4, r5, r6, r7, lr}
10001572:	2501      	movs	r5, #1
10001574:	0004      	movs	r4, r0
10001576:	4305      	orrs	r5, r0
10001578:	f7fe fe75 	bl	10000266 <__get_current_exception>
1000157c:	f3ef 8c10 	mrs	ip, PRIMASK
10001580:	b672      	cpsid	i
10001582:	4a21      	ldr	r2, [pc, #132]	; (10001608 <irq_add_tail_to_free_list+0x98>)
10001584:	6813      	ldr	r3, [r2, #0]
10001586:	2b00      	cmp	r3, #0
10001588:	d0fc      	beq.n	10001584 <irq_add_tail_to_free_list+0x14>
1000158a:	f3bf 8f5f 	dmb	sy
1000158e:	4e1f      	ldr	r6, [pc, #124]	; (1000160c <irq_add_tail_to_free_list+0x9c>)
10001590:	0021      	movs	r1, r4
10001592:	68b7      	ldr	r7, [r6, #8]
10001594:	4a1e      	ldr	r2, [pc, #120]	; (10001610 <irq_add_tail_to_free_list+0xa0>)
10001596:	4b1f      	ldr	r3, [pc, #124]	; (10001614 <irq_add_tail_to_free_list+0xa4>)
10001598:	1a89      	subs	r1, r1, r2
1000159a:	4149      	adcs	r1, r1
1000159c:	434b      	muls	r3, r1
1000159e:	0d1b      	lsrs	r3, r3, #20
100015a0:	b259      	sxtb	r1, r3
100015a2:	0083      	lsls	r3, r0, #2
100015a4:	58f8      	ldr	r0, [r7, r3]
100015a6:	42a8      	cmp	r0, r5
100015a8:	d01c      	beq.n	100015e4 <irq_add_tail_to_free_list+0x74>
100015aa:	2306      	movs	r3, #6
100015ac:	56d3      	ldrsb	r3, [r2, r3]
100015ae:	428b      	cmp	r3, r1
100015b0:	d01c      	beq.n	100015ec <irq_add_tail_to_free_list+0x7c>
100015b2:	2312      	movs	r3, #18
100015b4:	56d3      	ldrsb	r3, [r2, r3]
100015b6:	428b      	cmp	r3, r1
100015b8:	d022      	beq.n	10001600 <irq_add_tail_to_free_list+0x90>
100015ba:	231e      	movs	r3, #30
100015bc:	56d3      	ldrsb	r3, [r2, r3]
100015be:	428b      	cmp	r3, r1
100015c0:	d020      	beq.n	10001604 <irq_add_tail_to_free_list+0x94>
100015c2:	232a      	movs	r3, #42	; 0x2a
100015c4:	56d3      	ldrsb	r3, [r2, r3]
100015c6:	2003      	movs	r0, #3
100015c8:	428b      	cmp	r3, r1
100015ca:	d010      	beq.n	100015ee <irq_add_tail_to_free_list+0x7e>
100015cc:	4b12      	ldr	r3, [pc, #72]	; (10001618 <irq_add_tail_to_free_list+0xa8>)
100015ce:	781a      	ldrb	r2, [r3, #0]
100015d0:	7019      	strb	r1, [r3, #0]
100015d2:	71a2      	strb	r2, [r4, #6]
100015d4:	f3bf 8f5f 	dmb	sy
100015d8:	2200      	movs	r2, #0
100015da:	4b0b      	ldr	r3, [pc, #44]	; (10001608 <irq_add_tail_to_free_list+0x98>)
100015dc:	601a      	str	r2, [r3, #0]
100015de:	f38c 8810 	msr	PRIMASK, ip
100015e2:	bdf8      	pop	{r3, r4, r5, r6, r7, pc}
100015e4:	68b2      	ldr	r2, [r6, #8]
100015e6:	480d      	ldr	r0, [pc, #52]	; (1000161c <irq_add_tail_to_free_list+0xac>)
100015e8:	50d0      	str	r0, [r2, r3]
100015ea:	e7ef      	b.n	100015cc <irq_add_tail_to_free_list+0x5c>
100015ec:	2000      	movs	r0, #0
100015ee:	0043      	lsls	r3, r0, #1
100015f0:	181b      	adds	r3, r3, r0
100015f2:	009b      	lsls	r3, r3, #2
100015f4:	18d2      	adds	r2, r2, r3
100015f6:	23ff      	movs	r3, #255	; 0xff
100015f8:	7193      	strb	r3, [r2, #6]
100015fa:	4b09      	ldr	r3, [pc, #36]	; (10001620 <irq_add_tail_to_free_list+0xb0>)
100015fc:	8093      	strh	r3, [r2, #4]
100015fe:	e7e5      	b.n	100015cc <irq_add_tail_to_free_list+0x5c>
10001600:	2001      	movs	r0, #1
10001602:	e7f4      	b.n	100015ee <irq_add_tail_to_free_list+0x7e>
10001604:	2002      	movs	r0, #2
10001606:	e7f2      	b.n	100015ee <irq_add_tail_to_free_list+0x7e>
10001608:	d0000124 	.word	0xd0000124
1000160c:	e000ed00 	.word	0xe000ed00
10001610:	200001a4 	.word	0x200001a4
10001614:	0000aaaa 	.word	0x0000aaaa
10001618:	20001029 	.word	0x20001029
1000161c:	100001cd 	.word	0x100001cd
10001620:	ffffbd00 	.word	0xffffbd00

10001624 <irq_init_priorities>:
10001624:	4b05      	ldr	r3, [pc, #20]	; (1000163c <irq_init_priorities+0x18>)
10001626:	4a06      	ldr	r2, [pc, #24]	; (10001640 <irq_init_priorities+0x1c>)
10001628:	6013      	str	r3, [r2, #0]
1000162a:	4a06      	ldr	r2, [pc, #24]	; (10001644 <irq_init_priorities+0x20>)
1000162c:	6013      	str	r3, [r2, #0]
1000162e:	6053      	str	r3, [r2, #4]
10001630:	6093      	str	r3, [r2, #8]
10001632:	60d3      	str	r3, [r2, #12]
10001634:	6113      	str	r3, [r2, #16]
10001636:	6153      	str	r3, [r2, #20]
10001638:	6193      	str	r3, [r2, #24]
1000163a:	4770      	bx	lr
1000163c:	80808080 	.word	0x80808080
10001640:	e000e400 	.word	0xe000e400
10001644:	e000e404 	.word	0xe000e404

10001648 <pll_init>:
10001648:	b5f0      	push	{r4, r5, r6, r7, lr}
1000164a:	46c6      	mov	lr, r8
1000164c:	0004      	movs	r4, r0
1000164e:	b500      	push	{lr}
10001650:	200c      	movs	r0, #12
10001652:	4690      	mov	r8, r2
10001654:	001f      	movs	r7, r3
10001656:	000e      	movs	r6, r1
10001658:	f000 f8c0 	bl	100017dc <__wrap___aeabi_uidiv>
1000165c:	0141      	lsls	r1, r0, #5
1000165e:	1a09      	subs	r1, r1, r0
10001660:	018d      	lsls	r5, r1, #6
10001662:	1a69      	subs	r1, r5, r1
10001664:	00c9      	lsls	r1, r1, #3
10001666:	1809      	adds	r1, r1, r0
10001668:	0189      	lsls	r1, r1, #6
1000166a:	4640      	mov	r0, r8
1000166c:	f000 f8b6 	bl	100017dc <__wrap___aeabi_uidiv>
10001670:	9b06      	ldr	r3, [sp, #24]
10001672:	043f      	lsls	r7, r7, #16
10001674:	031a      	lsls	r2, r3, #12
10001676:	6823      	ldr	r3, [r4, #0]
10001678:	4317      	orrs	r7, r2
1000167a:	2b00      	cmp	r3, #0
1000167c:	db22      	blt.n	100016c4 <pll_init+0x7c>
1000167e:	4b18      	ldr	r3, [pc, #96]	; (100016e0 <pll_init+0x98>)
10001680:	4d18      	ldr	r5, [pc, #96]	; (100016e4 <pll_init+0x9c>)
10001682:	18e2      	adds	r2, r4, r3
10001684:	4253      	negs	r3, r2
10001686:	415a      	adcs	r2, r3
10001688:	2380      	movs	r3, #128	; 0x80
1000168a:	015b      	lsls	r3, r3, #5
1000168c:	469c      	mov	ip, r3
1000168e:	0312      	lsls	r2, r2, #12
10001690:	4b15      	ldr	r3, [pc, #84]	; (100016e8 <pll_init+0xa0>)
10001692:	4462      	add	r2, ip
10001694:	601a      	str	r2, [r3, #0]
10001696:	4b15      	ldr	r3, [pc, #84]	; (100016ec <pll_init+0xa4>)
10001698:	601a      	str	r2, [r3, #0]
1000169a:	0011      	movs	r1, r2
1000169c:	68ab      	ldr	r3, [r5, #8]
1000169e:	4399      	bics	r1, r3
100016a0:	d1fb      	bne.n	1000169a <pll_init+0x52>
100016a2:	22c0      	movs	r2, #192	; 0xc0
100016a4:	1d23      	adds	r3, r4, #4
100016a6:	0192      	lsls	r2, r2, #6
100016a8:	431a      	orrs	r2, r3
100016aa:	2321      	movs	r3, #33	; 0x21
100016ac:	6026      	str	r6, [r4, #0]
100016ae:	60a0      	str	r0, [r4, #8]
100016b0:	6013      	str	r3, [r2, #0]
100016b2:	6823      	ldr	r3, [r4, #0]
100016b4:	2b00      	cmp	r3, #0
100016b6:	dafc      	bge.n	100016b2 <pll_init+0x6a>
100016b8:	2308      	movs	r3, #8
100016ba:	60e7      	str	r7, [r4, #12]
100016bc:	6013      	str	r3, [r2, #0]
100016be:	bc80      	pop	{r7}
100016c0:	46b8      	mov	r8, r7
100016c2:	bdf0      	pop	{r4, r5, r6, r7, pc}
100016c4:	233f      	movs	r3, #63	; 0x3f
100016c6:	6822      	ldr	r2, [r4, #0]
100016c8:	4013      	ands	r3, r2
100016ca:	42b3      	cmp	r3, r6
100016cc:	d1d7      	bne.n	1000167e <pll_init+0x36>
100016ce:	68a3      	ldr	r3, [r4, #8]
100016d0:	051b      	lsls	r3, r3, #20
100016d2:	0d1b      	lsrs	r3, r3, #20
100016d4:	4283      	cmp	r3, r0
100016d6:	d1d2      	bne.n	1000167e <pll_init+0x36>
100016d8:	68e3      	ldr	r3, [r4, #12]
100016da:	2f00      	cmp	r7, #0
100016dc:	d1cf      	bne.n	1000167e <pll_init+0x36>
100016de:	e7ee      	b.n	100016be <pll_init+0x76>
100016e0:	bffd4000 	.word	0xbffd4000
100016e4:	4000c000 	.word	0x4000c000
100016e8:	4000e000 	.word	0x4000e000
100016ec:	4000f000 	.word	0x4000f000

100016f0 <watchdog_start_tick>:
100016f0:	2380      	movs	r3, #128	; 0x80
100016f2:	4a02      	ldr	r2, [pc, #8]	; (100016fc <watchdog_start_tick+0xc>)
100016f4:	009b      	lsls	r3, r3, #2
100016f6:	4303      	orrs	r3, r0
100016f8:	62d3      	str	r3, [r2, #44]	; 0x2c
100016fa:	4770      	bx	lr
100016fc:	40058000 	.word	0x40058000

10001700 <xosc_init>:
10001700:	23aa      	movs	r3, #170	; 0xaa
10001702:	4a06      	ldr	r2, [pc, #24]	; (1000171c <xosc_init+0x1c>)
10001704:	011b      	lsls	r3, r3, #4
10001706:	6013      	str	r3, [r2, #0]
10001708:	232f      	movs	r3, #47	; 0x2f
1000170a:	4905      	ldr	r1, [pc, #20]	; (10001720 <xosc_init+0x20>)
1000170c:	60d3      	str	r3, [r2, #12]
1000170e:	4b05      	ldr	r3, [pc, #20]	; (10001724 <xosc_init+0x24>)
10001710:	6019      	str	r1, [r3, #0]
10001712:	6853      	ldr	r3, [r2, #4]
10001714:	2b00      	cmp	r3, #0
10001716:	dafc      	bge.n	10001712 <xosc_init+0x12>
10001718:	4770      	bx	lr
1000171a:	46c0      	nop			; (mov r8, r8)
1000171c:	40024000 	.word	0x40024000
10001720:	00fab000 	.word	0x00fab000
10001724:	40026000 	.word	0x40026000

10001728 <_out_char>:
10001728:	b510      	push	{r4, lr}
1000172a:	2800      	cmp	r0, #0
1000172c:	d100      	bne.n	10001730 <_out_char+0x8>
1000172e:	bd10      	pop	{r4, pc}
10001730:	f000 fa2c 	bl	10001b8c <__wrap_putchar>
10001734:	e7fb      	b.n	1000172e <_out_char+0x6>
10001736:	46c0      	nop			; (mov r8, r8)

10001738 <weak_raw_vprintf>:
10001738:	b510      	push	{r4, lr}
1000173a:	4a09      	ldr	r2, [pc, #36]	; (10001760 <weak_raw_vprintf+0x28>)
1000173c:	0003      	movs	r3, r0
1000173e:	6814      	ldr	r4, [r2, #0]
10001740:	b084      	sub	sp, #16
10001742:	2c00      	cmp	r4, #0
10001744:	d008      	beq.n	10001758 <weak_raw_vprintf+0x20>
10001746:	2201      	movs	r2, #1
10001748:	9100      	str	r1, [sp, #0]
1000174a:	4806      	ldr	r0, [pc, #24]	; (10001764 <weak_raw_vprintf+0x2c>)
1000174c:	4252      	negs	r2, r2
1000174e:	a903      	add	r1, sp, #12
10001750:	47a0      	blx	r4
10001752:	2001      	movs	r0, #1
10001754:	b004      	add	sp, #16
10001756:	bd10      	pop	{r4, pc}
10001758:	f000 fa68 	bl	10001c2c <__wrap_puts>
1000175c:	2000      	movs	r0, #0
1000175e:	e7f9      	b.n	10001754 <weak_raw_vprintf+0x1c>
10001760:	20000ff4 	.word	0x20000ff4
10001764:	10001729 	.word	0x10001729

10001768 <__aeabi_bits_init>:
10001768:	4801      	ldr	r0, [pc, #4]	; (10001770 <__aeabi_bits_init+0x8>)
1000176a:	2104      	movs	r1, #4
1000176c:	4b01      	ldr	r3, [pc, #4]	; (10001774 <__aeabi_bits_init+0xc>)
1000176e:	4718      	bx	r3
10001770:	200001f0 	.word	0x200001f0
10001774:	10001799 	.word	0x10001799

10001778 <rom_func_lookup>:
10001778:	2314      	movs	r3, #20
1000177a:	b510      	push	{r4, lr}
1000177c:	0001      	movs	r1, r0
1000177e:	8818      	ldrh	r0, [r3, #0]
10001780:	3304      	adds	r3, #4
10001782:	881b      	ldrh	r3, [r3, #0]
10001784:	4798      	blx	r3
10001786:	bd10      	pop	{r4, pc}

10001788 <rom_data_lookup>:
10001788:	2316      	movs	r3, #22
1000178a:	b510      	push	{r4, lr}
1000178c:	0001      	movs	r1, r0
1000178e:	8818      	ldrh	r0, [r3, #0]
10001790:	3302      	adds	r3, #2
10001792:	881b      	ldrh	r3, [r3, #0]
10001794:	4798      	blx	r3
10001796:	bd10      	pop	{r4, pc}

10001798 <rom_funcs_lookup>:
10001798:	b5f8      	push	{r3, r4, r5, r6, r7, lr}
1000179a:	4647      	mov	r7, r8
1000179c:	46ce      	mov	lr, r9
1000179e:	b580      	push	{r7, lr}
100017a0:	1e0f      	subs	r7, r1, #0
100017a2:	d019      	beq.n	100017d8 <rom_funcs_lookup+0x40>
100017a4:	2314      	movs	r3, #20
100017a6:	4699      	mov	r9, r3
100017a8:	3304      	adds	r3, #4
100017aa:	0004      	movs	r4, r0
100017ac:	2500      	movs	r5, #0
100017ae:	2601      	movs	r6, #1
100017b0:	4698      	mov	r8, r3
100017b2:	464b      	mov	r3, r9
100017b4:	8818      	ldrh	r0, [r3, #0]
100017b6:	4643      	mov	r3, r8
100017b8:	6821      	ldr	r1, [r4, #0]
100017ba:	881b      	ldrh	r3, [r3, #0]
100017bc:	4798      	blx	r3
100017be:	c401      	stmia	r4!, {r0}
100017c0:	1e43      	subs	r3, r0, #1
100017c2:	4198      	sbcs	r0, r3
100017c4:	3501      	adds	r5, #1
100017c6:	4240      	negs	r0, r0
100017c8:	4006      	ands	r6, r0
100017ca:	42af      	cmp	r7, r5
100017cc:	d1f1      	bne.n	100017b2 <rom_funcs_lookup+0x1a>
100017ce:	0030      	movs	r0, r6
100017d0:	bcc0      	pop	{r6, r7}
100017d2:	46b9      	mov	r9, r7
100017d4:	46b0      	mov	r8, r6
100017d6:	bdf8      	pop	{r3, r4, r5, r6, r7, pc}
100017d8:	2601      	movs	r6, #1
100017da:	e7f8      	b.n	100017ce <rom_funcs_lookup+0x36>

100017dc <__wrap___aeabi_uidiv>:
100017dc:	4a11      	ldr	r2, [pc, #68]	; (10001824 <divmod_u32u32_savestate+0x18>)
100017de:	6f93      	ldr	r3, [r2, #120]	; 0x78
100017e0:	089b      	lsrs	r3, r3, #2
100017e2:	d213      	bcs.n	1000180c <divmod_u32u32_savestate>

100017e4 <divmod_u32u32_unsafe>:
100017e4:	6610      	str	r0, [r2, #96]	; 0x60
100017e6:	6651      	str	r1, [r2, #100]	; 0x64
100017e8:	2900      	cmp	r1, #0
100017ea:	d005      	beq.n	100017f8 <divmod_u32u32_unsafe+0x14>
100017ec:	e7ff      	b.n	100017ee <divmod_u32u32_unsafe+0xa>
100017ee:	e7ff      	b.n	100017f0 <divmod_u32u32_unsafe+0xc>
100017f0:	e7ff      	b.n	100017f2 <divmod_u32u32_unsafe+0xe>
100017f2:	6f51      	ldr	r1, [r2, #116]	; 0x74
100017f4:	6f10      	ldr	r0, [r2, #112]	; 0x70
100017f6:	4770      	bx	lr
100017f8:	b504      	push	{r2, lr}
100017fa:	2800      	cmp	r0, #0
100017fc:	d001      	beq.n	10001802 <divmod_u32u32_unsafe+0x1e>
100017fe:	2000      	movs	r0, #0
10001800:	43c0      	mvns	r0, r0
10001802:	f003 fe79 	bl	100054f8 <____aeabi_idiv0_veneer>
10001806:	2100      	movs	r1, #0
10001808:	bd04      	pop	{r2, pc}
1000180a:	46c0      	nop			; (mov r8, r8)

1000180c <divmod_u32u32_savestate>:
1000180c:	b5f0      	push	{r4, r5, r6, r7, lr}
1000180e:	6e14      	ldr	r4, [r2, #96]	; 0x60
10001810:	6e55      	ldr	r5, [r2, #100]	; 0x64
10001812:	6f57      	ldr	r7, [r2, #116]	; 0x74
10001814:	6f16      	ldr	r6, [r2, #112]	; 0x70
10001816:	f7ff ffe5 	bl	100017e4 <divmod_u32u32_unsafe>
1000181a:	6614      	str	r4, [r2, #96]	; 0x60
1000181c:	6655      	str	r5, [r2, #100]	; 0x64
1000181e:	6757      	str	r7, [r2, #116]	; 0x74
10001820:	6716      	str	r6, [r2, #112]	; 0x70
10001822:	bdf0      	pop	{r4, r5, r6, r7, pc}
10001824:	d0000000 	.word	0xd0000000

10001828 <__aeabi_double_init>:
10001828:	2313      	movs	r3, #19
1000182a:	b570      	push	{r4, r5, r6, lr}
1000182c:	781d      	ldrb	r5, [r3, #0]
1000182e:	2d01      	cmp	r5, #1
10001830:	d015      	beq.n	1000185e <__aeabi_double_init+0x36>
10001832:	dd10      	ble.n	10001856 <__aeabi_double_init+0x2e>
10001834:	481c      	ldr	r0, [pc, #112]	; (100018a8 <__aeabi_double_init+0x80>)
10001836:	f7ff ffa7 	bl	10001788 <rom_data_lookup>
1000183a:	4c1c      	ldr	r4, [pc, #112]	; (100018ac <__aeabi_double_init+0x84>)
1000183c:	0001      	movs	r1, r0
1000183e:	2280      	movs	r2, #128	; 0x80
10001840:	0020      	movs	r0, r4
10001842:	f000 f8bd 	bl	100019c0 <__wrap___aeabi_memcpy>
10001846:	2d02      	cmp	r5, #2
10001848:	d006      	beq.n	10001858 <__aeabi_double_init+0x30>
1000184a:	4819      	ldr	r0, [pc, #100]	; (100018b0 <__aeabi_double_init+0x88>)
1000184c:	f7ff ff94 	bl	10001778 <rom_func_lookup>
10001850:	4b18      	ldr	r3, [pc, #96]	; (100018b4 <__aeabi_double_init+0x8c>)
10001852:	6018      	str	r0, [r3, #0]
10001854:	bd70      	pop	{r4, r5, r6, pc}
10001856:	4c15      	ldr	r4, [pc, #84]	; (100018ac <__aeabi_double_init+0x84>)
10001858:	4b17      	ldr	r3, [pc, #92]	; (100018b8 <__aeabi_double_init+0x90>)
1000185a:	64a3      	str	r3, [r4, #72]	; 0x48
1000185c:	e7f5      	b.n	1000184a <__aeabi_double_init+0x22>
1000185e:	4b16      	ldr	r3, [pc, #88]	; (100018b8 <__aeabi_double_init+0x90>)
10001860:	4c12      	ldr	r4, [pc, #72]	; (100018ac <__aeabi_double_init+0x84>)
10001862:	6023      	str	r3, [r4, #0]
10001864:	6063      	str	r3, [r4, #4]
10001866:	60a3      	str	r3, [r4, #8]
10001868:	60e3      	str	r3, [r4, #12]
1000186a:	6123      	str	r3, [r4, #16]
1000186c:	6163      	str	r3, [r4, #20]
1000186e:	61a3      	str	r3, [r4, #24]
10001870:	61e3      	str	r3, [r4, #28]
10001872:	6223      	str	r3, [r4, #32]
10001874:	6263      	str	r3, [r4, #36]	; 0x24
10001876:	62a3      	str	r3, [r4, #40]	; 0x28
10001878:	62e3      	str	r3, [r4, #44]	; 0x2c
1000187a:	6323      	str	r3, [r4, #48]	; 0x30
1000187c:	6363      	str	r3, [r4, #52]	; 0x34
1000187e:	63a3      	str	r3, [r4, #56]	; 0x38
10001880:	63e3      	str	r3, [r4, #60]	; 0x3c
10001882:	6423      	str	r3, [r4, #64]	; 0x40
10001884:	6463      	str	r3, [r4, #68]	; 0x44
10001886:	64a3      	str	r3, [r4, #72]	; 0x48
10001888:	64e3      	str	r3, [r4, #76]	; 0x4c
1000188a:	6523      	str	r3, [r4, #80]	; 0x50
1000188c:	6563      	str	r3, [r4, #84]	; 0x54
1000188e:	65a3      	str	r3, [r4, #88]	; 0x58
10001890:	65e3      	str	r3, [r4, #92]	; 0x5c
10001892:	6623      	str	r3, [r4, #96]	; 0x60
10001894:	6663      	str	r3, [r4, #100]	; 0x64
10001896:	66a3      	str	r3, [r4, #104]	; 0x68
10001898:	66e3      	str	r3, [r4, #108]	; 0x6c
1000189a:	6723      	str	r3, [r4, #112]	; 0x70
1000189c:	6763      	str	r3, [r4, #116]	; 0x74
1000189e:	67a3      	str	r3, [r4, #120]	; 0x78
100018a0:	67e3      	str	r3, [r4, #124]	; 0x7c
100018a2:	64a3      	str	r3, [r4, #72]	; 0x48
100018a4:	e7d1      	b.n	1000184a <__aeabi_double_init+0x22>
100018a6:	46c0      	nop			; (mov r8, r8)
100018a8:	00004453 	.word	0x00004453
100018ac:	20000bd8 	.word	0x20000bd8
100018b0:	0000334c 	.word	0x0000334c
100018b4:	20001008 	.word	0x20001008
100018b8:	100018bd 	.word	0x100018bd

100018bc <double_table_shim_on_use_helper>:
100018bc:	b507      	push	{r0, r1, r2, lr}
100018be:	4660      	mov	r0, ip
100018c0:	8801      	ldrh	r1, [r0, #0]
100018c2:	0a0a      	lsrs	r2, r1, #8
100018c4:	3002      	adds	r0, #2
100018c6:	2adf      	cmp	r2, #223	; 0xdf
100018c8:	d1fa      	bne.n	100018c0 <double_table_shim_on_use_helper+0x4>
100018ca:	b2c9      	uxtb	r1, r1
100018cc:	0882      	lsrs	r2, r0, #2
100018ce:	d304      	bcc.n	100018da <double_table_shim_on_use_helper+0x1e>
100018d0:	8802      	ldrh	r2, [r0, #0]
100018d2:	8840      	ldrh	r0, [r0, #2]
100018d4:	0400      	lsls	r0, r0, #16
100018d6:	4310      	orrs	r0, r2
100018d8:	e000      	b.n	100018dc <double_table_shim_on_use_helper+0x20>
100018da:	6800      	ldr	r0, [r0, #0]
100018dc:	4a01      	ldr	r2, [pc, #4]	; (100018e4 <double_table_shim_on_use_helper+0x28>)
100018de:	5050      	str	r0, [r2, r1]
100018e0:	9003      	str	r0, [sp, #12]
100018e2:	bd07      	pop	{r0, r1, r2, pc}
100018e4:	20000bd8 	.word	0x20000bd8

100018e8 <__aeabi_float_init>:
100018e8:	2313      	movs	r3, #19
100018ea:	b510      	push	{r4, lr}
100018ec:	4812      	ldr	r0, [pc, #72]	; (10001938 <__aeabi_float_init+0x50>)
100018ee:	781c      	ldrb	r4, [r3, #0]
100018f0:	f7ff ff4a 	bl	10001788 <rom_data_lookup>
100018f4:	0001      	movs	r1, r0
100018f6:	2c01      	cmp	r4, #1
100018f8:	d00a      	beq.n	10001910 <__aeabi_float_init+0x28>
100018fa:	dd03      	ble.n	10001904 <__aeabi_float_init+0x1c>
100018fc:	2280      	movs	r2, #128	; 0x80
100018fe:	480f      	ldr	r0, [pc, #60]	; (1000193c <__aeabi_float_init+0x54>)
10001900:	f000 f85e 	bl	100019c0 <__wrap___aeabi_memcpy>
10001904:	480e      	ldr	r0, [pc, #56]	; (10001940 <__aeabi_float_init+0x58>)
10001906:	f7ff ff37 	bl	10001778 <rom_func_lookup>
1000190a:	4b0e      	ldr	r3, [pc, #56]	; (10001944 <__aeabi_float_init+0x5c>)
1000190c:	6018      	str	r0, [r3, #0]
1000190e:	bd10      	pop	{r4, pc}
10001910:	4c0a      	ldr	r4, [pc, #40]	; (1000193c <__aeabi_float_init+0x54>)
10001912:	2254      	movs	r2, #84	; 0x54
10001914:	0020      	movs	r0, r4
10001916:	f000 f853 	bl	100019c0 <__wrap___aeabi_memcpy>
1000191a:	4b0b      	ldr	r3, [pc, #44]	; (10001948 <__aeabi_float_init+0x60>)
1000191c:	6563      	str	r3, [r4, #84]	; 0x54
1000191e:	65a3      	str	r3, [r4, #88]	; 0x58
10001920:	65e3      	str	r3, [r4, #92]	; 0x5c
10001922:	6623      	str	r3, [r4, #96]	; 0x60
10001924:	6663      	str	r3, [r4, #100]	; 0x64
10001926:	66a3      	str	r3, [r4, #104]	; 0x68
10001928:	66e3      	str	r3, [r4, #108]	; 0x6c
1000192a:	6723      	str	r3, [r4, #112]	; 0x70
1000192c:	6763      	str	r3, [r4, #116]	; 0x74
1000192e:	67a3      	str	r3, [r4, #120]	; 0x78
10001930:	67e3      	str	r3, [r4, #124]	; 0x7c
10001932:	6223      	str	r3, [r4, #32]
10001934:	61e3      	str	r3, [r4, #28]
10001936:	e7e5      	b.n	10001904 <__aeabi_float_init+0x1c>
10001938:	00004653 	.word	0x00004653
1000193c:	20000cd8 	.word	0x20000cd8
10001940:	0000334c 	.word	0x0000334c
10001944:	20001008 	.word	0x20001008
10001948:	1000194d 	.word	0x1000194d

1000194c <float_table_shim_on_use_helper>:
1000194c:	b507      	push	{r0, r1, r2, lr}
1000194e:	4660      	mov	r0, ip
10001950:	8801      	ldrh	r1, [r0, #0]
10001952:	0a0a      	lsrs	r2, r1, #8
10001954:	3002      	adds	r0, #2
10001956:	2adf      	cmp	r2, #223	; 0xdf
10001958:	d1fa      	bne.n	10001950 <float_table_shim_on_use_helper+0x4>
1000195a:	b2c9      	uxtb	r1, r1
1000195c:	0882      	lsrs	r2, r0, #2
1000195e:	d304      	bcc.n	1000196a <float_table_shim_on_use_helper+0x1e>
10001960:	8802      	ldrh	r2, [r0, #0]
10001962:	8840      	ldrh	r0, [r0, #2]
10001964:	0400      	lsls	r0, r0, #16
10001966:	4310      	orrs	r0, r2
10001968:	e000      	b.n	1000196c <float_table_shim_on_use_helper+0x20>
1000196a:	6800      	ldr	r0, [r0, #0]
1000196c:	4a01      	ldr	r2, [pc, #4]	; (10001974 <float_table_shim_on_use_helper+0x28>)
1000196e:	5050      	str	r0, [r2, r1]
10001970:	9003      	str	r0, [sp, #12]
10001972:	bd07      	pop	{r0, r1, r2, pc}
10001974:	20000cd8 	.word	0x20000cd8

10001978 <__wrap_malloc>:
10001978:	b510      	push	{r4, lr}
1000197a:	0004      	movs	r4, r0
1000197c:	f003 f956 	bl	10004c2c <malloc>
10001980:	2800      	cmp	r0, #0
10001982:	d004      	beq.n	1000198e <__wrap_malloc+0x16>
10001984:	4b03      	ldr	r3, [pc, #12]	; (10001994 <__wrap_malloc+0x1c>)
10001986:	1904      	adds	r4, r0, r4
10001988:	429c      	cmp	r4, r3
1000198a:	d800      	bhi.n	1000198e <__wrap_malloc+0x16>
1000198c:	bd10      	pop	{r4, pc}
1000198e:	4802      	ldr	r0, [pc, #8]	; (10001998 <__wrap_malloc+0x20>)
10001990:	f7ff fb4e 	bl	10001030 <panic>
10001994:	20040000 	.word	0x20040000
10001998:	10005578 	.word	0x10005578

1000199c <__wrap_free>:
1000199c:	b510      	push	{r4, lr}
1000199e:	f003 f94f 	bl	10004c40 <free>
100019a2:	bd10      	pop	{r4, pc}

100019a4 <__aeabi_mem_init>:
100019a4:	4801      	ldr	r0, [pc, #4]	; (100019ac <__aeabi_mem_init+0x8>)
100019a6:	2104      	movs	r1, #4
100019a8:	4b01      	ldr	r3, [pc, #4]	; (100019b0 <__aeabi_mem_init+0xc>)
100019aa:	4718      	bx	r3
100019ac:	20000200 	.word	0x20000200
100019b0:	10001799 	.word	0x10001799

100019b4 <__wrap_memset>:
100019b4:	4b01      	ldr	r3, [pc, #4]	; (100019bc <__wrap_memset+0x8>)
100019b6:	681b      	ldr	r3, [r3, #0]
100019b8:	4718      	bx	r3
100019ba:	0000      	.short	0x0000
100019bc:	20000200 	.word	0x20000200

100019c0 <__wrap___aeabi_memcpy>:
100019c0:	4b01      	ldr	r3, [pc, #4]	; (100019c8 <__wrap___aeabi_memcpy+0x8>)
100019c2:	685b      	ldr	r3, [r3, #4]
100019c4:	4718      	bx	r3
100019c6:	0000      	.short	0x0000
100019c8:	20000200 	.word	0x20000200

100019cc <stdio_out_chars_no_crlf>:
100019cc:	0003      	movs	r3, r0
100019ce:	b510      	push	{r4, lr}
100019d0:	0008      	movs	r0, r1
100019d2:	0011      	movs	r1, r2
100019d4:	681b      	ldr	r3, [r3, #0]
100019d6:	4798      	blx	r3
100019d8:	bd10      	pop	{r4, pc}
100019da:	46c0      	nop			; (mov r8, r8)

100019dc <stdio_out_chars_crlf>:
100019dc:	b5f0      	push	{r4, r5, r6, r7, lr}
100019de:	4646      	mov	r6, r8
100019e0:	464f      	mov	r7, r9
100019e2:	46d6      	mov	lr, sl
100019e4:	b5c0      	push	{r6, r7, lr}
100019e6:	7c43      	ldrb	r3, [r0, #17]
100019e8:	4680      	mov	r8, r0
100019ea:	000e      	movs	r6, r1
100019ec:	0017      	movs	r7, r2
100019ee:	2b00      	cmp	r3, #0
100019f0:	d046      	beq.n	10001a80 <stdio_out_chars_crlf+0xa4>
100019f2:	2a00      	cmp	r2, #0
100019f4:	dd3f      	ble.n	10001a76 <stdio_out_chars_crlf+0x9a>
100019f6:	1e4b      	subs	r3, r1, #1
100019f8:	4699      	mov	r9, r3
100019fa:	4b24      	ldr	r3, [pc, #144]	; (10001a8c <stdio_out_chars_crlf+0xb0>)
100019fc:	2501      	movs	r5, #1
100019fe:	2400      	movs	r4, #0
10001a00:	2000      	movs	r0, #0
10001a02:	469a      	mov	sl, r3
10001a04:	e00d      	b.n	10001a22 <stdio_out_chars_crlf+0x46>
10001a06:	464b      	mov	r3, r9
10001a08:	5d1b      	ldrb	r3, [r3, r4]
10001a0a:	3b0d      	subs	r3, #13
10001a0c:	425a      	negs	r2, r3
10001a0e:	4153      	adcs	r3, r2
10001a10:	5d32      	ldrb	r2, [r6, r4]
10001a12:	b2db      	uxtb	r3, r3
10001a14:	2a0a      	cmp	r2, #10
10001a16:	d00b      	beq.n	10001a30 <stdio_out_chars_crlf+0x54>
10001a18:	002b      	movs	r3, r5
10001a1a:	3401      	adds	r4, #1
10001a1c:	3501      	adds	r5, #1
10001a1e:	429f      	cmp	r7, r3
10001a20:	dd1a      	ble.n	10001a58 <stdio_out_chars_crlf+0x7c>
10001a22:	2c00      	cmp	r4, #0
10001a24:	d1ef      	bne.n	10001a06 <stdio_out_chars_crlf+0x2a>
10001a26:	4643      	mov	r3, r8
10001a28:	5d32      	ldrb	r2, [r6, r4]
10001a2a:	7c1b      	ldrb	r3, [r3, #16]
10001a2c:	2a0a      	cmp	r2, #10
10001a2e:	d1f3      	bne.n	10001a18 <stdio_out_chars_crlf+0x3c>
10001a30:	2b00      	cmp	r3, #0
10001a32:	d1f1      	bne.n	10001a18 <stdio_out_chars_crlf+0x3c>
10001a34:	42a0      	cmp	r0, r4
10001a36:	da04      	bge.n	10001a42 <stdio_out_chars_crlf+0x66>
10001a38:	4643      	mov	r3, r8
10001a3a:	1a21      	subs	r1, r4, r0
10001a3c:	681b      	ldr	r3, [r3, #0]
10001a3e:	1830      	adds	r0, r6, r0
10001a40:	4798      	blx	r3
10001a42:	4643      	mov	r3, r8
10001a44:	4650      	mov	r0, sl
10001a46:	681b      	ldr	r3, [r3, #0]
10001a48:	2102      	movs	r1, #2
10001a4a:	4798      	blx	r3
10001a4c:	3401      	adds	r4, #1
10001a4e:	0028      	movs	r0, r5
10001a50:	002b      	movs	r3, r5
10001a52:	3501      	adds	r5, #1
10001a54:	429f      	cmp	r7, r3
10001a56:	dce4      	bgt.n	10001a22 <stdio_out_chars_crlf+0x46>
10001a58:	4287      	cmp	r7, r0
10001a5a:	dd04      	ble.n	10001a66 <stdio_out_chars_crlf+0x8a>
10001a5c:	4643      	mov	r3, r8
10001a5e:	1a39      	subs	r1, r7, r0
10001a60:	681b      	ldr	r3, [r3, #0]
10001a62:	1830      	adds	r0, r6, r0
10001a64:	4798      	blx	r3
10001a66:	19f6      	adds	r6, r6, r7
10001a68:	3e01      	subs	r6, #1
10001a6a:	7833      	ldrb	r3, [r6, #0]
10001a6c:	3b0d      	subs	r3, #13
10001a6e:	425a      	negs	r2, r3
10001a70:	4153      	adcs	r3, r2
10001a72:	4642      	mov	r2, r8
10001a74:	7413      	strb	r3, [r2, #16]
10001a76:	bce0      	pop	{r5, r6, r7}
10001a78:	46ba      	mov	sl, r7
10001a7a:	46b1      	mov	r9, r6
10001a7c:	46a8      	mov	r8, r5
10001a7e:	bdf0      	pop	{r4, r5, r6, r7, pc}
10001a80:	6803      	ldr	r3, [r0, #0]
10001a82:	0011      	movs	r1, r2
10001a84:	0030      	movs	r0, r6
10001a86:	4798      	blx	r3
10001a88:	e7f5      	b.n	10001a76 <stdio_out_chars_crlf+0x9a>
10001a8a:	46c0      	nop			; (mov r8, r8)
10001a8c:	100055e8 	.word	0x100055e8

10001a90 <stdio_put_string.isra.0>:
10001a90:	b5f0      	push	{r4, r5, r6, r7, lr}
10001a92:	4657      	mov	r7, sl
10001a94:	464e      	mov	r6, r9
10001a96:	4645      	mov	r5, r8
10001a98:	46de      	mov	lr, fp
10001a9a:	001c      	movs	r4, r3
10001a9c:	23d0      	movs	r3, #208	; 0xd0
10001a9e:	b5e0      	push	{r5, r6, r7, lr}
10001aa0:	061b      	lsls	r3, r3, #24
10001aa2:	681f      	ldr	r7, [r3, #0]
10001aa4:	4b34      	ldr	r3, [pc, #208]	; (10001b78 <stdio_put_string.isra.0+0xe8>)
10001aa6:	b083      	sub	sp, #12
10001aa8:	0006      	movs	r6, r0
10001aaa:	000d      	movs	r5, r1
10001aac:	0018      	movs	r0, r3
10001aae:	a901      	add	r1, sp, #4
10001ab0:	4691      	mov	r9, r2
10001ab2:	469a      	mov	sl, r3
10001ab4:	f003 fd28 	bl	10005508 <__mutex_try_enter_veneer>
10001ab8:	4680      	mov	r8, r0
10001aba:	2800      	cmp	r0, #0
10001abc:	d108      	bne.n	10001ad0 <stdio_put_string.isra.0+0x40>
10001abe:	9b01      	ldr	r3, [sp, #4]
10001ac0:	b27f      	sxtb	r7, r7
10001ac2:	429f      	cmp	r7, r3
10001ac4:	d004      	beq.n	10001ad0 <stdio_put_string.isra.0+0x40>
10001ac6:	4650      	mov	r0, sl
10001ac8:	f003 fd26 	bl	10005518 <__mutex_enter_blocking_veneer>
10001acc:	2301      	movs	r3, #1
10001ace:	4698      	mov	r8, r3
10001ad0:	1c6b      	adds	r3, r5, #1
10001ad2:	d103      	bne.n	10001adc <stdio_put_string.isra.0+0x4c>
10001ad4:	0030      	movs	r0, r6
10001ad6:	f003 fba1 	bl	1000521c <strlen>
10001ada:	0005      	movs	r5, r0
10001adc:	2c00      	cmp	r4, #0
10001ade:	d127      	bne.n	10001b30 <stdio_put_string.isra.0+0xa0>
10001ae0:	4f26      	ldr	r7, [pc, #152]	; (10001b7c <stdio_put_string.isra.0+0xec>)
10001ae2:	4b27      	ldr	r3, [pc, #156]	; (10001b80 <stdio_put_string.isra.0+0xf0>)
10001ae4:	681c      	ldr	r4, [r3, #0]
10001ae6:	2c00      	cmp	r4, #0
10001ae8:	d018      	beq.n	10001b1c <stdio_put_string.isra.0+0x8c>
10001aea:	464b      	mov	r3, r9
10001aec:	2b00      	cmp	r3, #0
10001aee:	d121      	bne.n	10001b34 <stdio_put_string.isra.0+0xa4>
10001af0:	4b24      	ldr	r3, [pc, #144]	; (10001b84 <stdio_put_string.isra.0+0xf4>)
10001af2:	4699      	mov	r9, r3
10001af4:	e002      	b.n	10001afc <stdio_put_string.isra.0+0x6c>
10001af6:	68e4      	ldr	r4, [r4, #12]
10001af8:	2c00      	cmp	r4, #0
10001afa:	d00f      	beq.n	10001b1c <stdio_put_string.isra.0+0x8c>
10001afc:	6823      	ldr	r3, [r4, #0]
10001afe:	2b00      	cmp	r3, #0
10001b00:	d0f9      	beq.n	10001af6 <stdio_put_string.isra.0+0x66>
10001b02:	464b      	mov	r3, r9
10001b04:	681b      	ldr	r3, [r3, #0]
10001b06:	2b00      	cmp	r3, #0
10001b08:	d001      	beq.n	10001b0e <stdio_put_string.isra.0+0x7e>
10001b0a:	42a3      	cmp	r3, r4
10001b0c:	d1f3      	bne.n	10001af6 <stdio_put_string.isra.0+0x66>
10001b0e:	0020      	movs	r0, r4
10001b10:	002a      	movs	r2, r5
10001b12:	0031      	movs	r1, r6
10001b14:	47b8      	blx	r7
10001b16:	68e4      	ldr	r4, [r4, #12]
10001b18:	2c00      	cmp	r4, #0
10001b1a:	d1ef      	bne.n	10001afc <stdio_put_string.isra.0+0x6c>
10001b1c:	4643      	mov	r3, r8
10001b1e:	2b00      	cmp	r3, #0
10001b20:	d125      	bne.n	10001b6e <stdio_put_string.isra.0+0xde>
10001b22:	b003      	add	sp, #12
10001b24:	bcf0      	pop	{r4, r5, r6, r7}
10001b26:	46bb      	mov	fp, r7
10001b28:	46b2      	mov	sl, r6
10001b2a:	46a9      	mov	r9, r5
10001b2c:	46a0      	mov	r8, r4
10001b2e:	bdf0      	pop	{r4, r5, r6, r7, pc}
10001b30:	4f15      	ldr	r7, [pc, #84]	; (10001b88 <stdio_put_string.isra.0+0xf8>)
10001b32:	e7d6      	b.n	10001ae2 <stdio_put_string.isra.0+0x52>
10001b34:	4b13      	ldr	r3, [pc, #76]	; (10001b84 <stdio_put_string.isra.0+0xf4>)
10001b36:	4699      	mov	r9, r3
10001b38:	230a      	movs	r3, #10
10001b3a:	469b      	mov	fp, r3
10001b3c:	e002      	b.n	10001b44 <stdio_put_string.isra.0+0xb4>
10001b3e:	68e4      	ldr	r4, [r4, #12]
10001b40:	2c00      	cmp	r4, #0
10001b42:	d0eb      	beq.n	10001b1c <stdio_put_string.isra.0+0x8c>
10001b44:	6823      	ldr	r3, [r4, #0]
10001b46:	2b00      	cmp	r3, #0
10001b48:	d0f9      	beq.n	10001b3e <stdio_put_string.isra.0+0xae>
10001b4a:	464b      	mov	r3, r9
10001b4c:	681b      	ldr	r3, [r3, #0]
10001b4e:	2b00      	cmp	r3, #0
10001b50:	d001      	beq.n	10001b56 <stdio_put_string.isra.0+0xc6>
10001b52:	42a3      	cmp	r3, r4
10001b54:	d1f3      	bne.n	10001b3e <stdio_put_string.isra.0+0xae>
10001b56:	002a      	movs	r2, r5
10001b58:	0031      	movs	r1, r6
10001b5a:	0020      	movs	r0, r4
10001b5c:	47b8      	blx	r7
10001b5e:	465a      	mov	r2, fp
10001b60:	466b      	mov	r3, sp
10001b62:	0020      	movs	r0, r4
10001b64:	711a      	strb	r2, [r3, #4]
10001b66:	a901      	add	r1, sp, #4
10001b68:	2201      	movs	r2, #1
10001b6a:	47b8      	blx	r7
10001b6c:	e7e7      	b.n	10001b3e <stdio_put_string.isra.0+0xae>
10001b6e:	4650      	mov	r0, sl
10001b70:	f003 fcba 	bl	100054e8 <__mutex_exit_veneer>
10001b74:	e7d5      	b.n	10001b22 <stdio_put_string.isra.0+0x92>
10001b76:	46c0      	nop			; (mov r8, r8)
10001b78:	20000a68 	.word	0x20000a68
10001b7c:	100019dd 	.word	0x100019dd
10001b80:	20000fe4 	.word	0x20000fe4
10001b84:	20000fec 	.word	0x20000fec
10001b88:	100019cd 	.word	0x100019cd

10001b8c <__wrap_putchar>:
10001b8c:	b5f0      	push	{r4, r5, r6, r7, lr}
10001b8e:	46ce      	mov	lr, r9
10001b90:	4647      	mov	r7, r8
10001b92:	b580      	push	{r7, lr}
10001b94:	b083      	sub	sp, #12
10001b96:	466b      	mov	r3, sp
10001b98:	1cde      	adds	r6, r3, #3
10001b9a:	23d0      	movs	r3, #208	; 0xd0
10001b9c:	7030      	strb	r0, [r6, #0]
10001b9e:	061b      	lsls	r3, r3, #24
10001ba0:	681c      	ldr	r4, [r3, #0]
10001ba2:	4b1f      	ldr	r3, [pc, #124]	; (10001c20 <__wrap_putchar+0x94>)
10001ba4:	4680      	mov	r8, r0
10001ba6:	a901      	add	r1, sp, #4
10001ba8:	0018      	movs	r0, r3
10001baa:	4699      	mov	r9, r3
10001bac:	f003 fcac 	bl	10005508 <__mutex_try_enter_veneer>
10001bb0:	1e07      	subs	r7, r0, #0
10001bb2:	d020      	beq.n	10001bf6 <__wrap_putchar+0x6a>
10001bb4:	4b1b      	ldr	r3, [pc, #108]	; (10001c24 <__wrap_putchar+0x98>)
10001bb6:	681c      	ldr	r4, [r3, #0]
10001bb8:	2c00      	cmp	r4, #0
10001bba:	d028      	beq.n	10001c0e <__wrap_putchar+0x82>
10001bbc:	4d1a      	ldr	r5, [pc, #104]	; (10001c28 <__wrap_putchar+0x9c>)
10001bbe:	e002      	b.n	10001bc6 <__wrap_putchar+0x3a>
10001bc0:	68e4      	ldr	r4, [r4, #12]
10001bc2:	2c00      	cmp	r4, #0
10001bc4:	d00f      	beq.n	10001be6 <__wrap_putchar+0x5a>
10001bc6:	6823      	ldr	r3, [r4, #0]
10001bc8:	2b00      	cmp	r3, #0
10001bca:	d0f9      	beq.n	10001bc0 <__wrap_putchar+0x34>
10001bcc:	682b      	ldr	r3, [r5, #0]
10001bce:	2b00      	cmp	r3, #0
10001bd0:	d001      	beq.n	10001bd6 <__wrap_putchar+0x4a>
10001bd2:	42a3      	cmp	r3, r4
10001bd4:	d1f4      	bne.n	10001bc0 <__wrap_putchar+0x34>
10001bd6:	0020      	movs	r0, r4
10001bd8:	2201      	movs	r2, #1
10001bda:	0031      	movs	r1, r6
10001bdc:	f7ff fefe 	bl	100019dc <stdio_out_chars_crlf>
10001be0:	68e4      	ldr	r4, [r4, #12]
10001be2:	2c00      	cmp	r4, #0
10001be4:	d1ef      	bne.n	10001bc6 <__wrap_putchar+0x3a>
10001be6:	2f00      	cmp	r7, #0
10001be8:	d111      	bne.n	10001c0e <__wrap_putchar+0x82>
10001bea:	4640      	mov	r0, r8
10001bec:	b003      	add	sp, #12
10001bee:	bcc0      	pop	{r6, r7}
10001bf0:	46b9      	mov	r9, r7
10001bf2:	46b0      	mov	r8, r6
10001bf4:	bdf0      	pop	{r4, r5, r6, r7, pc}
10001bf6:	9b01      	ldr	r3, [sp, #4]
10001bf8:	b264      	sxtb	r4, r4
10001bfa:	429c      	cmp	r4, r3
10001bfc:	d00b      	beq.n	10001c16 <__wrap_putchar+0x8a>
10001bfe:	4648      	mov	r0, r9
10001c00:	f003 fc8a 	bl	10005518 <__mutex_enter_blocking_veneer>
10001c04:	4b07      	ldr	r3, [pc, #28]	; (10001c24 <__wrap_putchar+0x98>)
10001c06:	2701      	movs	r7, #1
10001c08:	681c      	ldr	r4, [r3, #0]
10001c0a:	2c00      	cmp	r4, #0
10001c0c:	d1d6      	bne.n	10001bbc <__wrap_putchar+0x30>
10001c0e:	4648      	mov	r0, r9
10001c10:	f003 fc6a 	bl	100054e8 <__mutex_exit_veneer>
10001c14:	e7e9      	b.n	10001bea <__wrap_putchar+0x5e>
10001c16:	4b03      	ldr	r3, [pc, #12]	; (10001c24 <__wrap_putchar+0x98>)
10001c18:	681c      	ldr	r4, [r3, #0]
10001c1a:	2c00      	cmp	r4, #0
10001c1c:	d1ce      	bne.n	10001bbc <__wrap_putchar+0x30>
10001c1e:	e7e4      	b.n	10001bea <__wrap_putchar+0x5e>
10001c20:	20000a68 	.word	0x20000a68
10001c24:	20000fe4 	.word	0x20000fe4
10001c28:	20000fec 	.word	0x20000fec

10001c2c <__wrap_puts>:
10001c2c:	b570      	push	{r4, r5, r6, lr}
10001c2e:	0004      	movs	r4, r0
10001c30:	f003 faf4 	bl	1000521c <strlen>
10001c34:	2300      	movs	r3, #0
10001c36:	0001      	movs	r1, r0
10001c38:	0005      	movs	r5, r0
10001c3a:	2201      	movs	r2, #1
10001c3c:	0020      	movs	r0, r4
10001c3e:	f7ff ff27 	bl	10001a90 <stdio_put_string.isra.0>
10001c42:	4b08      	ldr	r3, [pc, #32]	; (10001c64 <__wrap_puts+0x38>)
10001c44:	681c      	ldr	r4, [r3, #0]
10001c46:	2c00      	cmp	r4, #0
10001c48:	d006      	beq.n	10001c58 <__wrap_puts+0x2c>
10001c4a:	6863      	ldr	r3, [r4, #4]
10001c4c:	2b00      	cmp	r3, #0
10001c4e:	d005      	beq.n	10001c5c <__wrap_puts+0x30>
10001c50:	4798      	blx	r3
10001c52:	68e4      	ldr	r4, [r4, #12]
10001c54:	2c00      	cmp	r4, #0
10001c56:	d1f8      	bne.n	10001c4a <__wrap_puts+0x1e>
10001c58:	0028      	movs	r0, r5
10001c5a:	bd70      	pop	{r4, r5, r6, pc}
10001c5c:	68e4      	ldr	r4, [r4, #12]
10001c5e:	2c00      	cmp	r4, #0
10001c60:	d1f3      	bne.n	10001c4a <__wrap_puts+0x1e>
10001c62:	e7f9      	b.n	10001c58 <__wrap_puts+0x2c>
10001c64:	20000fe4 	.word	0x20000fe4

10001c68 <stdio_set_driver_enabled>:
10001c68:	4a0d      	ldr	r2, [pc, #52]	; (10001ca0 <stdio_set_driver_enabled+0x38>)
10001c6a:	6813      	ldr	r3, [r2, #0]
10001c6c:	2b00      	cmp	r3, #0
10001c6e:	d013      	beq.n	10001c98 <stdio_set_driver_enabled+0x30>
10001c70:	4283      	cmp	r3, r0
10001c72:	d102      	bne.n	10001c7a <stdio_set_driver_enabled+0x12>
10001c74:	e009      	b.n	10001c8a <stdio_set_driver_enabled+0x22>
10001c76:	4298      	cmp	r0, r3
10001c78:	d008      	beq.n	10001c8c <stdio_set_driver_enabled+0x24>
10001c7a:	001a      	movs	r2, r3
10001c7c:	68db      	ldr	r3, [r3, #12]
10001c7e:	2b00      	cmp	r3, #0
10001c80:	d1f9      	bne.n	10001c76 <stdio_set_driver_enabled+0xe>
10001c82:	2900      	cmp	r1, #0
10001c84:	d000      	beq.n	10001c88 <stdio_set_driver_enabled+0x20>
10001c86:	60d0      	str	r0, [r2, #12]
10001c88:	4770      	bx	lr
10001c8a:	001a      	movs	r2, r3
10001c8c:	2900      	cmp	r1, #0
10001c8e:	d1fb      	bne.n	10001c88 <stdio_set_driver_enabled+0x20>
10001c90:	68db      	ldr	r3, [r3, #12]
10001c92:	60d3      	str	r3, [r2, #12]
10001c94:	60c1      	str	r1, [r0, #12]
10001c96:	e7f7      	b.n	10001c88 <stdio_set_driver_enabled+0x20>
10001c98:	2900      	cmp	r1, #0
10001c9a:	d0f5      	beq.n	10001c88 <stdio_set_driver_enabled+0x20>
10001c9c:	6010      	str	r0, [r2, #0]
10001c9e:	e7f3      	b.n	10001c88 <stdio_set_driver_enabled+0x20>
10001ca0:	20000fe4 	.word	0x20000fe4

10001ca4 <stdio_init_all>:
10001ca4:	b510      	push	{r4, lr}
10001ca6:	f000 f843 	bl	10001d30 <stdio_uart_init>
10001caa:	bd10      	pop	{r4, pc}

10001cac <stdio_uart_out_chars>:
10001cac:	b5f0      	push	{r4, r5, r6, r7, lr}
10001cae:	1e0d      	subs	r5, r1, #0
10001cb0:	dd15      	ble.n	10001cde <stdio_uart_out_chars+0x32>
10001cb2:	4b0e      	ldr	r3, [pc, #56]	; (10001cec <stdio_uart_out_chars+0x40>)
10001cb4:	270d      	movs	r7, #13
10001cb6:	681a      	ldr	r2, [r3, #0]
10001cb8:	4b0d      	ldr	r3, [pc, #52]	; (10001cf0 <stdio_uart_out_chars+0x44>)
10001cba:	1945      	adds	r5, r0, r5
10001cbc:	18d3      	adds	r3, r2, r3
10001cbe:	4259      	negs	r1, r3
10001cc0:	414b      	adcs	r3, r1
10001cc2:	490c      	ldr	r1, [pc, #48]	; (10001cf4 <stdio_uart_out_chars+0x48>)
10001cc4:	005b      	lsls	r3, r3, #1
10001cc6:	5e5e      	ldrsh	r6, [r3, r1]
10001cc8:	2120      	movs	r1, #32
10001cca:	7804      	ldrb	r4, [r0, #0]
10001ccc:	42a6      	cmp	r6, r4
10001cce:	d007      	beq.n	10001ce0 <stdio_uart_out_chars+0x34>
10001cd0:	6993      	ldr	r3, [r2, #24]
10001cd2:	4219      	tst	r1, r3
10001cd4:	d1fc      	bne.n	10001cd0 <stdio_uart_out_chars+0x24>
10001cd6:	3001      	adds	r0, #1
10001cd8:	6014      	str	r4, [r2, #0]
10001cda:	42a8      	cmp	r0, r5
10001cdc:	d1f5      	bne.n	10001cca <stdio_uart_out_chars+0x1e>
10001cde:	bdf0      	pop	{r4, r5, r6, r7, pc}
10001ce0:	6993      	ldr	r3, [r2, #24]
10001ce2:	4219      	tst	r1, r3
10001ce4:	d1fc      	bne.n	10001ce0 <stdio_uart_out_chars+0x34>
10001ce6:	6017      	str	r7, [r2, #0]
10001ce8:	e7f2      	b.n	10001cd0 <stdio_uart_out_chars+0x24>
10001cea:	46c0      	nop			; (mov r8, r8)
10001cec:	20001024 	.word	0x20001024
10001cf0:	bffc8000 	.word	0xbffc8000
10001cf4:	20001020 	.word	0x20001020

10001cf8 <stdio_uart_in_chars>:
10001cf8:	b530      	push	{r4, r5, lr}
10001cfa:	0004      	movs	r4, r0
10001cfc:	1e0d      	subs	r5, r1, #0
10001cfe:	dd12      	ble.n	10001d26 <stdio_uart_in_chars+0x2e>
10001d00:	2000      	movs	r0, #0
10001d02:	2110      	movs	r1, #16
10001d04:	4b09      	ldr	r3, [pc, #36]	; (10001d2c <stdio_uart_in_chars+0x34>)
10001d06:	3c01      	subs	r4, #1
10001d08:	681a      	ldr	r2, [r3, #0]
10001d0a:	6993      	ldr	r3, [r2, #24]
10001d0c:	4219      	tst	r1, r3
10001d0e:	d108      	bne.n	10001d22 <stdio_uart_in_chars+0x2a>
10001d10:	3001      	adds	r0, #1
10001d12:	6993      	ldr	r3, [r2, #24]
10001d14:	4219      	tst	r1, r3
10001d16:	d1fc      	bne.n	10001d12 <stdio_uart_in_chars+0x1a>
10001d18:	6813      	ldr	r3, [r2, #0]
10001d1a:	5423      	strb	r3, [r4, r0]
10001d1c:	4285      	cmp	r5, r0
10001d1e:	d1f4      	bne.n	10001d0a <stdio_uart_in_chars+0x12>
10001d20:	bd30      	pop	{r4, r5, pc}
10001d22:	2800      	cmp	r0, #0
10001d24:	d1fc      	bne.n	10001d20 <stdio_uart_in_chars+0x28>
10001d26:	2003      	movs	r0, #3
10001d28:	4240      	negs	r0, r0
10001d2a:	e7f9      	b.n	10001d20 <stdio_uart_in_chars+0x28>
10001d2c:	20001024 	.word	0x20001024

10001d30 <stdio_uart_init>:
10001d30:	21e1      	movs	r1, #225	; 0xe1
10001d32:	b510      	push	{r4, lr}
10001d34:	4b0b      	ldr	r3, [pc, #44]	; (10001d64 <stdio_uart_init+0x34>)
10001d36:	480c      	ldr	r0, [pc, #48]	; (10001d68 <stdio_uart_init+0x38>)
10001d38:	781b      	ldrb	r3, [r3, #0]
10001d3a:	4b0c      	ldr	r3, [pc, #48]	; (10001d6c <stdio_uart_init+0x3c>)
10001d3c:	0249      	lsls	r1, r1, #9
10001d3e:	781b      	ldrb	r3, [r3, #0]
10001d40:	4b0b      	ldr	r3, [pc, #44]	; (10001d70 <stdio_uart_init+0x40>)
10001d42:	6018      	str	r0, [r3, #0]
10001d44:	f7fe fb84 	bl	10000450 <uart_init>
10001d48:	2102      	movs	r1, #2
10001d4a:	2000      	movs	r0, #0
10001d4c:	f7fe fb06 	bl	1000035c <gpio_set_function>
10001d50:	2102      	movs	r1, #2
10001d52:	2001      	movs	r0, #1
10001d54:	f7fe fb02 	bl	1000035c <gpio_set_function>
10001d58:	2101      	movs	r1, #1
10001d5a:	4806      	ldr	r0, [pc, #24]	; (10001d74 <stdio_uart_init+0x44>)
10001d5c:	f7ff ff84 	bl	10001c68 <stdio_set_driver_enabled>
10001d60:	bd10      	pop	{r4, pc}
10001d62:	46c0      	nop			; (mov r8, r8)
10001d64:	10005680 	.word	0x10005680
10001d68:	40034000 	.word	0x40034000
10001d6c:	10005684 	.word	0x10005684
10001d70:	20001024 	.word	0x20001024
10001d74:	20000210 	.word	0x20000210

10001d78 <prvIdleTask>:
10001d78:	b570      	push	{r4, r5, r6, lr}
10001d7a:	4c10      	ldr	r4, [pc, #64]	; (10001dbc <prvIdleTask+0x44>)
10001d7c:	e014      	b.n	10001da8 <prvIdleTask+0x30>
10001d7e:	f001 fd89 	bl	10003894 <vPortEnterCritical>
10001d82:	6923      	ldr	r3, [r4, #16]
10001d84:	68dd      	ldr	r5, [r3, #12]
10001d86:	1d28      	adds	r0, r5, #4
10001d88:	f001 fe40 	bl	10003a0c <uxListRemove>
10001d8c:	69a3      	ldr	r3, [r4, #24]
10001d8e:	3b01      	subs	r3, #1
10001d90:	61a3      	str	r3, [r4, #24]
10001d92:	6823      	ldr	r3, [r4, #0]
10001d94:	3b01      	subs	r3, #1
10001d96:	6023      	str	r3, [r4, #0]
10001d98:	f001 fd88 	bl	100038ac <vPortExitCritical>
10001d9c:	6b28      	ldr	r0, [r5, #48]	; 0x30
10001d9e:	f001 fd29 	bl	100037f4 <vPortFree>
10001da2:	0028      	movs	r0, r5
10001da4:	f001 fd26 	bl	100037f4 <vPortFree>
10001da8:	6823      	ldr	r3, [r4, #0]
10001daa:	2b00      	cmp	r3, #0
10001dac:	d1e7      	bne.n	10001d7e <prvIdleTask+0x6>
10001dae:	69e3      	ldr	r3, [r4, #28]
10001db0:	2b01      	cmp	r3, #1
10001db2:	d9f9      	bls.n	10001da8 <prvIdleTask+0x30>
10001db4:	f001 fd62 	bl	1000387c <vPortYield>
10001db8:	e7f6      	b.n	10001da8 <prvIdleTask+0x30>
10001dba:	46c0      	nop			; (mov r8, r8)
10001dbc:	20000df4 	.word	0x20000df4

10001dc0 <prvAddCurrentTaskToDelayedList>:
10001dc0:	b5f8      	push	{r3, r4, r5, r6, r7, lr}
10001dc2:	0004      	movs	r4, r0
10001dc4:	4d1a      	ldr	r5, [pc, #104]	; (10001e30 <prvAddCurrentTaskToDelayedList+0x70>)
10001dc6:	000e      	movs	r6, r1
10001dc8:	682f      	ldr	r7, [r5, #0]
10001dca:	6868      	ldr	r0, [r5, #4]
10001dcc:	3004      	adds	r0, #4
10001dce:	f001 fe1d 	bl	10003a0c <uxListRemove>
10001dd2:	1c63      	adds	r3, r4, #1
10001dd4:	d014      	beq.n	10001e00 <prvAddCurrentTaskToDelayedList+0x40>
10001dd6:	686b      	ldr	r3, [r5, #4]
10001dd8:	193c      	adds	r4, r7, r4
10001dda:	605c      	str	r4, [r3, #4]
10001ddc:	42a7      	cmp	r7, r4
10001dde:	d809      	bhi.n	10001df4 <prvAddCurrentTaskToDelayedList+0x34>
10001de0:	6a28      	ldr	r0, [r5, #32]
10001de2:	6869      	ldr	r1, [r5, #4]
10001de4:	3104      	adds	r1, #4
10001de6:	f001 fdf9 	bl	100039dc <vListInsert>
10001dea:	6a6b      	ldr	r3, [r5, #36]	; 0x24
10001dec:	42a3      	cmp	r3, r4
10001dee:	d900      	bls.n	10001df2 <prvAddCurrentTaskToDelayedList+0x32>
10001df0:	626c      	str	r4, [r5, #36]	; 0x24
10001df2:	bdf8      	pop	{r3, r4, r5, r6, r7, pc}
10001df4:	69e8      	ldr	r0, [r5, #28]
10001df6:	6869      	ldr	r1, [r5, #4]
10001df8:	3104      	adds	r1, #4
10001dfa:	f001 fdef 	bl	100039dc <vListInsert>
10001dfe:	e7f8      	b.n	10001df2 <prvAddCurrentTaskToDelayedList+0x32>
10001e00:	2e00      	cmp	r6, #0
10001e02:	d0e8      	beq.n	10001dd6 <prvAddCurrentTaskToDelayedList+0x16>
10001e04:	686a      	ldr	r2, [r5, #4]
10001e06:	68eb      	ldr	r3, [r5, #12]
10001e08:	6899      	ldr	r1, [r3, #8]
10001e0a:	6093      	str	r3, [r2, #8]
10001e0c:	686a      	ldr	r2, [r5, #4]
10001e0e:	60d1      	str	r1, [r2, #12]
10001e10:	686a      	ldr	r2, [r5, #4]
10001e12:	6899      	ldr	r1, [r3, #8]
10001e14:	3204      	adds	r2, #4
10001e16:	604a      	str	r2, [r1, #4]
10001e18:	686a      	ldr	r2, [r5, #4]
10001e1a:	3204      	adds	r2, #4
10001e1c:	609a      	str	r2, [r3, #8]
10001e1e:	002a      	movs	r2, r5
10001e20:	686b      	ldr	r3, [r5, #4]
10001e22:	3208      	adds	r2, #8
10001e24:	615a      	str	r2, [r3, #20]
10001e26:	68ab      	ldr	r3, [r5, #8]
10001e28:	3301      	adds	r3, #1
10001e2a:	60ab      	str	r3, [r5, #8]
10001e2c:	e7e1      	b.n	10001df2 <prvAddCurrentTaskToDelayedList+0x32>
10001e2e:	46c0      	nop			; (mov r8, r8)
10001e30:	20000e74 	.word	0x20000e74

10001e34 <xTaskIncrementTick.part.0>:
10001e34:	b5f0      	push	{r4, r5, r6, r7, lr}
10001e36:	46de      	mov	lr, fp
10001e38:	4645      	mov	r5, r8
10001e3a:	4657      	mov	r7, sl
10001e3c:	464e      	mov	r6, r9
10001e3e:	4943      	ldr	r1, [pc, #268]	; (10001f4c <xTaskIncrementTick.part.0+0x118>)
10001e40:	b5e0      	push	{r5, r6, r7, lr}
10001e42:	680d      	ldr	r5, [r1, #0]
10001e44:	1c6b      	adds	r3, r5, #1
10001e46:	469b      	mov	fp, r3
10001e48:	600b      	str	r3, [r1, #0]
10001e4a:	2b00      	cmp	r3, #0
10001e4c:	d10c      	bne.n	10001e68 <xTaskIncrementTick.part.0+0x34>
10001e4e:	6a0b      	ldr	r3, [r1, #32]
10001e50:	69ca      	ldr	r2, [r1, #28]
10001e52:	620a      	str	r2, [r1, #32]
10001e54:	61cb      	str	r3, [r1, #28]
10001e56:	6a8b      	ldr	r3, [r1, #40]	; 0x28
10001e58:	3301      	adds	r3, #1
10001e5a:	628b      	str	r3, [r1, #40]	; 0x28
10001e5c:	6a0b      	ldr	r3, [r1, #32]
10001e5e:	681b      	ldr	r3, [r3, #0]
10001e60:	2b00      	cmp	r3, #0
10001e62:	d169      	bne.n	10001f38 <xTaskIncrementTick.part.0+0x104>
10001e64:	3b01      	subs	r3, #1
10001e66:	624b      	str	r3, [r1, #36]	; 0x24
10001e68:	2200      	movs	r2, #0
10001e6a:	6a4b      	ldr	r3, [r1, #36]	; 0x24
10001e6c:	4694      	mov	ip, r2
10001e6e:	459b      	cmp	fp, r3
10001e70:	d356      	bcc.n	10001f20 <xTaskIncrementTick.part.0+0xec>
10001e72:	6a0b      	ldr	r3, [r1, #32]
10001e74:	681b      	ldr	r3, [r3, #0]
10001e76:	2b00      	cmp	r3, #0
10001e78:	d04f      	beq.n	10001f1a <xTaskIncrementTick.part.0+0xe6>
10001e7a:	2300      	movs	r3, #0
10001e7c:	469a      	mov	sl, r3
10001e7e:	4b34      	ldr	r3, [pc, #208]	; (10001f50 <xTaskIncrementTick.part.0+0x11c>)
10001e80:	4699      	mov	r9, r3
10001e82:	231c      	movs	r3, #28
10001e84:	444b      	add	r3, r9
10001e86:	4698      	mov	r8, r3
10001e88:	e036      	b.n	10001ef8 <xTaskIncrementTick.part.0+0xc4>
10001e8a:	4650      	mov	r0, sl
10001e8c:	6814      	ldr	r4, [r2, #0]
10001e8e:	6158      	str	r0, [r3, #20]
10001e90:	3c01      	subs	r4, #1
10001e92:	6014      	str	r4, [r2, #0]
10001e94:	6a9a      	ldr	r2, [r3, #40]	; 0x28
10001e96:	2a00      	cmp	r2, #0
10001e98:	d00e      	beq.n	10001eb8 <xTaskIncrementTick.part.0+0x84>
10001e9a:	69dc      	ldr	r4, [r3, #28]
10001e9c:	6a18      	ldr	r0, [r3, #32]
10001e9e:	6855      	ldr	r5, [r2, #4]
10001ea0:	60a0      	str	r0, [r4, #8]
10001ea2:	6a18      	ldr	r0, [r3, #32]
10001ea4:	6044      	str	r4, [r0, #4]
10001ea6:	001c      	movs	r4, r3
10001ea8:	3418      	adds	r4, #24
10001eaa:	42a5      	cmp	r5, r4
10001eac:	d049      	beq.n	10001f42 <xTaskIncrementTick.part.0+0x10e>
10001eae:	4650      	mov	r0, sl
10001eb0:	6814      	ldr	r4, [r2, #0]
10001eb2:	6298      	str	r0, [r3, #40]	; 0x28
10001eb4:	3c01      	subs	r4, #1
10001eb6:	6014      	str	r4, [r2, #0]
10001eb8:	6adc      	ldr	r4, [r3, #44]	; 0x2c
10001eba:	6aca      	ldr	r2, [r1, #44]	; 0x2c
10001ebc:	4294      	cmp	r4, r2
10001ebe:	d900      	bls.n	10001ec2 <xTaskIncrementTick.part.0+0x8e>
10001ec0:	62cc      	str	r4, [r1, #44]	; 0x2c
10001ec2:	4648      	mov	r0, r9
10001ec4:	00a2      	lsls	r2, r4, #2
10001ec6:	1912      	adds	r2, r2, r4
10001ec8:	0092      	lsls	r2, r2, #2
10001eca:	1880      	adds	r0, r0, r2
10001ecc:	6a07      	ldr	r7, [r0, #32]
10001ece:	4442      	add	r2, r8
10001ed0:	68bd      	ldr	r5, [r7, #8]
10001ed2:	609f      	str	r7, [r3, #8]
10001ed4:	60dd      	str	r5, [r3, #12]
10001ed6:	68bd      	ldr	r5, [r7, #8]
10001ed8:	606e      	str	r6, [r5, #4]
10001eda:	60be      	str	r6, [r7, #8]
10001edc:	615a      	str	r2, [r3, #20]
10001ede:	69c3      	ldr	r3, [r0, #28]
10001ee0:	3301      	adds	r3, #1
10001ee2:	61c3      	str	r3, [r0, #28]
10001ee4:	684b      	ldr	r3, [r1, #4]
10001ee6:	6adb      	ldr	r3, [r3, #44]	; 0x2c
10001ee8:	429c      	cmp	r4, r3
10001eea:	d301      	bcc.n	10001ef0 <xTaskIncrementTick.part.0+0xbc>
10001eec:	2301      	movs	r3, #1
10001eee:	469c      	mov	ip, r3
10001ef0:	6a0b      	ldr	r3, [r1, #32]
10001ef2:	681b      	ldr	r3, [r3, #0]
10001ef4:	2b00      	cmp	r3, #0
10001ef6:	d010      	beq.n	10001f1a <xTaskIncrementTick.part.0+0xe6>
10001ef8:	6a0b      	ldr	r3, [r1, #32]
10001efa:	68db      	ldr	r3, [r3, #12]
10001efc:	68db      	ldr	r3, [r3, #12]
10001efe:	685a      	ldr	r2, [r3, #4]
10001f00:	4593      	cmp	fp, r2
10001f02:	d320      	bcc.n	10001f46 <xTaskIncrementTick.part.0+0x112>
10001f04:	695a      	ldr	r2, [r3, #20]
10001f06:	6898      	ldr	r0, [r3, #8]
10001f08:	68dc      	ldr	r4, [r3, #12]
10001f0a:	1d1e      	adds	r6, r3, #4
10001f0c:	6084      	str	r4, [r0, #8]
10001f0e:	6060      	str	r0, [r4, #4]
10001f10:	6850      	ldr	r0, [r2, #4]
10001f12:	42b0      	cmp	r0, r6
10001f14:	d1b9      	bne.n	10001e8a <xTaskIncrementTick.part.0+0x56>
10001f16:	6054      	str	r4, [r2, #4]
10001f18:	e7b7      	b.n	10001e8a <xTaskIncrementTick.part.0+0x56>
10001f1a:	2301      	movs	r3, #1
10001f1c:	425b      	negs	r3, r3
10001f1e:	624b      	str	r3, [r1, #36]	; 0x24
10001f20:	6b0b      	ldr	r3, [r1, #48]	; 0x30
10001f22:	2b00      	cmp	r3, #0
10001f24:	d001      	beq.n	10001f2a <xTaskIncrementTick.part.0+0xf6>
10001f26:	2301      	movs	r3, #1
10001f28:	469c      	mov	ip, r3
10001f2a:	4660      	mov	r0, ip
10001f2c:	bcf0      	pop	{r4, r5, r6, r7}
10001f2e:	46bb      	mov	fp, r7
10001f30:	46b2      	mov	sl, r6
10001f32:	46a9      	mov	r9, r5
10001f34:	46a0      	mov	r8, r4
10001f36:	bdf0      	pop	{r4, r5, r6, r7, pc}
10001f38:	6a0b      	ldr	r3, [r1, #32]
10001f3a:	68db      	ldr	r3, [r3, #12]
10001f3c:	681b      	ldr	r3, [r3, #0]
10001f3e:	624b      	str	r3, [r1, #36]	; 0x24
10001f40:	e792      	b.n	10001e68 <xTaskIncrementTick.part.0+0x34>
10001f42:	6050      	str	r0, [r2, #4]
10001f44:	e7b3      	b.n	10001eae <xTaskIncrementTick.part.0+0x7a>
10001f46:	624a      	str	r2, [r1, #36]	; 0x24
10001f48:	e7ea      	b.n	10001f20 <xTaskIncrementTick.part.0+0xec>
10001f4a:	46c0      	nop			; (mov r8, r8)
10001f4c:	20000e74 	.word	0x20000e74
10001f50:	20000df4 	.word	0x20000df4

10001f54 <xTaskCreate>:
10001f54:	b5f8      	push	{r3, r4, r5, r6, r7, lr}
10001f56:	46ce      	mov	lr, r9
10001f58:	4647      	mov	r7, r8
10001f5a:	4698      	mov	r8, r3
10001f5c:	0093      	lsls	r3, r2, #2
10001f5e:	b580      	push	{r7, lr}
10001f60:	0007      	movs	r7, r0
10001f62:	0018      	movs	r0, r3
10001f64:	000d      	movs	r5, r1
10001f66:	4699      	mov	r9, r3
10001f68:	f001 fc38 	bl	100037dc <pvPortMalloc>
10001f6c:	1e06      	subs	r6, r0, #0
10001f6e:	d100      	bne.n	10001f72 <xTaskCreate+0x1e>
10001f70:	e0c2      	b.n	100020f8 <xTaskCreate+0x1a4>
10001f72:	2068      	movs	r0, #104	; 0x68
10001f74:	f001 fc32 	bl	100037dc <pvPortMalloc>
10001f78:	1e04      	subs	r4, r0, #0
10001f7a:	d100      	bne.n	10001f7e <xTaskCreate+0x2a>
10001f7c:	e0c3      	b.n	10002106 <xTaskCreate+0x1b2>
10001f7e:	2268      	movs	r2, #104	; 0x68
10001f80:	2100      	movs	r1, #0
10001f82:	f7ff fd17 	bl	100019b4 <__wrap_memset>
10001f86:	4648      	mov	r0, r9
10001f88:	2307      	movs	r3, #7
10001f8a:	3804      	subs	r0, #4
10001f8c:	6326      	str	r6, [r4, #48]	; 0x30
10001f8e:	1836      	adds	r6, r6, r0
10001f90:	439e      	bics	r6, r3
10001f92:	2d00      	cmp	r5, #0
10001f94:	d05f      	beq.n	10002056 <xTaskCreate+0x102>
10001f96:	2334      	movs	r3, #52	; 0x34
10001f98:	782a      	ldrb	r2, [r5, #0]
10001f9a:	54e2      	strb	r2, [r4, r3]
10001f9c:	782b      	ldrb	r3, [r5, #0]
10001f9e:	2b00      	cmp	r3, #0
10001fa0:	d056      	beq.n	10002050 <xTaskCreate+0xfc>
10001fa2:	2335      	movs	r3, #53	; 0x35
10001fa4:	786a      	ldrb	r2, [r5, #1]
10001fa6:	54e2      	strb	r2, [r4, r3]
10001fa8:	786b      	ldrb	r3, [r5, #1]
10001faa:	2b00      	cmp	r3, #0
10001fac:	d050      	beq.n	10002050 <xTaskCreate+0xfc>
10001fae:	2336      	movs	r3, #54	; 0x36
10001fb0:	78aa      	ldrb	r2, [r5, #2]
10001fb2:	54e2      	strb	r2, [r4, r3]
10001fb4:	78ab      	ldrb	r3, [r5, #2]
10001fb6:	2b00      	cmp	r3, #0
10001fb8:	d04a      	beq.n	10002050 <xTaskCreate+0xfc>
10001fba:	2337      	movs	r3, #55	; 0x37
10001fbc:	78ea      	ldrb	r2, [r5, #3]
10001fbe:	54e2      	strb	r2, [r4, r3]
10001fc0:	78eb      	ldrb	r3, [r5, #3]
10001fc2:	2b00      	cmp	r3, #0
10001fc4:	d044      	beq.n	10002050 <xTaskCreate+0xfc>
10001fc6:	2338      	movs	r3, #56	; 0x38
10001fc8:	792a      	ldrb	r2, [r5, #4]
10001fca:	54e2      	strb	r2, [r4, r3]
10001fcc:	792b      	ldrb	r3, [r5, #4]
10001fce:	2b00      	cmp	r3, #0
10001fd0:	d03e      	beq.n	10002050 <xTaskCreate+0xfc>
10001fd2:	2339      	movs	r3, #57	; 0x39
10001fd4:	796a      	ldrb	r2, [r5, #5]
10001fd6:	54e2      	strb	r2, [r4, r3]
10001fd8:	796b      	ldrb	r3, [r5, #5]
10001fda:	2b00      	cmp	r3, #0
10001fdc:	d038      	beq.n	10002050 <xTaskCreate+0xfc>
10001fde:	233a      	movs	r3, #58	; 0x3a
10001fe0:	79aa      	ldrb	r2, [r5, #6]
10001fe2:	54e2      	strb	r2, [r4, r3]
10001fe4:	79ab      	ldrb	r3, [r5, #6]
10001fe6:	2b00      	cmp	r3, #0
10001fe8:	d032      	beq.n	10002050 <xTaskCreate+0xfc>
10001fea:	233b      	movs	r3, #59	; 0x3b
10001fec:	79ea      	ldrb	r2, [r5, #7]
10001fee:	54e2      	strb	r2, [r4, r3]
10001ff0:	79eb      	ldrb	r3, [r5, #7]
10001ff2:	2b00      	cmp	r3, #0
10001ff4:	d02c      	beq.n	10002050 <xTaskCreate+0xfc>
10001ff6:	233c      	movs	r3, #60	; 0x3c
10001ff8:	7a2a      	ldrb	r2, [r5, #8]
10001ffa:	54e2      	strb	r2, [r4, r3]
10001ffc:	7a2b      	ldrb	r3, [r5, #8]
10001ffe:	2b00      	cmp	r3, #0
10002000:	d026      	beq.n	10002050 <xTaskCreate+0xfc>
10002002:	233d      	movs	r3, #61	; 0x3d
10002004:	7a6a      	ldrb	r2, [r5, #9]
10002006:	54e2      	strb	r2, [r4, r3]
10002008:	7a6b      	ldrb	r3, [r5, #9]
1000200a:	2b00      	cmp	r3, #0
1000200c:	d020      	beq.n	10002050 <xTaskCreate+0xfc>
1000200e:	233e      	movs	r3, #62	; 0x3e
10002010:	7aaa      	ldrb	r2, [r5, #10]
10002012:	54e2      	strb	r2, [r4, r3]
10002014:	7aab      	ldrb	r3, [r5, #10]
10002016:	2b00      	cmp	r3, #0
10002018:	d01a      	beq.n	10002050 <xTaskCreate+0xfc>
1000201a:	233f      	movs	r3, #63	; 0x3f
1000201c:	7aea      	ldrb	r2, [r5, #11]
1000201e:	54e2      	strb	r2, [r4, r3]
10002020:	7aeb      	ldrb	r3, [r5, #11]
10002022:	2b00      	cmp	r3, #0
10002024:	d014      	beq.n	10002050 <xTaskCreate+0xfc>
10002026:	2340      	movs	r3, #64	; 0x40
10002028:	7b2a      	ldrb	r2, [r5, #12]
1000202a:	54e2      	strb	r2, [r4, r3]
1000202c:	7b2b      	ldrb	r3, [r5, #12]
1000202e:	2b00      	cmp	r3, #0
10002030:	d00e      	beq.n	10002050 <xTaskCreate+0xfc>
10002032:	2341      	movs	r3, #65	; 0x41
10002034:	7b6a      	ldrb	r2, [r5, #13]
10002036:	54e2      	strb	r2, [r4, r3]
10002038:	7b6b      	ldrb	r3, [r5, #13]
1000203a:	2b00      	cmp	r3, #0
1000203c:	d008      	beq.n	10002050 <xTaskCreate+0xfc>
1000203e:	2342      	movs	r3, #66	; 0x42
10002040:	7baa      	ldrb	r2, [r5, #14]
10002042:	54e2      	strb	r2, [r4, r3]
10002044:	7bab      	ldrb	r3, [r5, #14]
10002046:	2b00      	cmp	r3, #0
10002048:	d002      	beq.n	10002050 <xTaskCreate+0xfc>
1000204a:	2343      	movs	r3, #67	; 0x43
1000204c:	7bea      	ldrb	r2, [r5, #15]
1000204e:	54e2      	strb	r2, [r4, r3]
10002050:	2343      	movs	r3, #67	; 0x43
10002052:	2200      	movs	r2, #0
10002054:	54e2      	strb	r2, [r4, r3]
10002056:	9d08      	ldr	r5, [sp, #32]
10002058:	2d04      	cmp	r5, #4
1000205a:	d85a      	bhi.n	10002112 <xTaskCreate+0x1be>
1000205c:	1d23      	adds	r3, r4, #4
1000205e:	0018      	movs	r0, r3
10002060:	62e5      	str	r5, [r4, #44]	; 0x2c
10002062:	4699      	mov	r9, r3
10002064:	f001 fcaa 	bl	100039bc <vListInitialiseItem>
10002068:	0020      	movs	r0, r4
1000206a:	3018      	adds	r0, #24
1000206c:	f001 fca6 	bl	100039bc <vListInitialiseItem>
10002070:	2305      	movs	r3, #5
10002072:	1b5d      	subs	r5, r3, r5
10002074:	4642      	mov	r2, r8
10002076:	0039      	movs	r1, r7
10002078:	0030      	movs	r0, r6
1000207a:	6124      	str	r4, [r4, #16]
1000207c:	61a5      	str	r5, [r4, #24]
1000207e:	6264      	str	r4, [r4, #36]	; 0x24
10002080:	f001 fbe8 	bl	10003854 <pxPortInitialiseStack>
10002084:	9b09      	ldr	r3, [sp, #36]	; 0x24
10002086:	6020      	str	r0, [r4, #0]
10002088:	2b00      	cmp	r3, #0
1000208a:	d000      	beq.n	1000208e <xTaskCreate+0x13a>
1000208c:	601c      	str	r4, [r3, #0]
1000208e:	f001 fc01 	bl	10003894 <vPortEnterCritical>
10002092:	4d39      	ldr	r5, [pc, #228]	; (10002178 <xTaskCreate+0x224>)
10002094:	4e39      	ldr	r6, [pc, #228]	; (1000217c <xTaskCreate+0x228>)
10002096:	69ab      	ldr	r3, [r5, #24]
10002098:	3301      	adds	r3, #1
1000209a:	61ab      	str	r3, [r5, #24]
1000209c:	6873      	ldr	r3, [r6, #4]
1000209e:	2b00      	cmp	r3, #0
100020a0:	d040      	beq.n	10002124 <xTaskCreate+0x1d0>
100020a2:	6f33      	ldr	r3, [r6, #112]	; 0x70
100020a4:	2b00      	cmp	r3, #0
100020a6:	d036      	beq.n	10002116 <xTaskCreate+0x1c2>
100020a8:	6ae2      	ldr	r2, [r4, #44]	; 0x2c
100020aa:	6f73      	ldr	r3, [r6, #116]	; 0x74
100020ac:	3301      	adds	r3, #1
100020ae:	6773      	str	r3, [r6, #116]	; 0x74
100020b0:	6af3      	ldr	r3, [r6, #44]	; 0x2c
100020b2:	4293      	cmp	r3, r2
100020b4:	d200      	bcs.n	100020b8 <xTaskCreate+0x164>
100020b6:	62f2      	str	r2, [r6, #44]	; 0x2c
100020b8:	464f      	mov	r7, r9
100020ba:	0093      	lsls	r3, r2, #2
100020bc:	189b      	adds	r3, r3, r2
100020be:	009b      	lsls	r3, r3, #2
100020c0:	18e9      	adds	r1, r5, r3
100020c2:	6a0a      	ldr	r2, [r1, #32]
100020c4:	351c      	adds	r5, #28
100020c6:	6890      	ldr	r0, [r2, #8]
100020c8:	18ed      	adds	r5, r5, r3
100020ca:	60e0      	str	r0, [r4, #12]
100020cc:	69cb      	ldr	r3, [r1, #28]
100020ce:	6890      	ldr	r0, [r2, #8]
100020d0:	3301      	adds	r3, #1
100020d2:	60a2      	str	r2, [r4, #8]
100020d4:	6047      	str	r7, [r0, #4]
100020d6:	6097      	str	r7, [r2, #8]
100020d8:	6165      	str	r5, [r4, #20]
100020da:	61cb      	str	r3, [r1, #28]
100020dc:	f001 fbe6 	bl	100038ac <vPortExitCritical>
100020e0:	6f33      	ldr	r3, [r6, #112]	; 0x70
100020e2:	2501      	movs	r5, #1
100020e4:	2b00      	cmp	r3, #0
100020e6:	d009      	beq.n	100020fc <xTaskCreate+0x1a8>
100020e8:	6873      	ldr	r3, [r6, #4]
100020ea:	6ada      	ldr	r2, [r3, #44]	; 0x2c
100020ec:	6ae3      	ldr	r3, [r4, #44]	; 0x2c
100020ee:	429a      	cmp	r2, r3
100020f0:	d204      	bcs.n	100020fc <xTaskCreate+0x1a8>
100020f2:	f001 fbc3 	bl	1000387c <vPortYield>
100020f6:	e001      	b.n	100020fc <xTaskCreate+0x1a8>
100020f8:	2501      	movs	r5, #1
100020fa:	426d      	negs	r5, r5
100020fc:	0028      	movs	r0, r5
100020fe:	bcc0      	pop	{r6, r7}
10002100:	46b9      	mov	r9, r7
10002102:	46b0      	mov	r8, r6
10002104:	bdf8      	pop	{r3, r4, r5, r6, r7, pc}
10002106:	2501      	movs	r5, #1
10002108:	0030      	movs	r0, r6
1000210a:	f001 fb73 	bl	100037f4 <vPortFree>
1000210e:	426d      	negs	r5, r5
10002110:	e7f4      	b.n	100020fc <xTaskCreate+0x1a8>
10002112:	2504      	movs	r5, #4
10002114:	e7a2      	b.n	1000205c <xTaskCreate+0x108>
10002116:	6873      	ldr	r3, [r6, #4]
10002118:	6ae2      	ldr	r2, [r4, #44]	; 0x2c
1000211a:	6adb      	ldr	r3, [r3, #44]	; 0x2c
1000211c:	4293      	cmp	r3, r2
1000211e:	d8c4      	bhi.n	100020aa <xTaskCreate+0x156>
10002120:	6074      	str	r4, [r6, #4]
10002122:	e7c2      	b.n	100020aa <xTaskCreate+0x156>
10002124:	6074      	str	r4, [r6, #4]
10002126:	69ab      	ldr	r3, [r5, #24]
10002128:	2b01      	cmp	r3, #1
1000212a:	d1bd      	bne.n	100020a8 <xTaskCreate+0x154>
1000212c:	2380      	movs	r3, #128	; 0x80
1000212e:	002f      	movs	r7, r5
10002130:	4698      	mov	r8, r3
10002132:	371c      	adds	r7, #28
10002134:	44a8      	add	r8, r5
10002136:	0038      	movs	r0, r7
10002138:	3714      	adds	r7, #20
1000213a:	f001 fc33 	bl	100039a4 <vListInitialise>
1000213e:	45b8      	cmp	r8, r7
10002140:	d1f9      	bne.n	10002136 <xTaskCreate+0x1e2>
10002142:	2334      	movs	r3, #52	; 0x34
10002144:	4698      	mov	r8, r3
10002146:	0037      	movs	r7, r6
10002148:	44b0      	add	r8, r6
1000214a:	4640      	mov	r0, r8
1000214c:	3748      	adds	r7, #72	; 0x48
1000214e:	f001 fc29 	bl	100039a4 <vListInitialise>
10002152:	0038      	movs	r0, r7
10002154:	f001 fc26 	bl	100039a4 <vListInitialise>
10002158:	0030      	movs	r0, r6
1000215a:	305c      	adds	r0, #92	; 0x5c
1000215c:	f001 fc22 	bl	100039a4 <vListInitialise>
10002160:	1d28      	adds	r0, r5, #4
10002162:	f001 fc1f 	bl	100039a4 <vListInitialise>
10002166:	0030      	movs	r0, r6
10002168:	3008      	adds	r0, #8
1000216a:	f001 fc1b 	bl	100039a4 <vListInitialise>
1000216e:	4643      	mov	r3, r8
10002170:	6233      	str	r3, [r6, #32]
10002172:	61f7      	str	r7, [r6, #28]
10002174:	e798      	b.n	100020a8 <xTaskCreate+0x154>
10002176:	46c0      	nop			; (mov r8, r8)
10002178:	20000df4 	.word	0x20000df4
1000217c:	20000e74 	.word	0x20000e74

10002180 <vTaskDelete>:
10002180:	b5f8      	push	{r3, r4, r5, r6, r7, lr}
10002182:	0004      	movs	r4, r0
10002184:	f001 fb86 	bl	10003894 <vPortEnterCritical>
10002188:	4d21      	ldr	r5, [pc, #132]	; (10002210 <vTaskDelete+0x90>)
1000218a:	2c00      	cmp	r4, #0
1000218c:	d031      	beq.n	100021f2 <vTaskDelete+0x72>
1000218e:	1d26      	adds	r6, r4, #4
10002190:	0030      	movs	r0, r6
10002192:	f001 fc3b 	bl	10003a0c <uxListRemove>
10002196:	6aa3      	ldr	r3, [r4, #40]	; 0x28
10002198:	2b00      	cmp	r3, #0
1000219a:	d003      	beq.n	100021a4 <vTaskDelete+0x24>
1000219c:	0020      	movs	r0, r4
1000219e:	3018      	adds	r0, #24
100021a0:	f001 fc34 	bl	10003a0c <uxListRemove>
100021a4:	6f6b      	ldr	r3, [r5, #116]	; 0x74
100021a6:	3301      	adds	r3, #1
100021a8:	676b      	str	r3, [r5, #116]	; 0x74
100021aa:	686b      	ldr	r3, [r5, #4]
100021ac:	42a3      	cmp	r3, r4
100021ae:	d022      	beq.n	100021f6 <vTaskDelete+0x76>
100021b0:	4a18      	ldr	r2, [pc, #96]	; (10002214 <vTaskDelete+0x94>)
100021b2:	6993      	ldr	r3, [r2, #24]
100021b4:	3b01      	subs	r3, #1
100021b6:	6193      	str	r3, [r2, #24]
100021b8:	6a2b      	ldr	r3, [r5, #32]
100021ba:	681b      	ldr	r3, [r3, #0]
100021bc:	2b00      	cmp	r3, #0
100021be:	d015      	beq.n	100021ec <vTaskDelete+0x6c>
100021c0:	6a2b      	ldr	r3, [r5, #32]
100021c2:	68db      	ldr	r3, [r3, #12]
100021c4:	681b      	ldr	r3, [r3, #0]
100021c6:	626b      	str	r3, [r5, #36]	; 0x24
100021c8:	f001 fb70 	bl	100038ac <vPortExitCritical>
100021cc:	686b      	ldr	r3, [r5, #4]
100021ce:	42a3      	cmp	r3, r4
100021d0:	d005      	beq.n	100021de <vTaskDelete+0x5e>
100021d2:	6b20      	ldr	r0, [r4, #48]	; 0x30
100021d4:	f001 fb0e 	bl	100037f4 <vPortFree>
100021d8:	0020      	movs	r0, r4
100021da:	f001 fb0b 	bl	100037f4 <vPortFree>
100021de:	6f2b      	ldr	r3, [r5, #112]	; 0x70
100021e0:	2b00      	cmp	r3, #0
100021e2:	d002      	beq.n	100021ea <vTaskDelete+0x6a>
100021e4:	686b      	ldr	r3, [r5, #4]
100021e6:	42a3      	cmp	r3, r4
100021e8:	d00e      	beq.n	10002208 <vTaskDelete+0x88>
100021ea:	bdf8      	pop	{r3, r4, r5, r6, r7, pc}
100021ec:	3b01      	subs	r3, #1
100021ee:	626b      	str	r3, [r5, #36]	; 0x24
100021f0:	e7ea      	b.n	100021c8 <vTaskDelete+0x48>
100021f2:	686c      	ldr	r4, [r5, #4]
100021f4:	e7cb      	b.n	1000218e <vTaskDelete+0xe>
100021f6:	4f07      	ldr	r7, [pc, #28]	; (10002214 <vTaskDelete+0x94>)
100021f8:	0031      	movs	r1, r6
100021fa:	1d38      	adds	r0, r7, #4
100021fc:	f001 fbe2 	bl	100039c4 <vListInsertEnd>
10002200:	683b      	ldr	r3, [r7, #0]
10002202:	3301      	adds	r3, #1
10002204:	603b      	str	r3, [r7, #0]
10002206:	e7df      	b.n	100021c8 <vTaskDelete+0x48>
10002208:	f001 fb38 	bl	1000387c <vPortYield>
1000220c:	e7ed      	b.n	100021ea <vTaskDelete+0x6a>
1000220e:	46c0      	nop			; (mov r8, r8)
10002210:	20000e74 	.word	0x20000e74
10002214:	20000df4 	.word	0x20000df4

10002218 <uxTaskPriorityGet>:
10002218:	b510      	push	{r4, lr}
1000221a:	0004      	movs	r4, r0
1000221c:	f001 fb3a 	bl	10003894 <vPortEnterCritical>
10002220:	2c00      	cmp	r4, #0
10002222:	d004      	beq.n	1000222e <uxTaskPriorityGet+0x16>
10002224:	6ae4      	ldr	r4, [r4, #44]	; 0x2c
10002226:	f001 fb41 	bl	100038ac <vPortExitCritical>
1000222a:	0020      	movs	r0, r4
1000222c:	bd10      	pop	{r4, pc}
1000222e:	4b01      	ldr	r3, [pc, #4]	; (10002234 <uxTaskPriorityGet+0x1c>)
10002230:	685c      	ldr	r4, [r3, #4]
10002232:	e7f7      	b.n	10002224 <uxTaskPriorityGet+0xc>
10002234:	20000e74 	.word	0x20000e74

10002238 <uxTaskPriorityGetFromISR>:
10002238:	b510      	push	{r4, lr}
1000223a:	0004      	movs	r4, r0
1000223c:	f001 fb40 	bl	100038c0 <ulSetInterruptMaskFromISR>
10002240:	2c00      	cmp	r4, #0
10002242:	d004      	beq.n	1000224e <uxTaskPriorityGetFromISR+0x16>
10002244:	6ae4      	ldr	r4, [r4, #44]	; 0x2c
10002246:	f001 fb3f 	bl	100038c8 <vClearInterruptMaskFromISR>
1000224a:	0020      	movs	r0, r4
1000224c:	bd10      	pop	{r4, pc}
1000224e:	4b01      	ldr	r3, [pc, #4]	; (10002254 <uxTaskPriorityGetFromISR+0x1c>)
10002250:	685c      	ldr	r4, [r3, #4]
10002252:	e7f7      	b.n	10002244 <uxTaskPriorityGetFromISR+0xc>
10002254:	20000e74 	.word	0x20000e74

10002258 <vTaskPrioritySet>:
10002258:	b5f0      	push	{r4, r5, r6, r7, lr}
1000225a:	46c6      	mov	lr, r8
1000225c:	0004      	movs	r4, r0
1000225e:	000d      	movs	r5, r1
10002260:	b500      	push	{lr}
10002262:	2904      	cmp	r1, #4
10002264:	d900      	bls.n	10002268 <vTaskPrioritySet+0x10>
10002266:	2504      	movs	r5, #4
10002268:	f001 fb14 	bl	10003894 <vPortEnterCritical>
1000226c:	2c00      	cmp	r4, #0
1000226e:	d02b      	beq.n	100022c8 <vTaskPrioritySet+0x70>
10002270:	6ae3      	ldr	r3, [r4, #44]	; 0x2c
10002272:	429d      	cmp	r5, r3
10002274:	d01a      	beq.n	100022ac <vTaskPrioritySet+0x54>
10002276:	4f25      	ldr	r7, [pc, #148]	; (1000230c <vTaskPrioritySet+0xb4>)
10002278:	d81d      	bhi.n	100022b6 <vTaskPrioritySet+0x5e>
1000227a:	687e      	ldr	r6, [r7, #4]
1000227c:	1b36      	subs	r6, r6, r4
1000227e:	4272      	negs	r2, r6
10002280:	4156      	adcs	r6, r2
10002282:	69a2      	ldr	r2, [r4, #24]
10002284:	62e5      	str	r5, [r4, #44]	; 0x2c
10002286:	2a00      	cmp	r2, #0
10002288:	db02      	blt.n	10002290 <vTaskPrioritySet+0x38>
1000228a:	2105      	movs	r1, #5
1000228c:	1b4d      	subs	r5, r1, r5
1000228e:	61a5      	str	r5, [r4, #24]
10002290:	4d1f      	ldr	r5, [pc, #124]	; (10002310 <vTaskPrioritySet+0xb8>)
10002292:	009a      	lsls	r2, r3, #2
10002294:	0029      	movs	r1, r5
10002296:	18d3      	adds	r3, r2, r3
10002298:	311c      	adds	r1, #28
1000229a:	009b      	lsls	r3, r3, #2
1000229c:	6962      	ldr	r2, [r4, #20]
1000229e:	18cb      	adds	r3, r1, r3
100022a0:	429a      	cmp	r2, r3
100022a2:	d014      	beq.n	100022ce <vTaskPrioritySet+0x76>
100022a4:	2e00      	cmp	r6, #0
100022a6:	d001      	beq.n	100022ac <vTaskPrioritySet+0x54>
100022a8:	f001 fae8 	bl	1000387c <vPortYield>
100022ac:	f001 fafe 	bl	100038ac <vPortExitCritical>
100022b0:	bc80      	pop	{r7}
100022b2:	46b8      	mov	r8, r7
100022b4:	bdf0      	pop	{r4, r5, r6, r7, pc}
100022b6:	687a      	ldr	r2, [r7, #4]
100022b8:	42a2      	cmp	r2, r4
100022ba:	d025      	beq.n	10002308 <vTaskPrioritySet+0xb0>
100022bc:	2600      	movs	r6, #0
100022be:	687a      	ldr	r2, [r7, #4]
100022c0:	6ad2      	ldr	r2, [r2, #44]	; 0x2c
100022c2:	4295      	cmp	r5, r2
100022c4:	4176      	adcs	r6, r6
100022c6:	e7dc      	b.n	10002282 <vTaskPrioritySet+0x2a>
100022c8:	4b10      	ldr	r3, [pc, #64]	; (1000230c <vTaskPrioritySet+0xb4>)
100022ca:	685c      	ldr	r4, [r3, #4]
100022cc:	e7d0      	b.n	10002270 <vTaskPrioritySet+0x18>
100022ce:	1d23      	adds	r3, r4, #4
100022d0:	0018      	movs	r0, r3
100022d2:	4698      	mov	r8, r3
100022d4:	f001 fb9a 	bl	10003a0c <uxListRemove>
100022d8:	6ae2      	ldr	r2, [r4, #44]	; 0x2c
100022da:	6afb      	ldr	r3, [r7, #44]	; 0x2c
100022dc:	429a      	cmp	r2, r3
100022de:	d900      	bls.n	100022e2 <vTaskPrioritySet+0x8a>
100022e0:	62fa      	str	r2, [r7, #44]	; 0x2c
100022e2:	4647      	mov	r7, r8
100022e4:	0093      	lsls	r3, r2, #2
100022e6:	189b      	adds	r3, r3, r2
100022e8:	009b      	lsls	r3, r3, #2
100022ea:	18e9      	adds	r1, r5, r3
100022ec:	6a0a      	ldr	r2, [r1, #32]
100022ee:	351c      	adds	r5, #28
100022f0:	6890      	ldr	r0, [r2, #8]
100022f2:	18ed      	adds	r5, r5, r3
100022f4:	60e0      	str	r0, [r4, #12]
100022f6:	69cb      	ldr	r3, [r1, #28]
100022f8:	6890      	ldr	r0, [r2, #8]
100022fa:	3301      	adds	r3, #1
100022fc:	60a2      	str	r2, [r4, #8]
100022fe:	6047      	str	r7, [r0, #4]
10002300:	6097      	str	r7, [r2, #8]
10002302:	6165      	str	r5, [r4, #20]
10002304:	61cb      	str	r3, [r1, #28]
10002306:	e7cd      	b.n	100022a4 <vTaskPrioritySet+0x4c>
10002308:	2600      	movs	r6, #0
1000230a:	e7ba      	b.n	10002282 <vTaskPrioritySet+0x2a>
1000230c:	20000e74 	.word	0x20000e74
10002310:	20000df4 	.word	0x20000df4

10002314 <vTaskSuspend>:
10002314:	b570      	push	{r4, r5, r6, lr}
10002316:	0004      	movs	r4, r0
10002318:	f001 fabc 	bl	10003894 <vPortEnterCritical>
1000231c:	4d4b      	ldr	r5, [pc, #300]	; (1000244c <vTaskSuspend+0x138>)
1000231e:	2c00      	cmp	r4, #0
10002320:	d047      	beq.n	100023b2 <vTaskSuspend+0x9e>
10002322:	1d26      	adds	r6, r4, #4
10002324:	0030      	movs	r0, r6
10002326:	f001 fb71 	bl	10003a0c <uxListRemove>
1000232a:	6aa3      	ldr	r3, [r4, #40]	; 0x28
1000232c:	2b00      	cmp	r3, #0
1000232e:	d003      	beq.n	10002338 <vTaskSuspend+0x24>
10002330:	0020      	movs	r0, r4
10002332:	3018      	adds	r0, #24
10002334:	f001 fb6a 	bl	10003a0c <uxListRemove>
10002338:	0028      	movs	r0, r5
1000233a:	0031      	movs	r1, r6
1000233c:	3008      	adds	r0, #8
1000233e:	f001 fb41 	bl	100039c4 <vListInsertEnd>
10002342:	2364      	movs	r3, #100	; 0x64
10002344:	5ce2      	ldrb	r2, [r4, r3]
10002346:	2a01      	cmp	r2, #1
10002348:	d101      	bne.n	1000234e <vTaskSuspend+0x3a>
1000234a:	2200      	movs	r2, #0
1000234c:	54e2      	strb	r2, [r4, r3]
1000234e:	2365      	movs	r3, #101	; 0x65
10002350:	5ce2      	ldrb	r2, [r4, r3]
10002352:	2a01      	cmp	r2, #1
10002354:	d101      	bne.n	1000235a <vTaskSuspend+0x46>
10002356:	2200      	movs	r2, #0
10002358:	54e2      	strb	r2, [r4, r3]
1000235a:	2366      	movs	r3, #102	; 0x66
1000235c:	5ce2      	ldrb	r2, [r4, r3]
1000235e:	2a01      	cmp	r2, #1
10002360:	d101      	bne.n	10002366 <vTaskSuspend+0x52>
10002362:	2200      	movs	r2, #0
10002364:	54e2      	strb	r2, [r4, r3]
10002366:	f001 faa1 	bl	100038ac <vPortExitCritical>
1000236a:	6f2b      	ldr	r3, [r5, #112]	; 0x70
1000236c:	2b00      	cmp	r3, #0
1000236e:	d103      	bne.n	10002378 <vTaskSuspend+0x64>
10002370:	686b      	ldr	r3, [r5, #4]
10002372:	42a3      	cmp	r3, r4
10002374:	d00f      	beq.n	10002396 <vTaskSuspend+0x82>
10002376:	bd70      	pop	{r4, r5, r6, pc}
10002378:	f001 fa8c 	bl	10003894 <vPortEnterCritical>
1000237c:	6a2b      	ldr	r3, [r5, #32]
1000237e:	681b      	ldr	r3, [r3, #0]
10002380:	2b00      	cmp	r3, #0
10002382:	d018      	beq.n	100023b6 <vTaskSuspend+0xa2>
10002384:	6a2b      	ldr	r3, [r5, #32]
10002386:	68db      	ldr	r3, [r3, #12]
10002388:	681b      	ldr	r3, [r3, #0]
1000238a:	626b      	str	r3, [r5, #36]	; 0x24
1000238c:	f001 fa8e 	bl	100038ac <vPortExitCritical>
10002390:	686b      	ldr	r3, [r5, #4]
10002392:	42a3      	cmp	r3, r4
10002394:	d1ef      	bne.n	10002376 <vTaskSuspend+0x62>
10002396:	6f2a      	ldr	r2, [r5, #112]	; 0x70
10002398:	2a00      	cmp	r2, #0
1000239a:	d111      	bne.n	100023c0 <vTaskSuspend+0xac>
1000239c:	4b2c      	ldr	r3, [pc, #176]	; (10002450 <vTaskSuspend+0x13c>)
1000239e:	68a8      	ldr	r0, [r5, #8]
100023a0:	6999      	ldr	r1, [r3, #24]
100023a2:	4288      	cmp	r0, r1
100023a4:	d00a      	beq.n	100023bc <vTaskSuspend+0xa8>
100023a6:	6faa      	ldr	r2, [r5, #120]	; 0x78
100023a8:	2a00      	cmp	r2, #0
100023aa:	d00c      	beq.n	100023c6 <vTaskSuspend+0xb2>
100023ac:	2301      	movs	r3, #1
100023ae:	632b      	str	r3, [r5, #48]	; 0x30
100023b0:	e7e1      	b.n	10002376 <vTaskSuspend+0x62>
100023b2:	686c      	ldr	r4, [r5, #4]
100023b4:	e7b5      	b.n	10002322 <vTaskSuspend+0xe>
100023b6:	3b01      	subs	r3, #1
100023b8:	626b      	str	r3, [r5, #36]	; 0x24
100023ba:	e7e7      	b.n	1000238c <vTaskSuspend+0x78>
100023bc:	606a      	str	r2, [r5, #4]
100023be:	e7da      	b.n	10002376 <vTaskSuspend+0x62>
100023c0:	f001 fa5c 	bl	1000387c <vPortYield>
100023c4:	e7d7      	b.n	10002376 <vTaskSuspend+0x62>
100023c6:	632a      	str	r2, [r5, #48]	; 0x30
100023c8:	6ae9      	ldr	r1, [r5, #44]	; 0x2c
100023ca:	008a      	lsls	r2, r1, #2
100023cc:	1850      	adds	r0, r2, r1
100023ce:	0080      	lsls	r0, r0, #2
100023d0:	1818      	adds	r0, r3, r0
100023d2:	69c0      	ldr	r0, [r0, #28]
100023d4:	2800      	cmp	r0, #0
100023d6:	d125      	bne.n	10002424 <vTaskSuspend+0x110>
100023d8:	1e4c      	subs	r4, r1, #1
100023da:	00a2      	lsls	r2, r4, #2
100023dc:	1910      	adds	r0, r2, r4
100023de:	0080      	lsls	r0, r0, #2
100023e0:	1818      	adds	r0, r3, r0
100023e2:	69c0      	ldr	r0, [r0, #28]
100023e4:	2800      	cmp	r0, #0
100023e6:	d12e      	bne.n	10002446 <vTaskSuspend+0x132>
100023e8:	1e8c      	subs	r4, r1, #2
100023ea:	00a2      	lsls	r2, r4, #2
100023ec:	1910      	adds	r0, r2, r4
100023ee:	0080      	lsls	r0, r0, #2
100023f0:	1818      	adds	r0, r3, r0
100023f2:	69c0      	ldr	r0, [r0, #28]
100023f4:	2800      	cmp	r0, #0
100023f6:	d126      	bne.n	10002446 <vTaskSuspend+0x132>
100023f8:	1ecc      	subs	r4, r1, #3
100023fa:	00a2      	lsls	r2, r4, #2
100023fc:	1910      	adds	r0, r2, r4
100023fe:	0080      	lsls	r0, r0, #2
10002400:	1818      	adds	r0, r3, r0
10002402:	69c0      	ldr	r0, [r0, #28]
10002404:	2800      	cmp	r0, #0
10002406:	d11e      	bne.n	10002446 <vTaskSuspend+0x132>
10002408:	1f0c      	subs	r4, r1, #4
1000240a:	00a2      	lsls	r2, r4, #2
1000240c:	1910      	adds	r0, r2, r4
1000240e:	0080      	lsls	r0, r0, #2
10002410:	1818      	adds	r0, r3, r0
10002412:	69c0      	ldr	r0, [r0, #28]
10002414:	2800      	cmp	r0, #0
10002416:	d116      	bne.n	10002446 <vTaskSuspend+0x132>
10002418:	3905      	subs	r1, #5
1000241a:	008a      	lsls	r2, r1, #2
1000241c:	1850      	adds	r0, r2, r1
1000241e:	0080      	lsls	r0, r0, #2
10002420:	1818      	adds	r0, r3, r0
10002422:	69c0      	ldr	r0, [r0, #28]
10002424:	1852      	adds	r2, r2, r1
10002426:	0092      	lsls	r2, r2, #2
10002428:	189c      	adds	r4, r3, r2
1000242a:	0023      	movs	r3, r4
1000242c:	6a20      	ldr	r0, [r4, #32]
1000242e:	3324      	adds	r3, #36	; 0x24
10002430:	6840      	ldr	r0, [r0, #4]
10002432:	6220      	str	r0, [r4, #32]
10002434:	4298      	cmp	r0, r3
10002436:	d003      	beq.n	10002440 <vTaskSuspend+0x12c>
10002438:	68c3      	ldr	r3, [r0, #12]
1000243a:	606b      	str	r3, [r5, #4]
1000243c:	62e9      	str	r1, [r5, #44]	; 0x2c
1000243e:	e79a      	b.n	10002376 <vTaskSuspend+0x62>
10002440:	6840      	ldr	r0, [r0, #4]
10002442:	6220      	str	r0, [r4, #32]
10002444:	e7f8      	b.n	10002438 <vTaskSuspend+0x124>
10002446:	0021      	movs	r1, r4
10002448:	e7ec      	b.n	10002424 <vTaskSuspend+0x110>
1000244a:	46c0      	nop			; (mov r8, r8)
1000244c:	20000e74 	.word	0x20000e74
10002450:	20000df4 	.word	0x20000df4

10002454 <vTaskResume>:
10002454:	b5f8      	push	{r3, r4, r5, r6, r7, lr}
10002456:	4d1e      	ldr	r5, [pc, #120]	; (100024d0 <vTaskResume+0x7c>)
10002458:	0004      	movs	r4, r0
1000245a:	686b      	ldr	r3, [r5, #4]
1000245c:	4283      	cmp	r3, r0
1000245e:	d00a      	beq.n	10002476 <vTaskResume+0x22>
10002460:	2800      	cmp	r0, #0
10002462:	d008      	beq.n	10002476 <vTaskResume+0x22>
10002464:	f001 fa16 	bl	10003894 <vPortEnterCritical>
10002468:	002b      	movs	r3, r5
1000246a:	6962      	ldr	r2, [r4, #20]
1000246c:	3308      	adds	r3, #8
1000246e:	429a      	cmp	r2, r3
10002470:	d002      	beq.n	10002478 <vTaskResume+0x24>
10002472:	f001 fa1b 	bl	100038ac <vPortExitCritical>
10002476:	bdf8      	pop	{r3, r4, r5, r6, r7, pc}
10002478:	002a      	movs	r2, r5
1000247a:	6aa3      	ldr	r3, [r4, #40]	; 0x28
1000247c:	325c      	adds	r2, #92	; 0x5c
1000247e:	4293      	cmp	r3, r2
10002480:	d0f7      	beq.n	10002472 <vTaskResume+0x1e>
10002482:	2b00      	cmp	r3, #0
10002484:	d1f5      	bne.n	10002472 <vTaskResume+0x1e>
10002486:	1d26      	adds	r6, r4, #4
10002488:	0030      	movs	r0, r6
1000248a:	f001 fabf 	bl	10003a0c <uxListRemove>
1000248e:	6ae1      	ldr	r1, [r4, #44]	; 0x2c
10002490:	6aeb      	ldr	r3, [r5, #44]	; 0x2c
10002492:	4299      	cmp	r1, r3
10002494:	d900      	bls.n	10002498 <vTaskResume+0x44>
10002496:	62e9      	str	r1, [r5, #44]	; 0x2c
10002498:	4b0e      	ldr	r3, [pc, #56]	; (100024d4 <vTaskResume+0x80>)
1000249a:	008a      	lsls	r2, r1, #2
1000249c:	469c      	mov	ip, r3
1000249e:	1852      	adds	r2, r2, r1
100024a0:	0092      	lsls	r2, r2, #2
100024a2:	189f      	adds	r7, r3, r2
100024a4:	6a38      	ldr	r0, [r7, #32]
100024a6:	6883      	ldr	r3, [r0, #8]
100024a8:	60a0      	str	r0, [r4, #8]
100024aa:	60e3      	str	r3, [r4, #12]
100024ac:	6883      	ldr	r3, [r0, #8]
100024ae:	605e      	str	r6, [r3, #4]
100024b0:	4663      	mov	r3, ip
100024b2:	331c      	adds	r3, #28
100024b4:	189b      	adds	r3, r3, r2
100024b6:	6086      	str	r6, [r0, #8]
100024b8:	6163      	str	r3, [r4, #20]
100024ba:	69fb      	ldr	r3, [r7, #28]
100024bc:	3301      	adds	r3, #1
100024be:	61fb      	str	r3, [r7, #28]
100024c0:	686b      	ldr	r3, [r5, #4]
100024c2:	6adb      	ldr	r3, [r3, #44]	; 0x2c
100024c4:	4299      	cmp	r1, r3
100024c6:	d3d4      	bcc.n	10002472 <vTaskResume+0x1e>
100024c8:	f001 f9d8 	bl	1000387c <vPortYield>
100024cc:	e7d1      	b.n	10002472 <vTaskResume+0x1e>
100024ce:	46c0      	nop			; (mov r8, r8)
100024d0:	20000e74 	.word	0x20000e74
100024d4:	20000df4 	.word	0x20000df4

100024d8 <xTaskResumeFromISR>:
100024d8:	b5f0      	push	{r4, r5, r6, r7, lr}
100024da:	46c6      	mov	lr, r8
100024dc:	b500      	push	{lr}
100024de:	0004      	movs	r4, r0
100024e0:	f001 f9ee 	bl	100038c0 <ulSetInterruptMaskFromISR>
100024e4:	4e22      	ldr	r6, [pc, #136]	; (10002570 <xTaskResumeFromISR+0x98>)
100024e6:	6962      	ldr	r2, [r4, #20]
100024e8:	0033      	movs	r3, r6
100024ea:	3308      	adds	r3, #8
100024ec:	0005      	movs	r5, r0
100024ee:	2700      	movs	r7, #0
100024f0:	429a      	cmp	r2, r3
100024f2:	d006      	beq.n	10002502 <xTaskResumeFromISR+0x2a>
100024f4:	0028      	movs	r0, r5
100024f6:	f001 f9e7 	bl	100038c8 <vClearInterruptMaskFromISR>
100024fa:	0038      	movs	r0, r7
100024fc:	bc80      	pop	{r7}
100024fe:	46b8      	mov	r8, r7
10002500:	bdf0      	pop	{r4, r5, r6, r7, pc}
10002502:	0030      	movs	r0, r6
10002504:	6aa3      	ldr	r3, [r4, #40]	; 0x28
10002506:	305c      	adds	r0, #92	; 0x5c
10002508:	4283      	cmp	r3, r0
1000250a:	d0f3      	beq.n	100024f4 <xTaskResumeFromISR+0x1c>
1000250c:	2b00      	cmp	r3, #0
1000250e:	d1f1      	bne.n	100024f4 <xTaskResumeFromISR+0x1c>
10002510:	6fb3      	ldr	r3, [r6, #120]	; 0x78
10002512:	2b00      	cmp	r3, #0
10002514:	d127      	bne.n	10002566 <xTaskResumeFromISR+0x8e>
10002516:	6873      	ldr	r3, [r6, #4]
10002518:	6ae2      	ldr	r2, [r4, #44]	; 0x2c
1000251a:	6adb      	ldr	r3, [r3, #44]	; 0x2c
1000251c:	429a      	cmp	r2, r3
1000251e:	d302      	bcc.n	10002526 <xTaskResumeFromISR+0x4e>
10002520:	2301      	movs	r3, #1
10002522:	3701      	adds	r7, #1
10002524:	6333      	str	r3, [r6, #48]	; 0x30
10002526:	1d23      	adds	r3, r4, #4
10002528:	0018      	movs	r0, r3
1000252a:	4698      	mov	r8, r3
1000252c:	f001 fa6e 	bl	10003a0c <uxListRemove>
10002530:	6ae1      	ldr	r1, [r4, #44]	; 0x2c
10002532:	6af3      	ldr	r3, [r6, #44]	; 0x2c
10002534:	4299      	cmp	r1, r3
10002536:	d900      	bls.n	1000253a <xTaskResumeFromISR+0x62>
10002538:	62f1      	str	r1, [r6, #44]	; 0x2c
1000253a:	008a      	lsls	r2, r1, #2
1000253c:	4b0d      	ldr	r3, [pc, #52]	; (10002574 <xTaskResumeFromISR+0x9c>)
1000253e:	1852      	adds	r2, r2, r1
10002540:	0092      	lsls	r2, r2, #2
10002542:	189e      	adds	r6, r3, r2
10002544:	469c      	mov	ip, r3
10002546:	4643      	mov	r3, r8
10002548:	6a31      	ldr	r1, [r6, #32]
1000254a:	6888      	ldr	r0, [r1, #8]
1000254c:	60a1      	str	r1, [r4, #8]
1000254e:	60e0      	str	r0, [r4, #12]
10002550:	6888      	ldr	r0, [r1, #8]
10002552:	6043      	str	r3, [r0, #4]
10002554:	608b      	str	r3, [r1, #8]
10002556:	4663      	mov	r3, ip
10002558:	331c      	adds	r3, #28
1000255a:	189b      	adds	r3, r3, r2
1000255c:	6163      	str	r3, [r4, #20]
1000255e:	69f3      	ldr	r3, [r6, #28]
10002560:	3301      	adds	r3, #1
10002562:	61f3      	str	r3, [r6, #28]
10002564:	e7c6      	b.n	100024f4 <xTaskResumeFromISR+0x1c>
10002566:	0021      	movs	r1, r4
10002568:	3118      	adds	r1, #24
1000256a:	f001 fa2b 	bl	100039c4 <vListInsertEnd>
1000256e:	e7c1      	b.n	100024f4 <xTaskResumeFromISR+0x1c>
10002570:	20000e74 	.word	0x20000e74
10002574:	20000df4 	.word	0x20000df4

10002578 <vTaskStartScheduler>:
10002578:	b5f8      	push	{r3, r4, r5, r6, r7, lr}
1000257a:	2080      	movs	r0, #128	; 0x80
1000257c:	46ce      	mov	lr, r9
1000257e:	4647      	mov	r7, r8
10002580:	0080      	lsls	r0, r0, #2
10002582:	b580      	push	{r7, lr}
10002584:	f001 f92a 	bl	100037dc <pvPortMalloc>
10002588:	1e05      	subs	r5, r0, #0
1000258a:	d05f      	beq.n	1000264c <vTaskStartScheduler+0xd4>
1000258c:	2068      	movs	r0, #104	; 0x68
1000258e:	f001 f925 	bl	100037dc <pvPortMalloc>
10002592:	1e04      	subs	r4, r0, #0
10002594:	d060      	beq.n	10002658 <vTaskStartScheduler+0xe0>
10002596:	2268      	movs	r2, #104	; 0x68
10002598:	2100      	movs	r1, #0
1000259a:	f7ff fa0b 	bl	100019b4 <__wrap_memset>
1000259e:	2307      	movs	r3, #7
100025a0:	6325      	str	r5, [r4, #48]	; 0x30
100025a2:	35fd      	adds	r5, #253	; 0xfd
100025a4:	35ff      	adds	r5, #255	; 0xff
100025a6:	439d      	bics	r5, r3
100025a8:	4b49      	ldr	r3, [pc, #292]	; (100026d0 <vTaskStartScheduler+0x158>)
100025aa:	1d27      	adds	r7, r4, #4
100025ac:	6363      	str	r3, [r4, #52]	; 0x34
100025ae:	0038      	movs	r0, r7
100025b0:	f001 fa04 	bl	100039bc <vListInitialiseItem>
100025b4:	0020      	movs	r0, r4
100025b6:	3018      	adds	r0, #24
100025b8:	f001 fa00 	bl	100039bc <vListInitialiseItem>
100025bc:	2305      	movs	r3, #5
100025be:	2200      	movs	r2, #0
100025c0:	61a3      	str	r3, [r4, #24]
100025c2:	0028      	movs	r0, r5
100025c4:	4943      	ldr	r1, [pc, #268]	; (100026d4 <vTaskStartScheduler+0x15c>)
100025c6:	6124      	str	r4, [r4, #16]
100025c8:	6264      	str	r4, [r4, #36]	; 0x24
100025ca:	f001 f943 	bl	10003854 <pxPortInitialiseStack>
100025ce:	4d42      	ldr	r5, [pc, #264]	; (100026d8 <vTaskStartScheduler+0x160>)
100025d0:	6020      	str	r0, [r4, #0]
100025d2:	67ec      	str	r4, [r5, #124]	; 0x7c
100025d4:	f001 f95e 	bl	10003894 <vPortEnterCritical>
100025d8:	4e40      	ldr	r6, [pc, #256]	; (100026dc <vTaskStartScheduler+0x164>)
100025da:	69b3      	ldr	r3, [r6, #24]
100025dc:	3301      	adds	r3, #1
100025de:	61b3      	str	r3, [r6, #24]
100025e0:	686b      	ldr	r3, [r5, #4]
100025e2:	2b00      	cmp	r3, #0
100025e4:	d043      	beq.n	1000266e <vTaskStartScheduler+0xf6>
100025e6:	6f2b      	ldr	r3, [r5, #112]	; 0x70
100025e8:	2b00      	cmp	r3, #0
100025ea:	d039      	beq.n	10002660 <vTaskStartScheduler+0xe8>
100025ec:	6ae2      	ldr	r2, [r4, #44]	; 0x2c
100025ee:	6f6b      	ldr	r3, [r5, #116]	; 0x74
100025f0:	3301      	adds	r3, #1
100025f2:	676b      	str	r3, [r5, #116]	; 0x74
100025f4:	6aeb      	ldr	r3, [r5, #44]	; 0x2c
100025f6:	4293      	cmp	r3, r2
100025f8:	d200      	bcs.n	100025fc <vTaskStartScheduler+0x84>
100025fa:	62ea      	str	r2, [r5, #44]	; 0x2c
100025fc:	0093      	lsls	r3, r2, #2
100025fe:	189b      	adds	r3, r3, r2
10002600:	009b      	lsls	r3, r3, #2
10002602:	18f1      	adds	r1, r6, r3
10002604:	6a0a      	ldr	r2, [r1, #32]
10002606:	361c      	adds	r6, #28
10002608:	6890      	ldr	r0, [r2, #8]
1000260a:	18f6      	adds	r6, r6, r3
1000260c:	60e0      	str	r0, [r4, #12]
1000260e:	69cb      	ldr	r3, [r1, #28]
10002610:	6890      	ldr	r0, [r2, #8]
10002612:	3301      	adds	r3, #1
10002614:	60a2      	str	r2, [r4, #8]
10002616:	6047      	str	r7, [r0, #4]
10002618:	6097      	str	r7, [r2, #8]
1000261a:	6166      	str	r6, [r4, #20]
1000261c:	61cb      	str	r3, [r1, #28]
1000261e:	f001 f945 	bl	100038ac <vPortExitCritical>
10002622:	6f2b      	ldr	r3, [r5, #112]	; 0x70
10002624:	2b00      	cmp	r3, #0
10002626:	d004      	beq.n	10002632 <vTaskStartScheduler+0xba>
10002628:	686b      	ldr	r3, [r5, #4]
1000262a:	6ada      	ldr	r2, [r3, #44]	; 0x2c
1000262c:	6ae3      	ldr	r3, [r4, #44]	; 0x2c
1000262e:	429a      	cmp	r2, r3
10002630:	d34b      	bcc.n	100026ca <vTaskStartScheduler+0x152>
10002632:	f000 ffc5 	bl	100035c0 <xTimerCreateTimerTask>
10002636:	2801      	cmp	r0, #1
10002638:	d108      	bne.n	1000264c <vTaskStartScheduler+0xd4>
1000263a:	b672      	cpsid	i
1000263c:	2301      	movs	r3, #1
1000263e:	425b      	negs	r3, r3
10002640:	626b      	str	r3, [r5, #36]	; 0x24
10002642:	2300      	movs	r3, #0
10002644:	6728      	str	r0, [r5, #112]	; 0x70
10002646:	602b      	str	r3, [r5, #0]
10002648:	f001 f98a 	bl	10003960 <xPortStartScheduler>
1000264c:	4b24      	ldr	r3, [pc, #144]	; (100026e0 <vTaskStartScheduler+0x168>)
1000264e:	681b      	ldr	r3, [r3, #0]
10002650:	bcc0      	pop	{r6, r7}
10002652:	46b9      	mov	r9, r7
10002654:	46b0      	mov	r8, r6
10002656:	bdf8      	pop	{r3, r4, r5, r6, r7, pc}
10002658:	0028      	movs	r0, r5
1000265a:	f001 f8cb 	bl	100037f4 <vPortFree>
1000265e:	e7f5      	b.n	1000264c <vTaskStartScheduler+0xd4>
10002660:	686b      	ldr	r3, [r5, #4]
10002662:	6ae2      	ldr	r2, [r4, #44]	; 0x2c
10002664:	6adb      	ldr	r3, [r3, #44]	; 0x2c
10002666:	4293      	cmp	r3, r2
10002668:	d8c1      	bhi.n	100025ee <vTaskStartScheduler+0x76>
1000266a:	606c      	str	r4, [r5, #4]
1000266c:	e7bf      	b.n	100025ee <vTaskStartScheduler+0x76>
1000266e:	606c      	str	r4, [r5, #4]
10002670:	69b3      	ldr	r3, [r6, #24]
10002672:	2b01      	cmp	r3, #1
10002674:	d1ba      	bne.n	100025ec <vTaskStartScheduler+0x74>
10002676:	231c      	movs	r3, #28
10002678:	4698      	mov	r8, r3
1000267a:	3364      	adds	r3, #100	; 0x64
1000267c:	4699      	mov	r9, r3
1000267e:	44b0      	add	r8, r6
10002680:	44b1      	add	r9, r6
10002682:	4640      	mov	r0, r8
10002684:	f001 f98e 	bl	100039a4 <vListInitialise>
10002688:	2314      	movs	r3, #20
1000268a:	469c      	mov	ip, r3
1000268c:	44e0      	add	r8, ip
1000268e:	45c8      	cmp	r8, r9
10002690:	d1f7      	bne.n	10002682 <vTaskStartScheduler+0x10a>
10002692:	3320      	adds	r3, #32
10002694:	4699      	mov	r9, r3
10002696:	44a9      	add	r9, r5
10002698:	4648      	mov	r0, r9
1000269a:	f001 f983 	bl	100039a4 <vListInitialise>
1000269e:	2348      	movs	r3, #72	; 0x48
100026a0:	4698      	mov	r8, r3
100026a2:	44a8      	add	r8, r5
100026a4:	4640      	mov	r0, r8
100026a6:	f001 f97d 	bl	100039a4 <vListInitialise>
100026aa:	0028      	movs	r0, r5
100026ac:	305c      	adds	r0, #92	; 0x5c
100026ae:	f001 f979 	bl	100039a4 <vListInitialise>
100026b2:	1d30      	adds	r0, r6, #4
100026b4:	f001 f976 	bl	100039a4 <vListInitialise>
100026b8:	0028      	movs	r0, r5
100026ba:	3008      	adds	r0, #8
100026bc:	f001 f972 	bl	100039a4 <vListInitialise>
100026c0:	464b      	mov	r3, r9
100026c2:	622b      	str	r3, [r5, #32]
100026c4:	4643      	mov	r3, r8
100026c6:	61eb      	str	r3, [r5, #28]
100026c8:	e790      	b.n	100025ec <vTaskStartScheduler+0x74>
100026ca:	f001 f8d7 	bl	1000387c <vPortYield>
100026ce:	e7b0      	b.n	10002632 <vTaskStartScheduler+0xba>
100026d0:	454c4449 	.word	0x454c4449
100026d4:	10001d79 	.word	0x10001d79
100026d8:	20000e74 	.word	0x20000e74
100026dc:	20000df4 	.word	0x20000df4
100026e0:	20000224 	.word	0x20000224

100026e4 <vTaskEndScheduler>:
100026e4:	b510      	push	{r4, lr}
100026e6:	b672      	cpsid	i
100026e8:	2200      	movs	r2, #0
100026ea:	4b02      	ldr	r3, [pc, #8]	; (100026f4 <vTaskEndScheduler+0x10>)
100026ec:	671a      	str	r2, [r3, #112]	; 0x70
100026ee:	f001 f8c3 	bl	10003878 <vPortEndScheduler>
100026f2:	bd10      	pop	{r4, pc}
100026f4:	20000e74 	.word	0x20000e74

100026f8 <vTaskSuspendAll>:
100026f8:	4a02      	ldr	r2, [pc, #8]	; (10002704 <vTaskSuspendAll+0xc>)
100026fa:	6f93      	ldr	r3, [r2, #120]	; 0x78
100026fc:	3301      	adds	r3, #1
100026fe:	6793      	str	r3, [r2, #120]	; 0x78
10002700:	4770      	bx	lr
10002702:	46c0      	nop			; (mov r8, r8)
10002704:	20000e74 	.word	0x20000e74

10002708 <xTaskResumeAll>:
10002708:	b5f0      	push	{r4, r5, r6, r7, lr}
1000270a:	46d6      	mov	lr, sl
1000270c:	464f      	mov	r7, r9
1000270e:	4646      	mov	r6, r8
10002710:	b5c0      	push	{r6, r7, lr}
10002712:	f001 f8bf 	bl	10003894 <vPortEnterCritical>
10002716:	4c46      	ldr	r4, [pc, #280]	; (10002830 <xTaskResumeAll+0x128>)
10002718:	6fa3      	ldr	r3, [r4, #120]	; 0x78
1000271a:	3b01      	subs	r3, #1
1000271c:	67a3      	str	r3, [r4, #120]	; 0x78
1000271e:	6fa3      	ldr	r3, [r4, #120]	; 0x78
10002720:	2b00      	cmp	r3, #0
10002722:	d16b      	bne.n	100027fc <xTaskResumeAll+0xf4>
10002724:	4b43      	ldr	r3, [pc, #268]	; (10002834 <xTaskResumeAll+0x12c>)
10002726:	469a      	mov	sl, r3
10002728:	699b      	ldr	r3, [r3, #24]
1000272a:	2b00      	cmp	r3, #0
1000272c:	d066      	beq.n	100027fc <xTaskResumeAll+0xf4>
1000272e:	6de3      	ldr	r3, [r4, #92]	; 0x5c
10002730:	2b00      	cmp	r3, #0
10002732:	d048      	beq.n	100027c6 <xTaskResumeAll+0xbe>
10002734:	2300      	movs	r3, #0
10002736:	4699      	mov	r9, r3
10002738:	331c      	adds	r3, #28
1000273a:	4698      	mov	r8, r3
1000273c:	3b1b      	subs	r3, #27
1000273e:	469c      	mov	ip, r3
10002740:	44d0      	add	r8, sl
10002742:	6ea3      	ldr	r3, [r4, #104]	; 0x68
10002744:	68db      	ldr	r3, [r3, #12]
10002746:	69d8      	ldr	r0, [r3, #28]
10002748:	6a19      	ldr	r1, [r3, #32]
1000274a:	6a9a      	ldr	r2, [r3, #40]	; 0x28
1000274c:	6081      	str	r1, [r0, #8]
1000274e:	6048      	str	r0, [r1, #4]
10002750:	0018      	movs	r0, r3
10002752:	6856      	ldr	r6, [r2, #4]
10002754:	3018      	adds	r0, #24
10002756:	4286      	cmp	r6, r0
10002758:	d05f      	beq.n	1000281a <xTaskResumeAll+0x112>
1000275a:	4649      	mov	r1, r9
1000275c:	6299      	str	r1, [r3, #40]	; 0x28
1000275e:	6811      	ldr	r1, [r2, #0]
10002760:	3901      	subs	r1, #1
10002762:	6011      	str	r1, [r2, #0]
10002764:	695a      	ldr	r2, [r3, #20]
10002766:	6898      	ldr	r0, [r3, #8]
10002768:	68d9      	ldr	r1, [r3, #12]
1000276a:	1d1f      	adds	r7, r3, #4
1000276c:	6081      	str	r1, [r0, #8]
1000276e:	6048      	str	r0, [r1, #4]
10002770:	6850      	ldr	r0, [r2, #4]
10002772:	42b8      	cmp	r0, r7
10002774:	d04f      	beq.n	10002816 <xTaskResumeAll+0x10e>
10002776:	6811      	ldr	r1, [r2, #0]
10002778:	3901      	subs	r1, #1
1000277a:	6011      	str	r1, [r2, #0]
1000277c:	6ae2      	ldr	r2, [r4, #44]	; 0x2c
1000277e:	6ad9      	ldr	r1, [r3, #44]	; 0x2c
10002780:	4291      	cmp	r1, r2
10002782:	d900      	bls.n	10002786 <xTaskResumeAll+0x7e>
10002784:	62e1      	str	r1, [r4, #44]	; 0x2c
10002786:	4650      	mov	r0, sl
10002788:	008a      	lsls	r2, r1, #2
1000278a:	1852      	adds	r2, r2, r1
1000278c:	0092      	lsls	r2, r2, #2
1000278e:	1886      	adds	r6, r0, r2
10002790:	6a30      	ldr	r0, [r6, #32]
10002792:	4442      	add	r2, r8
10002794:	6885      	ldr	r5, [r0, #8]
10002796:	6098      	str	r0, [r3, #8]
10002798:	60dd      	str	r5, [r3, #12]
1000279a:	6885      	ldr	r5, [r0, #8]
1000279c:	606f      	str	r7, [r5, #4]
1000279e:	6087      	str	r7, [r0, #8]
100027a0:	615a      	str	r2, [r3, #20]
100027a2:	69f3      	ldr	r3, [r6, #28]
100027a4:	3301      	adds	r3, #1
100027a6:	61f3      	str	r3, [r6, #28]
100027a8:	6863      	ldr	r3, [r4, #4]
100027aa:	6adb      	ldr	r3, [r3, #44]	; 0x2c
100027ac:	4299      	cmp	r1, r3
100027ae:	d32e      	bcc.n	1000280e <xTaskResumeAll+0x106>
100027b0:	4663      	mov	r3, ip
100027b2:	6323      	str	r3, [r4, #48]	; 0x30
100027b4:	6de3      	ldr	r3, [r4, #92]	; 0x5c
100027b6:	2b00      	cmp	r3, #0
100027b8:	d1c3      	bne.n	10002742 <xTaskResumeAll+0x3a>
100027ba:	6a23      	ldr	r3, [r4, #32]
100027bc:	681b      	ldr	r3, [r3, #0]
100027be:	2b00      	cmp	r3, #0
100027c0:	d12d      	bne.n	1000281e <xTaskResumeAll+0x116>
100027c2:	3b01      	subs	r3, #1
100027c4:	6263      	str	r3, [r4, #36]	; 0x24
100027c6:	4e1c      	ldr	r6, [pc, #112]	; (10002838 <xTaskResumeAll+0x130>)
100027c8:	6835      	ldr	r5, [r6, #0]
100027ca:	2d00      	cmp	r5, #0
100027cc:	d013      	beq.n	100027f6 <xTaskResumeAll+0xee>
100027ce:	2701      	movs	r7, #1
100027d0:	e007      	b.n	100027e2 <xTaskResumeAll+0xda>
100027d2:	f7ff fb2f 	bl	10001e34 <xTaskIncrementTick.part.0>
100027d6:	2800      	cmp	r0, #0
100027d8:	d000      	beq.n	100027dc <xTaskResumeAll+0xd4>
100027da:	6327      	str	r7, [r4, #48]	; 0x30
100027dc:	3d01      	subs	r5, #1
100027de:	2d00      	cmp	r5, #0
100027e0:	d008      	beq.n	100027f4 <xTaskResumeAll+0xec>
100027e2:	6fa3      	ldr	r3, [r4, #120]	; 0x78
100027e4:	2b00      	cmp	r3, #0
100027e6:	d0f4      	beq.n	100027d2 <xTaskResumeAll+0xca>
100027e8:	6833      	ldr	r3, [r6, #0]
100027ea:	3d01      	subs	r5, #1
100027ec:	3301      	adds	r3, #1
100027ee:	6033      	str	r3, [r6, #0]
100027f0:	2d00      	cmp	r5, #0
100027f2:	d1f6      	bne.n	100027e2 <xTaskResumeAll+0xda>
100027f4:	6035      	str	r5, [r6, #0]
100027f6:	6b23      	ldr	r3, [r4, #48]	; 0x30
100027f8:	2b00      	cmp	r3, #0
100027fa:	d115      	bne.n	10002828 <xTaskResumeAll+0x120>
100027fc:	2400      	movs	r4, #0
100027fe:	f001 f855 	bl	100038ac <vPortExitCritical>
10002802:	0020      	movs	r0, r4
10002804:	bce0      	pop	{r5, r6, r7}
10002806:	46ba      	mov	sl, r7
10002808:	46b1      	mov	r9, r6
1000280a:	46a8      	mov	r8, r5
1000280c:	bdf0      	pop	{r4, r5, r6, r7, pc}
1000280e:	6de3      	ldr	r3, [r4, #92]	; 0x5c
10002810:	2b00      	cmp	r3, #0
10002812:	d196      	bne.n	10002742 <xTaskResumeAll+0x3a>
10002814:	e7d1      	b.n	100027ba <xTaskResumeAll+0xb2>
10002816:	6051      	str	r1, [r2, #4]
10002818:	e7ad      	b.n	10002776 <xTaskResumeAll+0x6e>
1000281a:	6051      	str	r1, [r2, #4]
1000281c:	e79d      	b.n	1000275a <xTaskResumeAll+0x52>
1000281e:	6a23      	ldr	r3, [r4, #32]
10002820:	68db      	ldr	r3, [r3, #12]
10002822:	681b      	ldr	r3, [r3, #0]
10002824:	6263      	str	r3, [r4, #36]	; 0x24
10002826:	e7ce      	b.n	100027c6 <xTaskResumeAll+0xbe>
10002828:	f001 f828 	bl	1000387c <vPortYield>
1000282c:	2401      	movs	r4, #1
1000282e:	e7e6      	b.n	100027fe <xTaskResumeAll+0xf6>
10002830:	20000e74 	.word	0x20000e74
10002834:	20000df4 	.word	0x20000df4
10002838:	20000ef4 	.word	0x20000ef4

1000283c <xTaskDelayUntil>:
1000283c:	b5f8      	push	{r3, r4, r5, r6, r7, lr}
1000283e:	4e1d      	ldr	r6, [pc, #116]	; (100028b4 <xTaskDelayUntil+0x78>)
10002840:	6fb3      	ldr	r3, [r6, #120]	; 0x78
10002842:	3301      	adds	r3, #1
10002844:	67b3      	str	r3, [r6, #120]	; 0x78
10002846:	6802      	ldr	r2, [r0, #0]
10002848:	6835      	ldr	r5, [r6, #0]
1000284a:	1854      	adds	r4, r2, r1
1000284c:	6004      	str	r4, [r0, #0]
1000284e:	42aa      	cmp	r2, r5
10002850:	d908      	bls.n	10002864 <xTaskDelayUntil+0x28>
10002852:	42a2      	cmp	r2, r4
10002854:	d808      	bhi.n	10002868 <xTaskDelayUntil+0x2c>
10002856:	2500      	movs	r5, #0
10002858:	f7ff ff56 	bl	10002708 <xTaskResumeAll>
1000285c:	2800      	cmp	r0, #0
1000285e:	d01a      	beq.n	10002896 <xTaskDelayUntil+0x5a>
10002860:	0028      	movs	r0, r5
10002862:	bdf8      	pop	{r3, r4, r5, r6, r7, pc}
10002864:	42a2      	cmp	r2, r4
10002866:	d801      	bhi.n	1000286c <xTaskDelayUntil+0x30>
10002868:	42a5      	cmp	r5, r4
1000286a:	d2f4      	bcs.n	10002856 <xTaskDelayUntil+0x1a>
1000286c:	6837      	ldr	r7, [r6, #0]
1000286e:	6870      	ldr	r0, [r6, #4]
10002870:	1b7d      	subs	r5, r7, r5
10002872:	3004      	adds	r0, #4
10002874:	f001 f8ca 	bl	10003a0c <uxListRemove>
10002878:	6873      	ldr	r3, [r6, #4]
1000287a:	1964      	adds	r4, r4, r5
1000287c:	605c      	str	r4, [r3, #4]
1000287e:	42a7      	cmp	r7, r4
10002880:	d90c      	bls.n	1000289c <xTaskDelayUntil+0x60>
10002882:	69f0      	ldr	r0, [r6, #28]
10002884:	6871      	ldr	r1, [r6, #4]
10002886:	2501      	movs	r5, #1
10002888:	3104      	adds	r1, #4
1000288a:	f001 f8a7 	bl	100039dc <vListInsert>
1000288e:	f7ff ff3b 	bl	10002708 <xTaskResumeAll>
10002892:	2800      	cmp	r0, #0
10002894:	d1e4      	bne.n	10002860 <xTaskDelayUntil+0x24>
10002896:	f000 fff1 	bl	1000387c <vPortYield>
1000289a:	e7e1      	b.n	10002860 <xTaskDelayUntil+0x24>
1000289c:	6a30      	ldr	r0, [r6, #32]
1000289e:	6871      	ldr	r1, [r6, #4]
100028a0:	2501      	movs	r5, #1
100028a2:	3104      	adds	r1, #4
100028a4:	f001 f89a 	bl	100039dc <vListInsert>
100028a8:	6a73      	ldr	r3, [r6, #36]	; 0x24
100028aa:	429c      	cmp	r4, r3
100028ac:	d2d4      	bcs.n	10002858 <xTaskDelayUntil+0x1c>
100028ae:	6274      	str	r4, [r6, #36]	; 0x24
100028b0:	e7d2      	b.n	10002858 <xTaskDelayUntil+0x1c>
100028b2:	46c0      	nop			; (mov r8, r8)
100028b4:	20000e74 	.word	0x20000e74

100028b8 <vTaskDelay>:
100028b8:	b570      	push	{r4, r5, r6, lr}
100028ba:	1e04      	subs	r4, r0, #0
100028bc:	d016      	beq.n	100028ec <vTaskDelay+0x34>
100028be:	4d12      	ldr	r5, [pc, #72]	; (10002908 <vTaskDelay+0x50>)
100028c0:	6fab      	ldr	r3, [r5, #120]	; 0x78
100028c2:	3301      	adds	r3, #1
100028c4:	67ab      	str	r3, [r5, #120]	; 0x78
100028c6:	682e      	ldr	r6, [r5, #0]
100028c8:	6868      	ldr	r0, [r5, #4]
100028ca:	19a4      	adds	r4, r4, r6
100028cc:	3004      	adds	r0, #4
100028ce:	f001 f89d 	bl	10003a0c <uxListRemove>
100028d2:	686b      	ldr	r3, [r5, #4]
100028d4:	605c      	str	r4, [r3, #4]
100028d6:	42a6      	cmp	r6, r4
100028d8:	d90b      	bls.n	100028f2 <vTaskDelay+0x3a>
100028da:	69e8      	ldr	r0, [r5, #28]
100028dc:	6869      	ldr	r1, [r5, #4]
100028de:	3104      	adds	r1, #4
100028e0:	f001 f87c 	bl	100039dc <vListInsert>
100028e4:	f7ff ff10 	bl	10002708 <xTaskResumeAll>
100028e8:	2800      	cmp	r0, #0
100028ea:	d101      	bne.n	100028f0 <vTaskDelay+0x38>
100028ec:	f000 ffc6 	bl	1000387c <vPortYield>
100028f0:	bd70      	pop	{r4, r5, r6, pc}
100028f2:	6a28      	ldr	r0, [r5, #32]
100028f4:	6869      	ldr	r1, [r5, #4]
100028f6:	3104      	adds	r1, #4
100028f8:	f001 f870 	bl	100039dc <vListInsert>
100028fc:	6a6b      	ldr	r3, [r5, #36]	; 0x24
100028fe:	429c      	cmp	r4, r3
10002900:	d2f0      	bcs.n	100028e4 <vTaskDelay+0x2c>
10002902:	626c      	str	r4, [r5, #36]	; 0x24
10002904:	e7ee      	b.n	100028e4 <vTaskDelay+0x2c>
10002906:	46c0      	nop			; (mov r8, r8)
10002908:	20000e74 	.word	0x20000e74

1000290c <xTaskGetTickCount>:
1000290c:	4b01      	ldr	r3, [pc, #4]	; (10002914 <xTaskGetTickCount+0x8>)
1000290e:	6818      	ldr	r0, [r3, #0]
10002910:	4770      	bx	lr
10002912:	46c0      	nop			; (mov r8, r8)
10002914:	20000e74 	.word	0x20000e74

10002918 <xTaskGetTickCountFromISR>:
10002918:	4b01      	ldr	r3, [pc, #4]	; (10002920 <xTaskGetTickCountFromISR+0x8>)
1000291a:	6818      	ldr	r0, [r3, #0]
1000291c:	4770      	bx	lr
1000291e:	46c0      	nop			; (mov r8, r8)
10002920:	20000e74 	.word	0x20000e74

10002924 <uxTaskGetNumberOfTasks>:
10002924:	4b01      	ldr	r3, [pc, #4]	; (1000292c <uxTaskGetNumberOfTasks+0x8>)
10002926:	6998      	ldr	r0, [r3, #24]
10002928:	4770      	bx	lr
1000292a:	46c0      	nop			; (mov r8, r8)
1000292c:	20000df4 	.word	0x20000df4

10002930 <pcTaskGetName>:
10002930:	2800      	cmp	r0, #0
10002932:	d001      	beq.n	10002938 <pcTaskGetName+0x8>
10002934:	3034      	adds	r0, #52	; 0x34
10002936:	4770      	bx	lr
10002938:	4b01      	ldr	r3, [pc, #4]	; (10002940 <pcTaskGetName+0x10>)
1000293a:	6858      	ldr	r0, [r3, #4]
1000293c:	e7fa      	b.n	10002934 <pcTaskGetName+0x4>
1000293e:	46c0      	nop			; (mov r8, r8)
10002940:	20000e74 	.word	0x20000e74

10002944 <xTaskCatchUpTicks>:
10002944:	4a08      	ldr	r2, [pc, #32]	; (10002968 <xTaskCatchUpTicks+0x24>)
10002946:	b510      	push	{r4, lr}
10002948:	6f93      	ldr	r3, [r2, #120]	; 0x78
1000294a:	0004      	movs	r4, r0
1000294c:	3301      	adds	r3, #1
1000294e:	6793      	str	r3, [r2, #120]	; 0x78
10002950:	f000 ffa0 	bl	10003894 <vPortEnterCritical>
10002954:	4b05      	ldr	r3, [pc, #20]	; (1000296c <xTaskCatchUpTicks+0x28>)
10002956:	6818      	ldr	r0, [r3, #0]
10002958:	1900      	adds	r0, r0, r4
1000295a:	6018      	str	r0, [r3, #0]
1000295c:	f000 ffa6 	bl	100038ac <vPortExitCritical>
10002960:	f7ff fed2 	bl	10002708 <xTaskResumeAll>
10002964:	bd10      	pop	{r4, pc}
10002966:	46c0      	nop			; (mov r8, r8)
10002968:	20000e74 	.word	0x20000e74
1000296c:	20000ef4 	.word	0x20000ef4

10002970 <xTaskIncrementTick>:
10002970:	4b06      	ldr	r3, [pc, #24]	; (1000298c <xTaskIncrementTick+0x1c>)
10002972:	b510      	push	{r4, lr}
10002974:	6f9b      	ldr	r3, [r3, #120]	; 0x78
10002976:	2b00      	cmp	r3, #0
10002978:	d102      	bne.n	10002980 <xTaskIncrementTick+0x10>
1000297a:	f7ff fa5b 	bl	10001e34 <xTaskIncrementTick.part.0>
1000297e:	bd10      	pop	{r4, pc}
10002980:	4a03      	ldr	r2, [pc, #12]	; (10002990 <xTaskIncrementTick+0x20>)
10002982:	2000      	movs	r0, #0
10002984:	6813      	ldr	r3, [r2, #0]
10002986:	3301      	adds	r3, #1
10002988:	6013      	str	r3, [r2, #0]
1000298a:	e7f8      	b.n	1000297e <xTaskIncrementTick+0xe>
1000298c:	20000e74 	.word	0x20000e74
10002990:	20000ef4 	.word	0x20000ef4

10002994 <vTaskSwitchContext>:
10002994:	4826      	ldr	r0, [pc, #152]	; (10002a30 <vTaskSwitchContext+0x9c>)
10002996:	b530      	push	{r4, r5, lr}
10002998:	6f83      	ldr	r3, [r0, #120]	; 0x78
1000299a:	2b00      	cmp	r3, #0
1000299c:	d002      	beq.n	100029a4 <vTaskSwitchContext+0x10>
1000299e:	2301      	movs	r3, #1
100029a0:	6303      	str	r3, [r0, #48]	; 0x30
100029a2:	bd30      	pop	{r4, r5, pc}
100029a4:	6303      	str	r3, [r0, #48]	; 0x30
100029a6:	6ac1      	ldr	r1, [r0, #44]	; 0x2c
100029a8:	4a22      	ldr	r2, [pc, #136]	; (10002a34 <vTaskSwitchContext+0xa0>)
100029aa:	008b      	lsls	r3, r1, #2
100029ac:	185c      	adds	r4, r3, r1
100029ae:	00a4      	lsls	r4, r4, #2
100029b0:	1914      	adds	r4, r2, r4
100029b2:	69e4      	ldr	r4, [r4, #28]
100029b4:	2c00      	cmp	r4, #0
100029b6:	d125      	bne.n	10002a04 <vTaskSwitchContext+0x70>
100029b8:	1e4d      	subs	r5, r1, #1
100029ba:	00ab      	lsls	r3, r5, #2
100029bc:	195c      	adds	r4, r3, r5
100029be:	00a4      	lsls	r4, r4, #2
100029c0:	1914      	adds	r4, r2, r4
100029c2:	69e4      	ldr	r4, [r4, #28]
100029c4:	2c00      	cmp	r4, #0
100029c6:	d12b      	bne.n	10002a20 <vTaskSwitchContext+0x8c>
100029c8:	1e8d      	subs	r5, r1, #2
100029ca:	00ab      	lsls	r3, r5, #2
100029cc:	195c      	adds	r4, r3, r5
100029ce:	00a4      	lsls	r4, r4, #2
100029d0:	1914      	adds	r4, r2, r4
100029d2:	69e4      	ldr	r4, [r4, #28]
100029d4:	2c00      	cmp	r4, #0
100029d6:	d123      	bne.n	10002a20 <vTaskSwitchContext+0x8c>
100029d8:	1ecd      	subs	r5, r1, #3
100029da:	00ab      	lsls	r3, r5, #2
100029dc:	195c      	adds	r4, r3, r5
100029de:	00a4      	lsls	r4, r4, #2
100029e0:	1914      	adds	r4, r2, r4
100029e2:	69e4      	ldr	r4, [r4, #28]
100029e4:	2c00      	cmp	r4, #0
100029e6:	d11b      	bne.n	10002a20 <vTaskSwitchContext+0x8c>
100029e8:	1f0d      	subs	r5, r1, #4
100029ea:	00ab      	lsls	r3, r5, #2
100029ec:	195c      	adds	r4, r3, r5
100029ee:	00a4      	lsls	r4, r4, #2
100029f0:	1914      	adds	r4, r2, r4
100029f2:	69e4      	ldr	r4, [r4, #28]
100029f4:	2c00      	cmp	r4, #0
100029f6:	d113      	bne.n	10002a20 <vTaskSwitchContext+0x8c>
100029f8:	3905      	subs	r1, #5
100029fa:	008b      	lsls	r3, r1, #2
100029fc:	185c      	adds	r4, r3, r1
100029fe:	00a4      	lsls	r4, r4, #2
10002a00:	1914      	adds	r4, r2, r4
10002a02:	69e4      	ldr	r4, [r4, #28]
10002a04:	185b      	adds	r3, r3, r1
10002a06:	009b      	lsls	r3, r3, #2
10002a08:	18d5      	adds	r5, r2, r3
10002a0a:	002b      	movs	r3, r5
10002a0c:	6a2c      	ldr	r4, [r5, #32]
10002a0e:	3324      	adds	r3, #36	; 0x24
10002a10:	6864      	ldr	r4, [r4, #4]
10002a12:	622c      	str	r4, [r5, #32]
10002a14:	429c      	cmp	r4, r3
10002a16:	d005      	beq.n	10002a24 <vTaskSwitchContext+0x90>
10002a18:	68e3      	ldr	r3, [r4, #12]
10002a1a:	6043      	str	r3, [r0, #4]
10002a1c:	62c1      	str	r1, [r0, #44]	; 0x2c
10002a1e:	e7c0      	b.n	100029a2 <vTaskSwitchContext+0xe>
10002a20:	0029      	movs	r1, r5
10002a22:	e7ef      	b.n	10002a04 <vTaskSwitchContext+0x70>
10002a24:	6864      	ldr	r4, [r4, #4]
10002a26:	68e3      	ldr	r3, [r4, #12]
10002a28:	622c      	str	r4, [r5, #32]
10002a2a:	6043      	str	r3, [r0, #4]
10002a2c:	62c1      	str	r1, [r0, #44]	; 0x2c
10002a2e:	e7b8      	b.n	100029a2 <vTaskSwitchContext+0xe>
10002a30:	20000e74 	.word	0x20000e74
10002a34:	20000df4 	.word	0x20000df4

10002a38 <vTaskPlaceOnEventList>:
10002a38:	b570      	push	{r4, r5, r6, lr}
10002a3a:	000d      	movs	r5, r1
10002a3c:	4c1a      	ldr	r4, [pc, #104]	; (10002aa8 <vTaskPlaceOnEventList+0x70>)
10002a3e:	6861      	ldr	r1, [r4, #4]
10002a40:	3118      	adds	r1, #24
10002a42:	f000 ffcb 	bl	100039dc <vListInsert>
10002a46:	6826      	ldr	r6, [r4, #0]
10002a48:	6860      	ldr	r0, [r4, #4]
10002a4a:	3004      	adds	r0, #4
10002a4c:	f000 ffde 	bl	10003a0c <uxListRemove>
10002a50:	1c6b      	adds	r3, r5, #1
10002a52:	d014      	beq.n	10002a7e <vTaskPlaceOnEventList+0x46>
10002a54:	6863      	ldr	r3, [r4, #4]
10002a56:	19ad      	adds	r5, r5, r6
10002a58:	605d      	str	r5, [r3, #4]
10002a5a:	42ae      	cmp	r6, r5
10002a5c:	d905      	bls.n	10002a6a <vTaskPlaceOnEventList+0x32>
10002a5e:	69e0      	ldr	r0, [r4, #28]
10002a60:	6861      	ldr	r1, [r4, #4]
10002a62:	3104      	adds	r1, #4
10002a64:	f000 ffba 	bl	100039dc <vListInsert>
10002a68:	bd70      	pop	{r4, r5, r6, pc}
10002a6a:	6a20      	ldr	r0, [r4, #32]
10002a6c:	6861      	ldr	r1, [r4, #4]
10002a6e:	3104      	adds	r1, #4
10002a70:	f000 ffb4 	bl	100039dc <vListInsert>
10002a74:	6a63      	ldr	r3, [r4, #36]	; 0x24
10002a76:	429d      	cmp	r5, r3
10002a78:	d2f6      	bcs.n	10002a68 <vTaskPlaceOnEventList+0x30>
10002a7a:	6265      	str	r5, [r4, #36]	; 0x24
10002a7c:	e7f4      	b.n	10002a68 <vTaskPlaceOnEventList+0x30>
10002a7e:	6862      	ldr	r2, [r4, #4]
10002a80:	68e3      	ldr	r3, [r4, #12]
10002a82:	6899      	ldr	r1, [r3, #8]
10002a84:	6093      	str	r3, [r2, #8]
10002a86:	6862      	ldr	r2, [r4, #4]
10002a88:	60d1      	str	r1, [r2, #12]
10002a8a:	6862      	ldr	r2, [r4, #4]
10002a8c:	6899      	ldr	r1, [r3, #8]
10002a8e:	3204      	adds	r2, #4
10002a90:	604a      	str	r2, [r1, #4]
10002a92:	6862      	ldr	r2, [r4, #4]
10002a94:	3204      	adds	r2, #4
10002a96:	609a      	str	r2, [r3, #8]
10002a98:	0022      	movs	r2, r4
10002a9a:	6863      	ldr	r3, [r4, #4]
10002a9c:	3208      	adds	r2, #8
10002a9e:	615a      	str	r2, [r3, #20]
10002aa0:	68a3      	ldr	r3, [r4, #8]
10002aa2:	3301      	adds	r3, #1
10002aa4:	60a3      	str	r3, [r4, #8]
10002aa6:	e7df      	b.n	10002a68 <vTaskPlaceOnEventList+0x30>
10002aa8:	20000e74 	.word	0x20000e74

10002aac <vTaskPlaceOnUnorderedEventList>:
10002aac:	2380      	movs	r3, #128	; 0x80
10002aae:	b570      	push	{r4, r5, r6, lr}
10002ab0:	0015      	movs	r5, r2
10002ab2:	4c24      	ldr	r4, [pc, #144]	; (10002b44 <vTaskPlaceOnUnorderedEventList+0x98>)
10002ab4:	061b      	lsls	r3, r3, #24
10002ab6:	6862      	ldr	r2, [r4, #4]
10002ab8:	430b      	orrs	r3, r1
10002aba:	6193      	str	r3, [r2, #24]
10002abc:	6843      	ldr	r3, [r0, #4]
10002abe:	6862      	ldr	r2, [r4, #4]
10002ac0:	6899      	ldr	r1, [r3, #8]
10002ac2:	61d3      	str	r3, [r2, #28]
10002ac4:	6862      	ldr	r2, [r4, #4]
10002ac6:	6211      	str	r1, [r2, #32]
10002ac8:	6862      	ldr	r2, [r4, #4]
10002aca:	6899      	ldr	r1, [r3, #8]
10002acc:	3218      	adds	r2, #24
10002ace:	604a      	str	r2, [r1, #4]
10002ad0:	6862      	ldr	r2, [r4, #4]
10002ad2:	3218      	adds	r2, #24
10002ad4:	609a      	str	r2, [r3, #8]
10002ad6:	6863      	ldr	r3, [r4, #4]
10002ad8:	6298      	str	r0, [r3, #40]	; 0x28
10002ada:	6803      	ldr	r3, [r0, #0]
10002adc:	3301      	adds	r3, #1
10002ade:	6003      	str	r3, [r0, #0]
10002ae0:	6826      	ldr	r6, [r4, #0]
10002ae2:	6860      	ldr	r0, [r4, #4]
10002ae4:	3004      	adds	r0, #4
10002ae6:	f000 ff91 	bl	10003a0c <uxListRemove>
10002aea:	1c6b      	adds	r3, r5, #1
10002aec:	d014      	beq.n	10002b18 <vTaskPlaceOnUnorderedEventList+0x6c>
10002aee:	6863      	ldr	r3, [r4, #4]
10002af0:	19ad      	adds	r5, r5, r6
10002af2:	605d      	str	r5, [r3, #4]
10002af4:	42ae      	cmp	r6, r5
10002af6:	d905      	bls.n	10002b04 <vTaskPlaceOnUnorderedEventList+0x58>
10002af8:	69e0      	ldr	r0, [r4, #28]
10002afa:	6861      	ldr	r1, [r4, #4]
10002afc:	3104      	adds	r1, #4
10002afe:	f000 ff6d 	bl	100039dc <vListInsert>
10002b02:	bd70      	pop	{r4, r5, r6, pc}
10002b04:	6a20      	ldr	r0, [r4, #32]
10002b06:	6861      	ldr	r1, [r4, #4]
10002b08:	3104      	adds	r1, #4
10002b0a:	f000 ff67 	bl	100039dc <vListInsert>
10002b0e:	6a63      	ldr	r3, [r4, #36]	; 0x24
10002b10:	429d      	cmp	r5, r3
10002b12:	d2f6      	bcs.n	10002b02 <vTaskPlaceOnUnorderedEventList+0x56>
10002b14:	6265      	str	r5, [r4, #36]	; 0x24
10002b16:	e7f4      	b.n	10002b02 <vTaskPlaceOnUnorderedEventList+0x56>
10002b18:	6862      	ldr	r2, [r4, #4]
10002b1a:	68e3      	ldr	r3, [r4, #12]
10002b1c:	6899      	ldr	r1, [r3, #8]
10002b1e:	6093      	str	r3, [r2, #8]
10002b20:	6862      	ldr	r2, [r4, #4]
10002b22:	60d1      	str	r1, [r2, #12]
10002b24:	6862      	ldr	r2, [r4, #4]
10002b26:	6899      	ldr	r1, [r3, #8]
10002b28:	3204      	adds	r2, #4
10002b2a:	604a      	str	r2, [r1, #4]
10002b2c:	6862      	ldr	r2, [r4, #4]
10002b2e:	3204      	adds	r2, #4
10002b30:	609a      	str	r2, [r3, #8]
10002b32:	0022      	movs	r2, r4
10002b34:	6863      	ldr	r3, [r4, #4]
10002b36:	3208      	adds	r2, #8
10002b38:	615a      	str	r2, [r3, #20]
10002b3a:	68a3      	ldr	r3, [r4, #8]
10002b3c:	3301      	adds	r3, #1
10002b3e:	60a3      	str	r3, [r4, #8]
10002b40:	e7df      	b.n	10002b02 <vTaskPlaceOnUnorderedEventList+0x56>
10002b42:	46c0      	nop			; (mov r8, r8)
10002b44:	20000e74 	.word	0x20000e74

10002b48 <vTaskPlaceOnEventListRestricted>:
10002b48:	b570      	push	{r4, r5, r6, lr}
10002b4a:	4c25      	ldr	r4, [pc, #148]	; (10002be0 <vTaskPlaceOnEventListRestricted+0x98>)
10002b4c:	6843      	ldr	r3, [r0, #4]
10002b4e:	000d      	movs	r5, r1
10002b50:	6861      	ldr	r1, [r4, #4]
10002b52:	689e      	ldr	r6, [r3, #8]
10002b54:	61cb      	str	r3, [r1, #28]
10002b56:	6861      	ldr	r1, [r4, #4]
10002b58:	620e      	str	r6, [r1, #32]
10002b5a:	6861      	ldr	r1, [r4, #4]
10002b5c:	689e      	ldr	r6, [r3, #8]
10002b5e:	3118      	adds	r1, #24
10002b60:	6071      	str	r1, [r6, #4]
10002b62:	6861      	ldr	r1, [r4, #4]
10002b64:	3118      	adds	r1, #24
10002b66:	6099      	str	r1, [r3, #8]
10002b68:	6863      	ldr	r3, [r4, #4]
10002b6a:	6298      	str	r0, [r3, #40]	; 0x28
10002b6c:	6803      	ldr	r3, [r0, #0]
10002b6e:	3301      	adds	r3, #1
10002b70:	6003      	str	r3, [r0, #0]
10002b72:	2a00      	cmp	r2, #0
10002b74:	d019      	beq.n	10002baa <vTaskPlaceOnEventListRestricted+0x62>
10002b76:	6823      	ldr	r3, [r4, #0]
10002b78:	6860      	ldr	r0, [r4, #4]
10002b7a:	3004      	adds	r0, #4
10002b7c:	f000 ff46 	bl	10003a0c <uxListRemove>
10002b80:	6862      	ldr	r2, [r4, #4]
10002b82:	68e3      	ldr	r3, [r4, #12]
10002b84:	6899      	ldr	r1, [r3, #8]
10002b86:	6093      	str	r3, [r2, #8]
10002b88:	6862      	ldr	r2, [r4, #4]
10002b8a:	60d1      	str	r1, [r2, #12]
10002b8c:	6862      	ldr	r2, [r4, #4]
10002b8e:	6899      	ldr	r1, [r3, #8]
10002b90:	3204      	adds	r2, #4
10002b92:	604a      	str	r2, [r1, #4]
10002b94:	6862      	ldr	r2, [r4, #4]
10002b96:	3204      	adds	r2, #4
10002b98:	609a      	str	r2, [r3, #8]
10002b9a:	0022      	movs	r2, r4
10002b9c:	6863      	ldr	r3, [r4, #4]
10002b9e:	3208      	adds	r2, #8
10002ba0:	615a      	str	r2, [r3, #20]
10002ba2:	68a3      	ldr	r3, [r4, #8]
10002ba4:	3301      	adds	r3, #1
10002ba6:	60a3      	str	r3, [r4, #8]
10002ba8:	bd70      	pop	{r4, r5, r6, pc}
10002baa:	6826      	ldr	r6, [r4, #0]
10002bac:	6860      	ldr	r0, [r4, #4]
10002bae:	19ad      	adds	r5, r5, r6
10002bb0:	3004      	adds	r0, #4
10002bb2:	f000 ff2b 	bl	10003a0c <uxListRemove>
10002bb6:	6863      	ldr	r3, [r4, #4]
10002bb8:	605d      	str	r5, [r3, #4]
10002bba:	42ae      	cmp	r6, r5
10002bbc:	d809      	bhi.n	10002bd2 <vTaskPlaceOnEventListRestricted+0x8a>
10002bbe:	6a20      	ldr	r0, [r4, #32]
10002bc0:	6861      	ldr	r1, [r4, #4]
10002bc2:	3104      	adds	r1, #4
10002bc4:	f000 ff0a 	bl	100039dc <vListInsert>
10002bc8:	6a63      	ldr	r3, [r4, #36]	; 0x24
10002bca:	429d      	cmp	r5, r3
10002bcc:	d2ec      	bcs.n	10002ba8 <vTaskPlaceOnEventListRestricted+0x60>
10002bce:	6265      	str	r5, [r4, #36]	; 0x24
10002bd0:	e7ea      	b.n	10002ba8 <vTaskPlaceOnEventListRestricted+0x60>
10002bd2:	69e0      	ldr	r0, [r4, #28]
10002bd4:	6861      	ldr	r1, [r4, #4]
10002bd6:	3104      	adds	r1, #4
10002bd8:	f000 ff00 	bl	100039dc <vListInsert>
10002bdc:	e7e4      	b.n	10002ba8 <vTaskPlaceOnEventListRestricted+0x60>
10002bde:	46c0      	nop			; (mov r8, r8)
10002be0:	20000e74 	.word	0x20000e74

10002be4 <xTaskRemoveFromEventList>:
10002be4:	68c3      	ldr	r3, [r0, #12]
10002be6:	b5f0      	push	{r4, r5, r6, r7, lr}
10002be8:	68db      	ldr	r3, [r3, #12]
10002bea:	69d8      	ldr	r0, [r3, #28]
10002bec:	6a19      	ldr	r1, [r3, #32]
10002bee:	6a9a      	ldr	r2, [r3, #40]	; 0x28
10002bf0:	6081      	str	r1, [r0, #8]
10002bf2:	6048      	str	r0, [r1, #4]
10002bf4:	0018      	movs	r0, r3
10002bf6:	6854      	ldr	r4, [r2, #4]
10002bf8:	3018      	adds	r0, #24
10002bfa:	4284      	cmp	r4, r0
10002bfc:	d047      	beq.n	10002c8e <xTaskRemoveFromEventList+0xaa>
10002bfe:	2100      	movs	r1, #0
10002c00:	6299      	str	r1, [r3, #40]	; 0x28
10002c02:	6811      	ldr	r1, [r2, #0]
10002c04:	3901      	subs	r1, #1
10002c06:	6011      	str	r1, [r2, #0]
10002c08:	4a26      	ldr	r2, [pc, #152]	; (10002ca4 <xTaskRemoveFromEventList+0xc0>)
10002c0a:	6f91      	ldr	r1, [r2, #120]	; 0x78
10002c0c:	2900      	cmp	r1, #0
10002c0e:	d12d      	bne.n	10002c6c <xTaskRemoveFromEventList+0x88>
10002c10:	6898      	ldr	r0, [r3, #8]
10002c12:	68dc      	ldr	r4, [r3, #12]
10002c14:	6959      	ldr	r1, [r3, #20]
10002c16:	6084      	str	r4, [r0, #8]
10002c18:	68dc      	ldr	r4, [r3, #12]
10002c1a:	1d1f      	adds	r7, r3, #4
10002c1c:	6060      	str	r0, [r4, #4]
10002c1e:	6848      	ldr	r0, [r1, #4]
10002c20:	42b8      	cmp	r0, r7
10002c22:	d036      	beq.n	10002c92 <xTaskRemoveFromEventList+0xae>
10002c24:	6808      	ldr	r0, [r1, #0]
10002c26:	3801      	subs	r0, #1
10002c28:	6008      	str	r0, [r1, #0]
10002c2a:	6ad0      	ldr	r0, [r2, #44]	; 0x2c
10002c2c:	6ad9      	ldr	r1, [r3, #44]	; 0x2c
10002c2e:	4281      	cmp	r1, r0
10002c30:	d82b      	bhi.n	10002c8a <xTaskRemoveFromEventList+0xa6>
10002c32:	481d      	ldr	r0, [pc, #116]	; (10002ca8 <xTaskRemoveFromEventList+0xc4>)
10002c34:	008c      	lsls	r4, r1, #2
10002c36:	4684      	mov	ip, r0
10002c38:	1864      	adds	r4, r4, r1
10002c3a:	00a4      	lsls	r4, r4, #2
10002c3c:	1906      	adds	r6, r0, r4
10002c3e:	6a35      	ldr	r5, [r6, #32]
10002c40:	68a8      	ldr	r0, [r5, #8]
10002c42:	609d      	str	r5, [r3, #8]
10002c44:	60d8      	str	r0, [r3, #12]
10002c46:	68a8      	ldr	r0, [r5, #8]
10002c48:	6047      	str	r7, [r0, #4]
10002c4a:	4660      	mov	r0, ip
10002c4c:	301c      	adds	r0, #28
10002c4e:	1900      	adds	r0, r0, r4
10002c50:	60af      	str	r7, [r5, #8]
10002c52:	6158      	str	r0, [r3, #20]
10002c54:	69f3      	ldr	r3, [r6, #28]
10002c56:	3301      	adds	r3, #1
10002c58:	61f3      	str	r3, [r6, #28]
10002c5a:	6853      	ldr	r3, [r2, #4]
10002c5c:	2000      	movs	r0, #0
10002c5e:	6adb      	ldr	r3, [r3, #44]	; 0x2c
10002c60:	428b      	cmp	r3, r1
10002c62:	d202      	bcs.n	10002c6a <xTaskRemoveFromEventList+0x86>
10002c64:	2301      	movs	r3, #1
10002c66:	3001      	adds	r0, #1
10002c68:	6313      	str	r3, [r2, #48]	; 0x30
10002c6a:	bdf0      	pop	{r4, r5, r6, r7, pc}
10002c6c:	6e11      	ldr	r1, [r2, #96]	; 0x60
10002c6e:	688c      	ldr	r4, [r1, #8]
10002c70:	61d9      	str	r1, [r3, #28]
10002c72:	621c      	str	r4, [r3, #32]
10002c74:	688c      	ldr	r4, [r1, #8]
10002c76:	6060      	str	r0, [r4, #4]
10002c78:	6088      	str	r0, [r1, #8]
10002c7a:	0011      	movs	r1, r2
10002c7c:	315c      	adds	r1, #92	; 0x5c
10002c7e:	6299      	str	r1, [r3, #40]	; 0x28
10002c80:	6dd1      	ldr	r1, [r2, #92]	; 0x5c
10002c82:	3101      	adds	r1, #1
10002c84:	65d1      	str	r1, [r2, #92]	; 0x5c
10002c86:	6ad9      	ldr	r1, [r3, #44]	; 0x2c
10002c88:	e7e7      	b.n	10002c5a <xTaskRemoveFromEventList+0x76>
10002c8a:	62d1      	str	r1, [r2, #44]	; 0x2c
10002c8c:	e7d1      	b.n	10002c32 <xTaskRemoveFromEventList+0x4e>
10002c8e:	6051      	str	r1, [r2, #4]
10002c90:	e7b5      	b.n	10002bfe <xTaskRemoveFromEventList+0x1a>
10002c92:	6808      	ldr	r0, [r1, #0]
10002c94:	604c      	str	r4, [r1, #4]
10002c96:	3801      	subs	r0, #1
10002c98:	6008      	str	r0, [r1, #0]
10002c9a:	6ad0      	ldr	r0, [r2, #44]	; 0x2c
10002c9c:	6ad9      	ldr	r1, [r3, #44]	; 0x2c
10002c9e:	4281      	cmp	r1, r0
10002ca0:	d9c7      	bls.n	10002c32 <xTaskRemoveFromEventList+0x4e>
10002ca2:	e7f2      	b.n	10002c8a <xTaskRemoveFromEventList+0xa6>
10002ca4:	20000e74 	.word	0x20000e74
10002ca8:	20000df4 	.word	0x20000df4

10002cac <vTaskRemoveFromUnorderedEventList>:
10002cac:	2380      	movs	r3, #128	; 0x80
10002cae:	061b      	lsls	r3, r3, #24
10002cb0:	b5f0      	push	{r4, r5, r6, r7, lr}
10002cb2:	430b      	orrs	r3, r1
10002cb4:	6884      	ldr	r4, [r0, #8]
10002cb6:	6841      	ldr	r1, [r0, #4]
10002cb8:	6902      	ldr	r2, [r0, #16]
10002cba:	6003      	str	r3, [r0, #0]
10002cbc:	68c3      	ldr	r3, [r0, #12]
10002cbe:	608c      	str	r4, [r1, #8]
10002cc0:	6884      	ldr	r4, [r0, #8]
10002cc2:	6061      	str	r1, [r4, #4]
10002cc4:	6851      	ldr	r1, [r2, #4]
10002cc6:	4281      	cmp	r1, r0
10002cc8:	d032      	beq.n	10002d30 <vTaskRemoveFromUnorderedEventList+0x84>
10002cca:	2100      	movs	r1, #0
10002ccc:	6101      	str	r1, [r0, #16]
10002cce:	6811      	ldr	r1, [r2, #0]
10002cd0:	68d8      	ldr	r0, [r3, #12]
10002cd2:	3901      	subs	r1, #1
10002cd4:	6011      	str	r1, [r2, #0]
10002cd6:	6899      	ldr	r1, [r3, #8]
10002cd8:	695a      	ldr	r2, [r3, #20]
10002cda:	6088      	str	r0, [r1, #8]
10002cdc:	68d8      	ldr	r0, [r3, #12]
10002cde:	1d1f      	adds	r7, r3, #4
10002ce0:	6041      	str	r1, [r0, #4]
10002ce2:	6851      	ldr	r1, [r2, #4]
10002ce4:	42b9      	cmp	r1, r7
10002ce6:	d025      	beq.n	10002d34 <vTaskRemoveFromUnorderedEventList+0x88>
10002ce8:	6811      	ldr	r1, [r2, #0]
10002cea:	4d13      	ldr	r5, [pc, #76]	; (10002d38 <vTaskRemoveFromUnorderedEventList+0x8c>)
10002cec:	3901      	subs	r1, #1
10002cee:	6011      	str	r1, [r2, #0]
10002cf0:	6ad8      	ldr	r0, [r3, #44]	; 0x2c
10002cf2:	6aea      	ldr	r2, [r5, #44]	; 0x2c
10002cf4:	4290      	cmp	r0, r2
10002cf6:	d900      	bls.n	10002cfa <vTaskRemoveFromUnorderedEventList+0x4e>
10002cf8:	62e8      	str	r0, [r5, #44]	; 0x2c
10002cfa:	4a10      	ldr	r2, [pc, #64]	; (10002d3c <vTaskRemoveFromUnorderedEventList+0x90>)
10002cfc:	0081      	lsls	r1, r0, #2
10002cfe:	4694      	mov	ip, r2
10002d00:	1809      	adds	r1, r1, r0
10002d02:	0089      	lsls	r1, r1, #2
10002d04:	1856      	adds	r6, r2, r1
10002d06:	6a34      	ldr	r4, [r6, #32]
10002d08:	68a2      	ldr	r2, [r4, #8]
10002d0a:	609c      	str	r4, [r3, #8]
10002d0c:	60da      	str	r2, [r3, #12]
10002d0e:	68a2      	ldr	r2, [r4, #8]
10002d10:	6057      	str	r7, [r2, #4]
10002d12:	4662      	mov	r2, ip
10002d14:	321c      	adds	r2, #28
10002d16:	1852      	adds	r2, r2, r1
10002d18:	60a7      	str	r7, [r4, #8]
10002d1a:	615a      	str	r2, [r3, #20]
10002d1c:	69f3      	ldr	r3, [r6, #28]
10002d1e:	3301      	adds	r3, #1
10002d20:	61f3      	str	r3, [r6, #28]
10002d22:	686b      	ldr	r3, [r5, #4]
10002d24:	6adb      	ldr	r3, [r3, #44]	; 0x2c
10002d26:	4298      	cmp	r0, r3
10002d28:	d901      	bls.n	10002d2e <vTaskRemoveFromUnorderedEventList+0x82>
10002d2a:	2301      	movs	r3, #1
10002d2c:	632b      	str	r3, [r5, #48]	; 0x30
10002d2e:	bdf0      	pop	{r4, r5, r6, r7, pc}
10002d30:	6054      	str	r4, [r2, #4]
10002d32:	e7ca      	b.n	10002cca <vTaskRemoveFromUnorderedEventList+0x1e>
10002d34:	6050      	str	r0, [r2, #4]
10002d36:	e7d7      	b.n	10002ce8 <vTaskRemoveFromUnorderedEventList+0x3c>
10002d38:	20000e74 	.word	0x20000e74
10002d3c:	20000df4 	.word	0x20000df4

10002d40 <vTaskSetTimeOutState>:
10002d40:	b510      	push	{r4, lr}
10002d42:	0004      	movs	r4, r0
10002d44:	f000 fda6 	bl	10003894 <vPortEnterCritical>
10002d48:	4b03      	ldr	r3, [pc, #12]	; (10002d58 <vTaskSetTimeOutState+0x18>)
10002d4a:	6a9a      	ldr	r2, [r3, #40]	; 0x28
10002d4c:	681b      	ldr	r3, [r3, #0]
10002d4e:	6022      	str	r2, [r4, #0]
10002d50:	6063      	str	r3, [r4, #4]
10002d52:	f000 fdab 	bl	100038ac <vPortExitCritical>
10002d56:	bd10      	pop	{r4, pc}
10002d58:	20000e74 	.word	0x20000e74

10002d5c <vTaskInternalSetTimeOutState>:
10002d5c:	4b02      	ldr	r3, [pc, #8]	; (10002d68 <vTaskInternalSetTimeOutState+0xc>)
10002d5e:	6a9a      	ldr	r2, [r3, #40]	; 0x28
10002d60:	681b      	ldr	r3, [r3, #0]
10002d62:	6002      	str	r2, [r0, #0]
10002d64:	6043      	str	r3, [r0, #4]
10002d66:	4770      	bx	lr
10002d68:	20000e74 	.word	0x20000e74

10002d6c <xTaskCheckForTimeOut>:
10002d6c:	b5f8      	push	{r3, r4, r5, r6, r7, lr}
10002d6e:	000d      	movs	r5, r1
10002d70:	0004      	movs	r4, r0
10002d72:	f000 fd8f 	bl	10003894 <vPortEnterCritical>
10002d76:	4a10      	ldr	r2, [pc, #64]	; (10002db8 <xTaskCheckForTimeOut+0x4c>)
10002d78:	682b      	ldr	r3, [r5, #0]
10002d7a:	6811      	ldr	r1, [r2, #0]
10002d7c:	1c58      	adds	r0, r3, #1
10002d7e:	d019      	beq.n	10002db4 <xTaskCheckForTimeOut+0x48>
10002d80:	6a96      	ldr	r6, [r2, #40]	; 0x28
10002d82:	6827      	ldr	r7, [r4, #0]
10002d84:	6860      	ldr	r0, [r4, #4]
10002d86:	42b7      	cmp	r7, r6
10002d88:	d008      	beq.n	10002d9c <xTaskCheckForTimeOut+0x30>
10002d8a:	4288      	cmp	r0, r1
10002d8c:	d806      	bhi.n	10002d9c <xTaskCheckForTimeOut+0x30>
10002d8e:	2300      	movs	r3, #0
10002d90:	2401      	movs	r4, #1
10002d92:	602b      	str	r3, [r5, #0]
10002d94:	f000 fd8a 	bl	100038ac <vPortExitCritical>
10002d98:	0020      	movs	r0, r4
10002d9a:	bdf8      	pop	{r3, r4, r5, r6, r7, pc}
10002d9c:	1a0e      	subs	r6, r1, r0
10002d9e:	42b3      	cmp	r3, r6
10002da0:	d9f5      	bls.n	10002d8e <xTaskCheckForTimeOut+0x22>
10002da2:	1a5b      	subs	r3, r3, r1
10002da4:	181b      	adds	r3, r3, r0
10002da6:	602b      	str	r3, [r5, #0]
10002da8:	6a93      	ldr	r3, [r2, #40]	; 0x28
10002daa:	6023      	str	r3, [r4, #0]
10002dac:	6813      	ldr	r3, [r2, #0]
10002dae:	6063      	str	r3, [r4, #4]
10002db0:	2400      	movs	r4, #0
10002db2:	e7ef      	b.n	10002d94 <xTaskCheckForTimeOut+0x28>
10002db4:	2400      	movs	r4, #0
10002db6:	e7ed      	b.n	10002d94 <xTaskCheckForTimeOut+0x28>
10002db8:	20000e74 	.word	0x20000e74

10002dbc <vTaskMissedYield>:
10002dbc:	2201      	movs	r2, #1
10002dbe:	4b01      	ldr	r3, [pc, #4]	; (10002dc4 <vTaskMissedYield+0x8>)
10002dc0:	631a      	str	r2, [r3, #48]	; 0x30
10002dc2:	4770      	bx	lr
10002dc4:	20000e74 	.word	0x20000e74

10002dc8 <vTaskSetThreadLocalStoragePointer>:
10002dc8:	2904      	cmp	r1, #4
10002dca:	dc05      	bgt.n	10002dd8 <vTaskSetThreadLocalStoragePointer+0x10>
10002dcc:	2800      	cmp	r0, #0
10002dce:	d004      	beq.n	10002dda <vTaskSetThreadLocalStoragePointer+0x12>
10002dd0:	3110      	adds	r1, #16
10002dd2:	0089      	lsls	r1, r1, #2
10002dd4:	1841      	adds	r1, r0, r1
10002dd6:	604a      	str	r2, [r1, #4]
10002dd8:	4770      	bx	lr
10002dda:	4b01      	ldr	r3, [pc, #4]	; (10002de0 <vTaskSetThreadLocalStoragePointer+0x18>)
10002ddc:	6858      	ldr	r0, [r3, #4]
10002dde:	e7f7      	b.n	10002dd0 <vTaskSetThreadLocalStoragePointer+0x8>
10002de0:	20000e74 	.word	0x20000e74

10002de4 <pvTaskGetThreadLocalStoragePointer>:
10002de4:	2904      	cmp	r1, #4
10002de6:	dc09      	bgt.n	10002dfc <pvTaskGetThreadLocalStoragePointer+0x18>
10002de8:	2800      	cmp	r0, #0
10002dea:	d004      	beq.n	10002df6 <pvTaskGetThreadLocalStoragePointer+0x12>
10002dec:	3110      	adds	r1, #16
10002dee:	0089      	lsls	r1, r1, #2
10002df0:	1841      	adds	r1, r0, r1
10002df2:	6848      	ldr	r0, [r1, #4]
10002df4:	4770      	bx	lr
10002df6:	4b02      	ldr	r3, [pc, #8]	; (10002e00 <pvTaskGetThreadLocalStoragePointer+0x1c>)
10002df8:	6858      	ldr	r0, [r3, #4]
10002dfa:	e7f7      	b.n	10002dec <pvTaskGetThreadLocalStoragePointer+0x8>
10002dfc:	2000      	movs	r0, #0
10002dfe:	e7f9      	b.n	10002df4 <pvTaskGetThreadLocalStoragePointer+0x10>
10002e00:	20000e74 	.word	0x20000e74

10002e04 <xTaskGetCurrentTaskHandle>:
10002e04:	4b01      	ldr	r3, [pc, #4]	; (10002e0c <xTaskGetCurrentTaskHandle+0x8>)
10002e06:	6858      	ldr	r0, [r3, #4]
10002e08:	4770      	bx	lr
10002e0a:	46c0      	nop			; (mov r8, r8)
10002e0c:	20000e74 	.word	0x20000e74

10002e10 <xTaskGetSchedulerState>:
10002e10:	4b04      	ldr	r3, [pc, #16]	; (10002e24 <xTaskGetSchedulerState+0x14>)
10002e12:	2001      	movs	r0, #1
10002e14:	6f1a      	ldr	r2, [r3, #112]	; 0x70
10002e16:	2a00      	cmp	r2, #0
10002e18:	d003      	beq.n	10002e22 <xTaskGetSchedulerState+0x12>
10002e1a:	6f98      	ldr	r0, [r3, #120]	; 0x78
10002e1c:	4243      	negs	r3, r0
10002e1e:	4158      	adcs	r0, r3
10002e20:	0040      	lsls	r0, r0, #1
10002e22:	4770      	bx	lr
10002e24:	20000e74 	.word	0x20000e74

10002e28 <uxTaskResetEventItemValue>:
10002e28:	4b04      	ldr	r3, [pc, #16]	; (10002e3c <uxTaskResetEventItemValue+0x14>)
10002e2a:	685a      	ldr	r2, [r3, #4]
10002e2c:	6859      	ldr	r1, [r3, #4]
10002e2e:	6990      	ldr	r0, [r2, #24]
10002e30:	685a      	ldr	r2, [r3, #4]
10002e32:	2305      	movs	r3, #5
10002e34:	6ac9      	ldr	r1, [r1, #44]	; 0x2c
10002e36:	1a5b      	subs	r3, r3, r1
10002e38:	6193      	str	r3, [r2, #24]
10002e3a:	4770      	bx	lr
10002e3c:	20000e74 	.word	0x20000e74

10002e40 <ulTaskGenericNotifyTake>:
10002e40:	b5f0      	push	{r4, r5, r6, r7, lr}
10002e42:	0004      	movs	r4, r0
10002e44:	46c6      	mov	lr, r8
10002e46:	0025      	movs	r5, r4
10002e48:	b500      	push	{lr}
10002e4a:	0017      	movs	r7, r2
10002e4c:	4688      	mov	r8, r1
10002e4e:	f000 fd21 	bl	10003894 <vPortEnterCritical>
10002e52:	4e19      	ldr	r6, [pc, #100]	; (10002eb8 <ulTaskGenericNotifyTake+0x78>)
10002e54:	3516      	adds	r5, #22
10002e56:	6873      	ldr	r3, [r6, #4]
10002e58:	00aa      	lsls	r2, r5, #2
10002e5a:	58d3      	ldr	r3, [r2, r3]
10002e5c:	2b00      	cmp	r3, #0
10002e5e:	d106      	bne.n	10002e6e <ulTaskGenericNotifyTake+0x2e>
10002e60:	2201      	movs	r2, #1
10002e62:	6873      	ldr	r3, [r6, #4]
10002e64:	191b      	adds	r3, r3, r4
10002e66:	3364      	adds	r3, #100	; 0x64
10002e68:	701a      	strb	r2, [r3, #0]
10002e6a:	2f00      	cmp	r7, #0
10002e6c:	d11d      	bne.n	10002eaa <ulTaskGenericNotifyTake+0x6a>
10002e6e:	f000 fd1d 	bl	100038ac <vPortExitCritical>
10002e72:	f000 fd0f 	bl	10003894 <vPortEnterCritical>
10002e76:	6873      	ldr	r3, [r6, #4]
10002e78:	00ad      	lsls	r5, r5, #2
10002e7a:	58ef      	ldr	r7, [r5, r3]
10002e7c:	2f00      	cmp	r7, #0
10002e7e:	d005      	beq.n	10002e8c <ulTaskGenericNotifyTake+0x4c>
10002e80:	4643      	mov	r3, r8
10002e82:	2b00      	cmp	r3, #0
10002e84:	d00d      	beq.n	10002ea2 <ulTaskGenericNotifyTake+0x62>
10002e86:	2200      	movs	r2, #0
10002e88:	6873      	ldr	r3, [r6, #4]
10002e8a:	50ea      	str	r2, [r5, r3]
10002e8c:	2300      	movs	r3, #0
10002e8e:	6870      	ldr	r0, [r6, #4]
10002e90:	1900      	adds	r0, r0, r4
10002e92:	3064      	adds	r0, #100	; 0x64
10002e94:	7003      	strb	r3, [r0, #0]
10002e96:	f000 fd09 	bl	100038ac <vPortExitCritical>
10002e9a:	0038      	movs	r0, r7
10002e9c:	bc80      	pop	{r7}
10002e9e:	46b8      	mov	r8, r7
10002ea0:	bdf0      	pop	{r4, r5, r6, r7, pc}
10002ea2:	6873      	ldr	r3, [r6, #4]
10002ea4:	1e7a      	subs	r2, r7, #1
10002ea6:	50ea      	str	r2, [r5, r3]
10002ea8:	e7f0      	b.n	10002e8c <ulTaskGenericNotifyTake+0x4c>
10002eaa:	2101      	movs	r1, #1
10002eac:	0038      	movs	r0, r7
10002eae:	f7fe ff87 	bl	10001dc0 <prvAddCurrentTaskToDelayedList>
10002eb2:	f000 fce3 	bl	1000387c <vPortYield>
10002eb6:	e7da      	b.n	10002e6e <ulTaskGenericNotifyTake+0x2e>
10002eb8:	20000e74 	.word	0x20000e74

10002ebc <xTaskGenericNotifyWait>:
10002ebc:	b5f0      	push	{r4, r5, r6, r7, lr}
10002ebe:	46c6      	mov	lr, r8
10002ec0:	0004      	movs	r4, r0
10002ec2:	b500      	push	{lr}
10002ec4:	001f      	movs	r7, r3
10002ec6:	4688      	mov	r8, r1
10002ec8:	0016      	movs	r6, r2
10002eca:	f000 fce3 	bl	10003894 <vPortEnterCritical>
10002ece:	4d21      	ldr	r5, [pc, #132]	; (10002f54 <xTaskGenericNotifyWait+0x98>)
10002ed0:	6868      	ldr	r0, [r5, #4]
10002ed2:	1900      	adds	r0, r0, r4
10002ed4:	3064      	adds	r0, #100	; 0x64
10002ed6:	7803      	ldrb	r3, [r0, #0]
10002ed8:	2b02      	cmp	r3, #2
10002eda:	d00e      	beq.n	10002efa <xTaskGenericNotifyWait+0x3e>
10002edc:	4641      	mov	r1, r8
10002ede:	686b      	ldr	r3, [r5, #4]
10002ee0:	00a2      	lsls	r2, r4, #2
10002ee2:	189b      	adds	r3, r3, r2
10002ee4:	6d9a      	ldr	r2, [r3, #88]	; 0x58
10002ee6:	438a      	bics	r2, r1
10002ee8:	659a      	str	r2, [r3, #88]	; 0x58
10002eea:	2201      	movs	r2, #1
10002eec:	686b      	ldr	r3, [r5, #4]
10002eee:	191b      	adds	r3, r3, r4
10002ef0:	3364      	adds	r3, #100	; 0x64
10002ef2:	701a      	strb	r2, [r3, #0]
10002ef4:	9b06      	ldr	r3, [sp, #24]
10002ef6:	2b00      	cmp	r3, #0
10002ef8:	d124      	bne.n	10002f44 <xTaskGenericNotifyWait+0x88>
10002efa:	f000 fcd7 	bl	100038ac <vPortExitCritical>
10002efe:	f000 fcc9 	bl	10003894 <vPortEnterCritical>
10002f02:	2f00      	cmp	r7, #0
10002f04:	d005      	beq.n	10002f12 <xTaskGenericNotifyWait+0x56>
10002f06:	0023      	movs	r3, r4
10002f08:	686a      	ldr	r2, [r5, #4]
10002f0a:	3316      	adds	r3, #22
10002f0c:	009b      	lsls	r3, r3, #2
10002f0e:	589b      	ldr	r3, [r3, r2]
10002f10:	603b      	str	r3, [r7, #0]
10002f12:	686b      	ldr	r3, [r5, #4]
10002f14:	2700      	movs	r7, #0
10002f16:	191b      	adds	r3, r3, r4
10002f18:	3364      	adds	r3, #100	; 0x64
10002f1a:	781b      	ldrb	r3, [r3, #0]
10002f1c:	2b02      	cmp	r3, #2
10002f1e:	d106      	bne.n	10002f2e <xTaskGenericNotifyWait+0x72>
10002f20:	686b      	ldr	r3, [r5, #4]
10002f22:	00a2      	lsls	r2, r4, #2
10002f24:	189b      	adds	r3, r3, r2
10002f26:	6d9a      	ldr	r2, [r3, #88]	; 0x58
10002f28:	3701      	adds	r7, #1
10002f2a:	43b2      	bics	r2, r6
10002f2c:	659a      	str	r2, [r3, #88]	; 0x58
10002f2e:	2300      	movs	r3, #0
10002f30:	6868      	ldr	r0, [r5, #4]
10002f32:	1904      	adds	r4, r0, r4
10002f34:	3464      	adds	r4, #100	; 0x64
10002f36:	7023      	strb	r3, [r4, #0]
10002f38:	f000 fcb8 	bl	100038ac <vPortExitCritical>
10002f3c:	0038      	movs	r0, r7
10002f3e:	bc80      	pop	{r7}
10002f40:	46b8      	mov	r8, r7
10002f42:	bdf0      	pop	{r4, r5, r6, r7, pc}
10002f44:	2101      	movs	r1, #1
10002f46:	0018      	movs	r0, r3
10002f48:	f7fe ff3a 	bl	10001dc0 <prvAddCurrentTaskToDelayedList>
10002f4c:	f000 fc96 	bl	1000387c <vPortYield>
10002f50:	e7d3      	b.n	10002efa <xTaskGenericNotifyWait+0x3e>
10002f52:	46c0      	nop			; (mov r8, r8)
10002f54:	20000e74 	.word	0x20000e74

10002f58 <xTaskGenericNotify>:
10002f58:	b5f0      	push	{r4, r5, r6, r7, lr}
10002f5a:	46c6      	mov	lr, r8
10002f5c:	b500      	push	{lr}
10002f5e:	9d06      	ldr	r5, [sp, #24]
10002f60:	0006      	movs	r6, r0
10002f62:	000c      	movs	r4, r1
10002f64:	4690      	mov	r8, r2
10002f66:	001f      	movs	r7, r3
10002f68:	f000 fc94 	bl	10003894 <vPortEnterCritical>
10002f6c:	2d00      	cmp	r5, #0
10002f6e:	d004      	beq.n	10002f7a <xTaskGenericNotify+0x22>
10002f70:	0023      	movs	r3, r4
10002f72:	3316      	adds	r3, #22
10002f74:	009b      	lsls	r3, r3, #2
10002f76:	599b      	ldr	r3, [r3, r6]
10002f78:	602b      	str	r3, [r5, #0]
10002f7a:	2302      	movs	r3, #2
10002f7c:	1931      	adds	r1, r6, r4
10002f7e:	3164      	adds	r1, #100	; 0x64
10002f80:	780d      	ldrb	r5, [r1, #0]
10002f82:	700b      	strb	r3, [r1, #0]
10002f84:	b2ed      	uxtb	r5, r5
10002f86:	2f03      	cmp	r7, #3
10002f88:	d016      	beq.n	10002fb8 <xTaskGenericNotify+0x60>
10002f8a:	d811      	bhi.n	10002fb0 <xTaskGenericNotify+0x58>
10002f8c:	2f01      	cmp	r7, #1
10002f8e:	d046      	beq.n	1000301e <xTaskGenericNotify+0xc6>
10002f90:	2f02      	cmp	r7, #2
10002f92:	d104      	bne.n	10002f9e <xTaskGenericNotify+0x46>
10002f94:	00a4      	lsls	r4, r4, #2
10002f96:	1934      	adds	r4, r6, r4
10002f98:	6da3      	ldr	r3, [r4, #88]	; 0x58
10002f9a:	3301      	adds	r3, #1
10002f9c:	65a3      	str	r3, [r4, #88]	; 0x58
10002f9e:	2d01      	cmp	r5, #1
10002fa0:	d010      	beq.n	10002fc4 <xTaskGenericNotify+0x6c>
10002fa2:	2401      	movs	r4, #1
10002fa4:	f000 fc82 	bl	100038ac <vPortExitCritical>
10002fa8:	0020      	movs	r0, r4
10002faa:	bc80      	pop	{r7}
10002fac:	46b8      	mov	r8, r7
10002fae:	bdf0      	pop	{r4, r5, r6, r7, pc}
10002fb0:	2f04      	cmp	r7, #4
10002fb2:	d1f4      	bne.n	10002f9e <xTaskGenericNotify+0x46>
10002fb4:	2d02      	cmp	r5, #2
10002fb6:	d03b      	beq.n	10003030 <xTaskGenericNotify+0xd8>
10002fb8:	4643      	mov	r3, r8
10002fba:	3416      	adds	r4, #22
10002fbc:	00a4      	lsls	r4, r4, #2
10002fbe:	51a3      	str	r3, [r4, r6]
10002fc0:	2d01      	cmp	r5, #1
10002fc2:	d1ee      	bne.n	10002fa2 <xTaskGenericNotify+0x4a>
10002fc4:	6973      	ldr	r3, [r6, #20]
10002fc6:	68b1      	ldr	r1, [r6, #8]
10002fc8:	68f2      	ldr	r2, [r6, #12]
10002fca:	1d37      	adds	r7, r6, #4
10002fcc:	608a      	str	r2, [r1, #8]
10002fce:	6051      	str	r1, [r2, #4]
10002fd0:	6859      	ldr	r1, [r3, #4]
10002fd2:	42b9      	cmp	r1, r7
10002fd4:	d02e      	beq.n	10003034 <xTaskGenericNotify+0xdc>
10002fd6:	681a      	ldr	r2, [r3, #0]
10002fd8:	4d17      	ldr	r5, [pc, #92]	; (10003038 <xTaskGenericNotify+0xe0>)
10002fda:	3a01      	subs	r2, #1
10002fdc:	601a      	str	r2, [r3, #0]
10002fde:	6af1      	ldr	r1, [r6, #44]	; 0x2c
10002fe0:	6aeb      	ldr	r3, [r5, #44]	; 0x2c
10002fe2:	4299      	cmp	r1, r3
10002fe4:	d900      	bls.n	10002fe8 <xTaskGenericNotify+0x90>
10002fe6:	62e9      	str	r1, [r5, #44]	; 0x2c
10002fe8:	4b14      	ldr	r3, [pc, #80]	; (1000303c <xTaskGenericNotify+0xe4>)
10002fea:	008a      	lsls	r2, r1, #2
10002fec:	469c      	mov	ip, r3
10002fee:	1852      	adds	r2, r2, r1
10002ff0:	0092      	lsls	r2, r2, #2
10002ff2:	189c      	adds	r4, r3, r2
10002ff4:	6a20      	ldr	r0, [r4, #32]
10002ff6:	6883      	ldr	r3, [r0, #8]
10002ff8:	60b0      	str	r0, [r6, #8]
10002ffa:	60f3      	str	r3, [r6, #12]
10002ffc:	6883      	ldr	r3, [r0, #8]
10002ffe:	605f      	str	r7, [r3, #4]
10003000:	4663      	mov	r3, ip
10003002:	331c      	adds	r3, #28
10003004:	189b      	adds	r3, r3, r2
10003006:	6087      	str	r7, [r0, #8]
10003008:	6173      	str	r3, [r6, #20]
1000300a:	69e3      	ldr	r3, [r4, #28]
1000300c:	3301      	adds	r3, #1
1000300e:	61e3      	str	r3, [r4, #28]
10003010:	686b      	ldr	r3, [r5, #4]
10003012:	6adb      	ldr	r3, [r3, #44]	; 0x2c
10003014:	4299      	cmp	r1, r3
10003016:	d9c4      	bls.n	10002fa2 <xTaskGenericNotify+0x4a>
10003018:	f000 fc30 	bl	1000387c <vPortYield>
1000301c:	e7c1      	b.n	10002fa2 <xTaskGenericNotify+0x4a>
1000301e:	4647      	mov	r7, r8
10003020:	00a4      	lsls	r4, r4, #2
10003022:	1934      	adds	r4, r6, r4
10003024:	6da2      	ldr	r2, [r4, #88]	; 0x58
10003026:	4317      	orrs	r7, r2
10003028:	65a7      	str	r7, [r4, #88]	; 0x58
1000302a:	2d01      	cmp	r5, #1
1000302c:	d1b9      	bne.n	10002fa2 <xTaskGenericNotify+0x4a>
1000302e:	e7c9      	b.n	10002fc4 <xTaskGenericNotify+0x6c>
10003030:	2400      	movs	r4, #0
10003032:	e7b7      	b.n	10002fa4 <xTaskGenericNotify+0x4c>
10003034:	605a      	str	r2, [r3, #4]
10003036:	e7ce      	b.n	10002fd6 <xTaskGenericNotify+0x7e>
10003038:	20000e74 	.word	0x20000e74
1000303c:	20000df4 	.word	0x20000df4

10003040 <xTaskGenericNotifyFromISR>:
10003040:	b5f8      	push	{r3, r4, r5, r6, r7, lr}
10003042:	4647      	mov	r7, r8
10003044:	46ce      	mov	lr, r9
10003046:	b580      	push	{r7, lr}
10003048:	9f08      	ldr	r7, [sp, #32]
1000304a:	0006      	movs	r6, r0
1000304c:	000c      	movs	r4, r1
1000304e:	4690      	mov	r8, r2
10003050:	001d      	movs	r5, r3
10003052:	f000 fc35 	bl	100038c0 <ulSetInterruptMaskFromISR>
10003056:	2f00      	cmp	r7, #0
10003058:	d004      	beq.n	10003064 <xTaskGenericNotifyFromISR+0x24>
1000305a:	0023      	movs	r3, r4
1000305c:	3316      	adds	r3, #22
1000305e:	009b      	lsls	r3, r3, #2
10003060:	599b      	ldr	r3, [r3, r6]
10003062:	603b      	str	r3, [r7, #0]
10003064:	2202      	movs	r2, #2
10003066:	1933      	adds	r3, r6, r4
10003068:	3364      	adds	r3, #100	; 0x64
1000306a:	781f      	ldrb	r7, [r3, #0]
1000306c:	701a      	strb	r2, [r3, #0]
1000306e:	b2ff      	uxtb	r7, r7
10003070:	2d03      	cmp	r5, #3
10003072:	d017      	beq.n	100030a4 <xTaskGenericNotifyFromISR+0x64>
10003074:	d812      	bhi.n	1000309c <xTaskGenericNotifyFromISR+0x5c>
10003076:	2d01      	cmp	r5, #1
10003078:	d03b      	beq.n	100030f2 <xTaskGenericNotifyFromISR+0xb2>
1000307a:	2d02      	cmp	r5, #2
1000307c:	d104      	bne.n	10003088 <xTaskGenericNotifyFromISR+0x48>
1000307e:	00a4      	lsls	r4, r4, #2
10003080:	1934      	adds	r4, r6, r4
10003082:	6da3      	ldr	r3, [r4, #88]	; 0x58
10003084:	3301      	adds	r3, #1
10003086:	65a3      	str	r3, [r4, #88]	; 0x58
10003088:	2f01      	cmp	r7, #1
1000308a:	d011      	beq.n	100030b0 <xTaskGenericNotifyFromISR+0x70>
1000308c:	2401      	movs	r4, #1
1000308e:	f000 fc1b 	bl	100038c8 <vClearInterruptMaskFromISR>
10003092:	0020      	movs	r0, r4
10003094:	bcc0      	pop	{r6, r7}
10003096:	46b9      	mov	r9, r7
10003098:	46b0      	mov	r8, r6
1000309a:	bdf8      	pop	{r3, r4, r5, r6, r7, pc}
1000309c:	2d04      	cmp	r5, #4
1000309e:	d1f3      	bne.n	10003088 <xTaskGenericNotifyFromISR+0x48>
100030a0:	2f02      	cmp	r7, #2
100030a2:	d059      	beq.n	10003158 <xTaskGenericNotifyFromISR+0x118>
100030a4:	4643      	mov	r3, r8
100030a6:	3416      	adds	r4, #22
100030a8:	00a4      	lsls	r4, r4, #2
100030aa:	51a3      	str	r3, [r4, r6]
100030ac:	2f01      	cmp	r7, #1
100030ae:	d1ed      	bne.n	1000308c <xTaskGenericNotifyFromISR+0x4c>
100030b0:	4b2b      	ldr	r3, [pc, #172]	; (10003160 <xTaskGenericNotifyFromISR+0x120>)
100030b2:	6f9a      	ldr	r2, [r3, #120]	; 0x78
100030b4:	2a00      	cmp	r2, #0
100030b6:	d025      	beq.n	10003104 <xTaskGenericNotifyFromISR+0xc4>
100030b8:	6e1a      	ldr	r2, [r3, #96]	; 0x60
100030ba:	6891      	ldr	r1, [r2, #8]
100030bc:	61f2      	str	r2, [r6, #28]
100030be:	6231      	str	r1, [r6, #32]
100030c0:	0031      	movs	r1, r6
100030c2:	6894      	ldr	r4, [r2, #8]
100030c4:	3118      	adds	r1, #24
100030c6:	6061      	str	r1, [r4, #4]
100030c8:	6091      	str	r1, [r2, #8]
100030ca:	001a      	movs	r2, r3
100030cc:	325c      	adds	r2, #92	; 0x5c
100030ce:	62b2      	str	r2, [r6, #40]	; 0x28
100030d0:	6dda      	ldr	r2, [r3, #92]	; 0x5c
100030d2:	3201      	adds	r2, #1
100030d4:	65da      	str	r2, [r3, #92]	; 0x5c
100030d6:	6af2      	ldr	r2, [r6, #44]	; 0x2c
100030d8:	6859      	ldr	r1, [r3, #4]
100030da:	6ac9      	ldr	r1, [r1, #44]	; 0x2c
100030dc:	4291      	cmp	r1, r2
100030de:	d2d5      	bcs.n	1000308c <xTaskGenericNotifyFromISR+0x4c>
100030e0:	9a09      	ldr	r2, [sp, #36]	; 0x24
100030e2:	2a00      	cmp	r2, #0
100030e4:	d002      	beq.n	100030ec <xTaskGenericNotifyFromISR+0xac>
100030e6:	0011      	movs	r1, r2
100030e8:	2201      	movs	r2, #1
100030ea:	600a      	str	r2, [r1, #0]
100030ec:	2201      	movs	r2, #1
100030ee:	631a      	str	r2, [r3, #48]	; 0x30
100030f0:	e7cc      	b.n	1000308c <xTaskGenericNotifyFromISR+0x4c>
100030f2:	4643      	mov	r3, r8
100030f4:	00a4      	lsls	r4, r4, #2
100030f6:	1934      	adds	r4, r6, r4
100030f8:	6da2      	ldr	r2, [r4, #88]	; 0x58
100030fa:	431a      	orrs	r2, r3
100030fc:	65a2      	str	r2, [r4, #88]	; 0x58
100030fe:	2f01      	cmp	r7, #1
10003100:	d1c4      	bne.n	1000308c <xTaskGenericNotifyFromISR+0x4c>
10003102:	e7d5      	b.n	100030b0 <xTaskGenericNotifyFromISR+0x70>
10003104:	68b4      	ldr	r4, [r6, #8]
10003106:	68f1      	ldr	r1, [r6, #12]
10003108:	6972      	ldr	r2, [r6, #20]
1000310a:	60a1      	str	r1, [r4, #8]
1000310c:	604c      	str	r4, [r1, #4]
1000310e:	1d34      	adds	r4, r6, #4
10003110:	46a0      	mov	r8, r4
10003112:	6854      	ldr	r4, [r2, #4]
10003114:	4544      	cmp	r4, r8
10003116:	d021      	beq.n	1000315c <xTaskGenericNotifyFromISR+0x11c>
10003118:	6811      	ldr	r1, [r2, #0]
1000311a:	3901      	subs	r1, #1
1000311c:	6011      	str	r1, [r2, #0]
1000311e:	6ad9      	ldr	r1, [r3, #44]	; 0x2c
10003120:	6af2      	ldr	r2, [r6, #44]	; 0x2c
10003122:	428a      	cmp	r2, r1
10003124:	d900      	bls.n	10003128 <xTaskGenericNotifyFromISR+0xe8>
10003126:	62da      	str	r2, [r3, #44]	; 0x2c
10003128:	490e      	ldr	r1, [pc, #56]	; (10003164 <xTaskGenericNotifyFromISR+0x124>)
1000312a:	0094      	lsls	r4, r2, #2
1000312c:	468c      	mov	ip, r1
1000312e:	18a4      	adds	r4, r4, r2
10003130:	00a1      	lsls	r1, r4, #2
10003132:	4689      	mov	r9, r1
10003134:	4667      	mov	r7, ip
10003136:	4644      	mov	r4, r8
10003138:	444f      	add	r7, r9
1000313a:	6a3d      	ldr	r5, [r7, #32]
1000313c:	68a9      	ldr	r1, [r5, #8]
1000313e:	60b5      	str	r5, [r6, #8]
10003140:	60f1      	str	r1, [r6, #12]
10003142:	68a9      	ldr	r1, [r5, #8]
10003144:	604c      	str	r4, [r1, #4]
10003146:	4661      	mov	r1, ip
10003148:	311c      	adds	r1, #28
1000314a:	4449      	add	r1, r9
1000314c:	60ac      	str	r4, [r5, #8]
1000314e:	6171      	str	r1, [r6, #20]
10003150:	69f9      	ldr	r1, [r7, #28]
10003152:	3101      	adds	r1, #1
10003154:	61f9      	str	r1, [r7, #28]
10003156:	e7bf      	b.n	100030d8 <xTaskGenericNotifyFromISR+0x98>
10003158:	2400      	movs	r4, #0
1000315a:	e798      	b.n	1000308e <xTaskGenericNotifyFromISR+0x4e>
1000315c:	6051      	str	r1, [r2, #4]
1000315e:	e7db      	b.n	10003118 <xTaskGenericNotifyFromISR+0xd8>
10003160:	20000e74 	.word	0x20000e74
10003164:	20000df4 	.word	0x20000df4

10003168 <vTaskGenericNotifyGiveFromISR>:
10003168:	b5f0      	push	{r4, r5, r6, r7, lr}
1000316a:	46d6      	mov	lr, sl
1000316c:	4646      	mov	r6, r8
1000316e:	464f      	mov	r7, r9
10003170:	000c      	movs	r4, r1
10003172:	0005      	movs	r5, r0
10003174:	b5c0      	push	{r6, r7, lr}
10003176:	0016      	movs	r6, r2
10003178:	f000 fba2 	bl	100038c0 <ulSetInterruptMaskFromISR>
1000317c:	2102      	movs	r1, #2
1000317e:	192b      	adds	r3, r5, r4
10003180:	3364      	adds	r3, #100	; 0x64
10003182:	00a4      	lsls	r4, r4, #2
10003184:	781a      	ldrb	r2, [r3, #0]
10003186:	192c      	adds	r4, r5, r4
10003188:	7019      	strb	r1, [r3, #0]
1000318a:	6da3      	ldr	r3, [r4, #88]	; 0x58
1000318c:	3301      	adds	r3, #1
1000318e:	65a3      	str	r3, [r4, #88]	; 0x58
10003190:	2a01      	cmp	r2, #1
10003192:	d006      	beq.n	100031a2 <vTaskGenericNotifyGiveFromISR+0x3a>
10003194:	f000 fb98 	bl	100038c8 <vClearInterruptMaskFromISR>
10003198:	bce0      	pop	{r5, r6, r7}
1000319a:	46ba      	mov	sl, r7
1000319c:	46b1      	mov	r9, r6
1000319e:	46a8      	mov	r8, r5
100031a0:	bdf0      	pop	{r4, r5, r6, r7, pc}
100031a2:	4b27      	ldr	r3, [pc, #156]	; (10003240 <vTaskGenericNotifyGiveFromISR+0xd8>)
100031a4:	6f9a      	ldr	r2, [r3, #120]	; 0x78
100031a6:	2a00      	cmp	r2, #0
100031a8:	d01a      	beq.n	100031e0 <vTaskGenericNotifyGiveFromISR+0x78>
100031aa:	6e1a      	ldr	r2, [r3, #96]	; 0x60
100031ac:	6891      	ldr	r1, [r2, #8]
100031ae:	61ea      	str	r2, [r5, #28]
100031b0:	6229      	str	r1, [r5, #32]
100031b2:	0029      	movs	r1, r5
100031b4:	6894      	ldr	r4, [r2, #8]
100031b6:	3118      	adds	r1, #24
100031b8:	6061      	str	r1, [r4, #4]
100031ba:	6091      	str	r1, [r2, #8]
100031bc:	001a      	movs	r2, r3
100031be:	325c      	adds	r2, #92	; 0x5c
100031c0:	62aa      	str	r2, [r5, #40]	; 0x28
100031c2:	6dda      	ldr	r2, [r3, #92]	; 0x5c
100031c4:	3201      	adds	r2, #1
100031c6:	65da      	str	r2, [r3, #92]	; 0x5c
100031c8:	6aea      	ldr	r2, [r5, #44]	; 0x2c
100031ca:	6859      	ldr	r1, [r3, #4]
100031cc:	6ac9      	ldr	r1, [r1, #44]	; 0x2c
100031ce:	4291      	cmp	r1, r2
100031d0:	d2e0      	bcs.n	10003194 <vTaskGenericNotifyGiveFromISR+0x2c>
100031d2:	2e00      	cmp	r6, #0
100031d4:	d001      	beq.n	100031da <vTaskGenericNotifyGiveFromISR+0x72>
100031d6:	2201      	movs	r2, #1
100031d8:	6032      	str	r2, [r6, #0]
100031da:	2201      	movs	r2, #1
100031dc:	631a      	str	r2, [r3, #48]	; 0x30
100031de:	e7d9      	b.n	10003194 <vTaskGenericNotifyGiveFromISR+0x2c>
100031e0:	68ac      	ldr	r4, [r5, #8]
100031e2:	68e9      	ldr	r1, [r5, #12]
100031e4:	696a      	ldr	r2, [r5, #20]
100031e6:	60a1      	str	r1, [r4, #8]
100031e8:	604c      	str	r4, [r1, #4]
100031ea:	1d2c      	adds	r4, r5, #4
100031ec:	46a4      	mov	ip, r4
100031ee:	6854      	ldr	r4, [r2, #4]
100031f0:	4564      	cmp	r4, ip
100031f2:	d022      	beq.n	1000323a <vTaskGenericNotifyGiveFromISR+0xd2>
100031f4:	6811      	ldr	r1, [r2, #0]
100031f6:	3901      	subs	r1, #1
100031f8:	6011      	str	r1, [r2, #0]
100031fa:	6ad9      	ldr	r1, [r3, #44]	; 0x2c
100031fc:	6aea      	ldr	r2, [r5, #44]	; 0x2c
100031fe:	428a      	cmp	r2, r1
10003200:	d900      	bls.n	10003204 <vTaskGenericNotifyGiveFromISR+0x9c>
10003202:	62da      	str	r2, [r3, #44]	; 0x2c
10003204:	490f      	ldr	r1, [pc, #60]	; (10003244 <vTaskGenericNotifyGiveFromISR+0xdc>)
10003206:	0094      	lsls	r4, r2, #2
10003208:	4689      	mov	r9, r1
1000320a:	18a4      	adds	r4, r4, r2
1000320c:	00a1      	lsls	r1, r4, #2
1000320e:	468a      	mov	sl, r1
10003210:	4649      	mov	r1, r9
10003212:	4664      	mov	r4, ip
10003214:	4451      	add	r1, sl
10003216:	6a0f      	ldr	r7, [r1, #32]
10003218:	4688      	mov	r8, r1
1000321a:	68b9      	ldr	r1, [r7, #8]
1000321c:	60af      	str	r7, [r5, #8]
1000321e:	60e9      	str	r1, [r5, #12]
10003220:	68b9      	ldr	r1, [r7, #8]
10003222:	604c      	str	r4, [r1, #4]
10003224:	4649      	mov	r1, r9
10003226:	311c      	adds	r1, #28
10003228:	4451      	add	r1, sl
1000322a:	60bc      	str	r4, [r7, #8]
1000322c:	6169      	str	r1, [r5, #20]
1000322e:	4641      	mov	r1, r8
10003230:	4644      	mov	r4, r8
10003232:	69c9      	ldr	r1, [r1, #28]
10003234:	3101      	adds	r1, #1
10003236:	61e1      	str	r1, [r4, #28]
10003238:	e7c7      	b.n	100031ca <vTaskGenericNotifyGiveFromISR+0x62>
1000323a:	6051      	str	r1, [r2, #4]
1000323c:	e7da      	b.n	100031f4 <vTaskGenericNotifyGiveFromISR+0x8c>
1000323e:	46c0      	nop			; (mov r8, r8)
10003240:	20000e74 	.word	0x20000e74
10003244:	20000df4 	.word	0x20000df4

10003248 <xTaskGenericNotifyStateClear>:
10003248:	b570      	push	{r4, r5, r6, lr}
1000324a:	0004      	movs	r4, r0
1000324c:	000d      	movs	r5, r1
1000324e:	2800      	cmp	r0, #0
10003250:	d00d      	beq.n	1000326e <xTaskGenericNotifyStateClear+0x26>
10003252:	1964      	adds	r4, r4, r5
10003254:	3464      	adds	r4, #100	; 0x64
10003256:	f000 fb1d 	bl	10003894 <vPortEnterCritical>
1000325a:	7823      	ldrb	r3, [r4, #0]
1000325c:	2500      	movs	r5, #0
1000325e:	2b02      	cmp	r3, #2
10003260:	d101      	bne.n	10003266 <xTaskGenericNotifyStateClear+0x1e>
10003262:	7025      	strb	r5, [r4, #0]
10003264:	3501      	adds	r5, #1
10003266:	f000 fb21 	bl	100038ac <vPortExitCritical>
1000326a:	0028      	movs	r0, r5
1000326c:	bd70      	pop	{r4, r5, r6, pc}
1000326e:	4b01      	ldr	r3, [pc, #4]	; (10003274 <xTaskGenericNotifyStateClear+0x2c>)
10003270:	685c      	ldr	r4, [r3, #4]
10003272:	e7ee      	b.n	10003252 <xTaskGenericNotifyStateClear+0xa>
10003274:	20000e74 	.word	0x20000e74

10003278 <ulTaskGenericNotifyValueClear>:
10003278:	b570      	push	{r4, r5, r6, lr}
1000327a:	0004      	movs	r4, r0
1000327c:	000d      	movs	r5, r1
1000327e:	0016      	movs	r6, r2
10003280:	2800      	cmp	r0, #0
10003282:	d00b      	beq.n	1000329c <ulTaskGenericNotifyValueClear+0x24>
10003284:	f000 fb06 	bl	10003894 <vPortEnterCritical>
10003288:	00a8      	lsls	r0, r5, #2
1000328a:	1820      	adds	r0, r4, r0
1000328c:	6d84      	ldr	r4, [r0, #88]	; 0x58
1000328e:	6d83      	ldr	r3, [r0, #88]	; 0x58
10003290:	43b3      	bics	r3, r6
10003292:	6583      	str	r3, [r0, #88]	; 0x58
10003294:	f000 fb0a 	bl	100038ac <vPortExitCritical>
10003298:	0020      	movs	r0, r4
1000329a:	bd70      	pop	{r4, r5, r6, pc}
1000329c:	4b01      	ldr	r3, [pc, #4]	; (100032a4 <ulTaskGenericNotifyValueClear+0x2c>)
1000329e:	685c      	ldr	r4, [r3, #4]
100032a0:	e7f0      	b.n	10003284 <ulTaskGenericNotifyValueClear+0xc>
100032a2:	46c0      	nop			; (mov r8, r8)
100032a4:	20000e74 	.word	0x20000e74

100032a8 <prvTimerTask>:
100032a8:	b5f0      	push	{r4, r5, r6, r7, lr}
100032aa:	4645      	mov	r5, r8
100032ac:	46de      	mov	lr, fp
100032ae:	4657      	mov	r7, sl
100032b0:	464e      	mov	r6, r9
100032b2:	b5e0      	push	{r5, r6, r7, lr}
100032b4:	4dc0      	ldr	r5, [pc, #768]	; (100035b8 <prvTimerTask+0x310>)
100032b6:	b087      	sub	sp, #28
100032b8:	682b      	ldr	r3, [r5, #0]
100032ba:	681c      	ldr	r4, [r3, #0]
100032bc:	2c00      	cmp	r4, #0
100032be:	d100      	bne.n	100032c2 <prvTimerTask+0x1a>
100032c0:	e0d6      	b.n	10003470 <prvTimerTask+0x1c8>
100032c2:	68db      	ldr	r3, [r3, #12]
100032c4:	681c      	ldr	r4, [r3, #0]
100032c6:	f7ff fa17 	bl	100026f8 <vTaskSuspendAll>
100032ca:	f7ff fb1f 	bl	1000290c <xTaskGetTickCount>
100032ce:	686b      	ldr	r3, [r5, #4]
100032d0:	4681      	mov	r9, r0
100032d2:	4298      	cmp	r0, r3
100032d4:	d200      	bcs.n	100032d8 <prvTimerTask+0x30>
100032d6:	e0da      	b.n	1000348e <prvTimerTask+0x1e6>
100032d8:	6068      	str	r0, [r5, #4]
100032da:	4284      	cmp	r4, r0
100032dc:	d800      	bhi.n	100032e0 <prvTimerTask+0x38>
100032de:	e12e      	b.n	1000353e <prvTimerTask+0x296>
100032e0:	2200      	movs	r2, #0
100032e2:	464b      	mov	r3, r9
100032e4:	68e8      	ldr	r0, [r5, #12]
100032e6:	1ae1      	subs	r1, r4, r3
100032e8:	f001 fc38 	bl	10004b5c <vQueueWaitForMessageRestricted>
100032ec:	f7ff fa0c 	bl	10002708 <xTaskResumeAll>
100032f0:	2800      	cmp	r0, #0
100032f2:	d100      	bne.n	100032f6 <prvTimerTask+0x4e>
100032f4:	e115      	b.n	10003522 <prvTimerTask+0x27a>
100032f6:	2324      	movs	r3, #36	; 0x24
100032f8:	469a      	mov	sl, r3
100032fa:	2200      	movs	r2, #0
100032fc:	68e8      	ldr	r0, [r5, #12]
100032fe:	a903      	add	r1, sp, #12
10003300:	f000 fe80 	bl	10004004 <xQueueReceive>
10003304:	2800      	cmp	r0, #0
10003306:	d0d7      	beq.n	100032b8 <prvTimerTask+0x10>
10003308:	9b03      	ldr	r3, [sp, #12]
1000330a:	9301      	str	r3, [sp, #4]
1000330c:	2b00      	cmp	r3, #0
1000330e:	dbf4      	blt.n	100032fa <prvTimerTask+0x52>
10003310:	9b05      	ldr	r3, [sp, #20]
10003312:	4698      	mov	r8, r3
10003314:	695b      	ldr	r3, [r3, #20]
10003316:	2b00      	cmp	r3, #0
10003318:	d003      	beq.n	10003322 <prvTimerTask+0x7a>
1000331a:	4643      	mov	r3, r8
1000331c:	1d18      	adds	r0, r3, #4
1000331e:	f000 fb75 	bl	10003a0c <uxListRemove>
10003322:	f7ff faf3 	bl	1000290c <xTaskGetTickCount>
10003326:	686b      	ldr	r3, [r5, #4]
10003328:	4683      	mov	fp, r0
1000332a:	4298      	cmp	r0, r3
1000332c:	d30f      	bcc.n	1000334e <prvTimerTask+0xa6>
1000332e:	465b      	mov	r3, fp
10003330:	606b      	str	r3, [r5, #4]
10003332:	9b03      	ldr	r3, [sp, #12]
10003334:	2b09      	cmp	r3, #9
10003336:	d8e0      	bhi.n	100032fa <prvTimerTask+0x52>
10003338:	4aa0      	ldr	r2, [pc, #640]	; (100035bc <prvTimerTask+0x314>)
1000333a:	009b      	lsls	r3, r3, #2
1000333c:	58d3      	ldr	r3, [r2, r3]
1000333e:	469f      	mov	pc, r3
10003340:	2201      	movs	r2, #1
10003342:	4393      	bics	r3, r2
10003344:	4652      	mov	r2, sl
10003346:	54a3      	strb	r3, [r4, r2]
10003348:	0020      	movs	r0, r4
1000334a:	6a23      	ldr	r3, [r4, #32]
1000334c:	4798      	blx	r3
1000334e:	682b      	ldr	r3, [r5, #0]
10003350:	681a      	ldr	r2, [r3, #0]
10003352:	2a00      	cmp	r2, #0
10003354:	d100      	bne.n	10003358 <prvTimerTask+0xb0>
10003356:	e0e0      	b.n	1000351a <prvTimerTask+0x272>
10003358:	68db      	ldr	r3, [r3, #12]
1000335a:	68dc      	ldr	r4, [r3, #12]
1000335c:	681e      	ldr	r6, [r3, #0]
1000335e:	1d23      	adds	r3, r4, #4
10003360:	0018      	movs	r0, r3
10003362:	4699      	mov	r9, r3
10003364:	f000 fb52 	bl	10003a0c <uxListRemove>
10003368:	4653      	mov	r3, sl
1000336a:	2204      	movs	r2, #4
1000336c:	5ce3      	ldrb	r3, [r4, r3]
1000336e:	421a      	tst	r2, r3
10003370:	d0e6      	beq.n	10003340 <prvTimerTask+0x98>
10003372:	69a3      	ldr	r3, [r4, #24]
10003374:	6124      	str	r4, [r4, #16]
10003376:	18f7      	adds	r7, r6, r3
10003378:	43f6      	mvns	r6, r6
1000337a:	6067      	str	r7, [r4, #4]
1000337c:	42b3      	cmp	r3, r6
1000337e:	d80a      	bhi.n	10003396 <prvTimerTask+0xee>
10003380:	003e      	movs	r6, r7
10003382:	43f6      	mvns	r6, r6
10003384:	6a23      	ldr	r3, [r4, #32]
10003386:	0020      	movs	r0, r4
10003388:	4798      	blx	r3
1000338a:	69a3      	ldr	r3, [r4, #24]
1000338c:	6124      	str	r4, [r4, #16]
1000338e:	18ff      	adds	r7, r7, r3
10003390:	6067      	str	r7, [r4, #4]
10003392:	42b3      	cmp	r3, r6
10003394:	d9f4      	bls.n	10003380 <prvTimerTask+0xd8>
10003396:	4649      	mov	r1, r9
10003398:	68a8      	ldr	r0, [r5, #8]
1000339a:	f000 fb1f 	bl	100039dc <vListInsert>
1000339e:	e7d3      	b.n	10003348 <prvTimerTask+0xa0>
100033a0:	4643      	mov	r3, r8
100033a2:	4652      	mov	r2, sl
100033a4:	5c98      	ldrb	r0, [r3, r2]
100033a6:	2301      	movs	r3, #1
100033a8:	4642      	mov	r2, r8
100033aa:	4651      	mov	r1, sl
100033ac:	4644      	mov	r4, r8
100033ae:	4303      	orrs	r3, r0
100033b0:	5453      	strb	r3, [r2, r1]
100033b2:	6992      	ldr	r2, [r2, #24]
100033b4:	9904      	ldr	r1, [sp, #16]
100033b6:	6124      	str	r4, [r4, #16]
100033b8:	188b      	adds	r3, r1, r2
100033ba:	6063      	str	r3, [r4, #4]
100033bc:	455b      	cmp	r3, fp
100033be:	d900      	bls.n	100033c2 <prvTimerTask+0x11a>
100033c0:	e0b2      	b.n	10003528 <prvTimerTask+0x280>
100033c2:	465c      	mov	r4, fp
100033c4:	1a61      	subs	r1, r4, r1
100033c6:	428a      	cmp	r2, r1
100033c8:	d900      	bls.n	100033cc <prvTimerTask+0x124>
100033ca:	e0ef      	b.n	100035ac <prvTimerTask+0x304>
100033cc:	0741      	lsls	r1, r0, #29
100033ce:	d414      	bmi.n	100033fa <prvTimerTask+0x152>
100033d0:	2301      	movs	r3, #1
100033d2:	4652      	mov	r2, sl
100033d4:	4398      	bics	r0, r3
100033d6:	4643      	mov	r3, r8
100033d8:	5498      	strb	r0, [r3, r2]
100033da:	4643      	mov	r3, r8
100033dc:	4640      	mov	r0, r8
100033de:	6a1b      	ldr	r3, [r3, #32]
100033e0:	4798      	blx	r3
100033e2:	e78a      	b.n	100032fa <prvTimerTask+0x52>
100033e4:	4659      	mov	r1, fp
100033e6:	1acb      	subs	r3, r1, r3
100033e8:	4293      	cmp	r3, r2
100033ea:	d200      	bcs.n	100033ee <prvTimerTask+0x146>
100033ec:	e0d8      	b.n	100035a0 <prvTimerTask+0x2f8>
100033ee:	4640      	mov	r0, r8
100033f0:	6a03      	ldr	r3, [r0, #32]
100033f2:	4798      	blx	r3
100033f4:	4643      	mov	r3, r8
100033f6:	699a      	ldr	r2, [r3, #24]
100033f8:	0023      	movs	r3, r4
100033fa:	4641      	mov	r1, r8
100033fc:	189c      	adds	r4, r3, r2
100033fe:	604c      	str	r4, [r1, #4]
10003400:	6109      	str	r1, [r1, #16]
10003402:	45a3      	cmp	fp, r4
10003404:	d2ee      	bcs.n	100033e4 <prvTimerTask+0x13c>
10003406:	459b      	cmp	fp, r3
10003408:	d201      	bcs.n	1000340e <prvTimerTask+0x166>
1000340a:	42a3      	cmp	r3, r4
1000340c:	d9ef      	bls.n	100033ee <prvTimerTask+0x146>
1000340e:	4643      	mov	r3, r8
10003410:	6828      	ldr	r0, [r5, #0]
10003412:	1d19      	adds	r1, r3, #4
10003414:	f000 fae2 	bl	100039dc <vListInsert>
10003418:	e7df      	b.n	100033da <prvTimerTask+0x132>
1000341a:	4643      	mov	r3, r8
1000341c:	4652      	mov	r2, sl
1000341e:	5c9b      	ldrb	r3, [r3, r2]
10003420:	2201      	movs	r2, #1
10003422:	4651      	mov	r1, sl
10003424:	4393      	bics	r3, r2
10003426:	4642      	mov	r2, r8
10003428:	5453      	strb	r3, [r2, r1]
1000342a:	e766      	b.n	100032fa <prvTimerTask+0x52>
1000342c:	4652      	mov	r2, sl
1000342e:	4643      	mov	r3, r8
10003430:	5c9b      	ldrb	r3, [r3, r2]
10003432:	2201      	movs	r2, #1
10003434:	4651      	mov	r1, sl
10003436:	4313      	orrs	r3, r2
10003438:	4642      	mov	r2, r8
1000343a:	5453      	strb	r3, [r2, r1]
1000343c:	9b04      	ldr	r3, [sp, #16]
1000343e:	4641      	mov	r1, r8
10003440:	6193      	str	r3, [r2, #24]
10003442:	465a      	mov	r2, fp
10003444:	189a      	adds	r2, r3, r2
10003446:	604a      	str	r2, [r1, #4]
10003448:	6109      	str	r1, [r1, #16]
1000344a:	455a      	cmp	r2, fp
1000344c:	d871      	bhi.n	10003532 <prvTimerTask+0x28a>
1000344e:	2b00      	cmp	r3, #0
10003450:	d100      	bne.n	10003454 <prvTimerTask+0x1ac>
10003452:	e752      	b.n	100032fa <prvTimerTask+0x52>
10003454:	68a8      	ldr	r0, [r5, #8]
10003456:	3104      	adds	r1, #4
10003458:	f000 fac0 	bl	100039dc <vListInsert>
1000345c:	e74d      	b.n	100032fa <prvTimerTask+0x52>
1000345e:	4643      	mov	r3, r8
10003460:	4652      	mov	r2, sl
10003462:	5c9b      	ldrb	r3, [r3, r2]
10003464:	079a      	lsls	r2, r3, #30
10003466:	d4db      	bmi.n	10003420 <prvTimerTask+0x178>
10003468:	4640      	mov	r0, r8
1000346a:	f000 f9c3 	bl	100037f4 <vPortFree>
1000346e:	e744      	b.n	100032fa <prvTimerTask+0x52>
10003470:	f7ff f942 	bl	100026f8 <vTaskSuspendAll>
10003474:	f7ff fa4a 	bl	1000290c <xTaskGetTickCount>
10003478:	686b      	ldr	r3, [r5, #4]
1000347a:	4681      	mov	r9, r0
1000347c:	4298      	cmp	r0, r3
1000347e:	d306      	bcc.n	1000348e <prvTimerTask+0x1e6>
10003480:	464b      	mov	r3, r9
10003482:	606b      	str	r3, [r5, #4]
10003484:	68ab      	ldr	r3, [r5, #8]
10003486:	681a      	ldr	r2, [r3, #0]
10003488:	4253      	negs	r3, r2
1000348a:	415a      	adcs	r2, r3
1000348c:	e729      	b.n	100032e2 <prvTimerTask+0x3a>
1000348e:	682b      	ldr	r3, [r5, #0]
10003490:	681a      	ldr	r2, [r3, #0]
10003492:	2a00      	cmp	r2, #0
10003494:	d039      	beq.n	1000350a <prvTimerTask+0x262>
10003496:	2224      	movs	r2, #36	; 0x24
10003498:	4692      	mov	sl, r2
1000349a:	3a20      	subs	r2, #32
1000349c:	4693      	mov	fp, r2
1000349e:	e00a      	b.n	100034b6 <prvTimerTask+0x20e>
100034a0:	2201      	movs	r2, #1
100034a2:	4393      	bics	r3, r2
100034a4:	4652      	mov	r2, sl
100034a6:	54a3      	strb	r3, [r4, r2]
100034a8:	6a23      	ldr	r3, [r4, #32]
100034aa:	0020      	movs	r0, r4
100034ac:	4798      	blx	r3
100034ae:	682b      	ldr	r3, [r5, #0]
100034b0:	681a      	ldr	r2, [r3, #0]
100034b2:	2a00      	cmp	r2, #0
100034b4:	d029      	beq.n	1000350a <prvTimerTask+0x262>
100034b6:	68db      	ldr	r3, [r3, #12]
100034b8:	68dc      	ldr	r4, [r3, #12]
100034ba:	681e      	ldr	r6, [r3, #0]
100034bc:	1d23      	adds	r3, r4, #4
100034be:	0018      	movs	r0, r3
100034c0:	4698      	mov	r8, r3
100034c2:	f000 faa3 	bl	10003a0c <uxListRemove>
100034c6:	4653      	mov	r3, sl
100034c8:	465a      	mov	r2, fp
100034ca:	5ce3      	ldrb	r3, [r4, r3]
100034cc:	421a      	tst	r2, r3
100034ce:	d0e7      	beq.n	100034a0 <prvTimerTask+0x1f8>
100034d0:	69a3      	ldr	r3, [r4, #24]
100034d2:	6124      	str	r4, [r4, #16]
100034d4:	18f7      	adds	r7, r6, r3
100034d6:	43f6      	mvns	r6, r6
100034d8:	6067      	str	r7, [r4, #4]
100034da:	42b3      	cmp	r3, r6
100034dc:	d80a      	bhi.n	100034f4 <prvTimerTask+0x24c>
100034de:	003e      	movs	r6, r7
100034e0:	43f6      	mvns	r6, r6
100034e2:	6a23      	ldr	r3, [r4, #32]
100034e4:	0020      	movs	r0, r4
100034e6:	4798      	blx	r3
100034e8:	69a3      	ldr	r3, [r4, #24]
100034ea:	6124      	str	r4, [r4, #16]
100034ec:	18ff      	adds	r7, r7, r3
100034ee:	6067      	str	r7, [r4, #4]
100034f0:	42b3      	cmp	r3, r6
100034f2:	d9f4      	bls.n	100034de <prvTimerTask+0x236>
100034f4:	4641      	mov	r1, r8
100034f6:	68a8      	ldr	r0, [r5, #8]
100034f8:	f000 fa70 	bl	100039dc <vListInsert>
100034fc:	6a23      	ldr	r3, [r4, #32]
100034fe:	0020      	movs	r0, r4
10003500:	4798      	blx	r3
10003502:	682b      	ldr	r3, [r5, #0]
10003504:	681a      	ldr	r2, [r3, #0]
10003506:	2a00      	cmp	r2, #0
10003508:	d1d5      	bne.n	100034b6 <prvTimerTask+0x20e>
1000350a:	68aa      	ldr	r2, [r5, #8]
1000350c:	60ab      	str	r3, [r5, #8]
1000350e:	464b      	mov	r3, r9
10003510:	602a      	str	r2, [r5, #0]
10003512:	606b      	str	r3, [r5, #4]
10003514:	f7ff f8f8 	bl	10002708 <xTaskResumeAll>
10003518:	e6ed      	b.n	100032f6 <prvTimerTask+0x4e>
1000351a:	68aa      	ldr	r2, [r5, #8]
1000351c:	60ab      	str	r3, [r5, #8]
1000351e:	602a      	str	r2, [r5, #0]
10003520:	e705      	b.n	1000332e <prvTimerTask+0x86>
10003522:	f000 f9ab 	bl	1000387c <vPortYield>
10003526:	e6e6      	b.n	100032f6 <prvTimerTask+0x4e>
10003528:	4559      	cmp	r1, fp
1000352a:	d902      	bls.n	10003532 <prvTimerTask+0x28a>
1000352c:	4299      	cmp	r1, r3
1000352e:	d800      	bhi.n	10003532 <prvTimerTask+0x28a>
10003530:	e74c      	b.n	100033cc <prvTimerTask+0x124>
10003532:	4641      	mov	r1, r8
10003534:	6828      	ldr	r0, [r5, #0]
10003536:	3104      	adds	r1, #4
10003538:	f000 fa50 	bl	100039dc <vListInsert>
1000353c:	e6dd      	b.n	100032fa <prvTimerTask+0x52>
1000353e:	f7ff f8e3 	bl	10002708 <xTaskResumeAll>
10003542:	682b      	ldr	r3, [r5, #0]
10003544:	68db      	ldr	r3, [r3, #12]
10003546:	68de      	ldr	r6, [r3, #12]
10003548:	1d33      	adds	r3, r6, #4
1000354a:	0018      	movs	r0, r3
1000354c:	4698      	mov	r8, r3
1000354e:	f000 fa5d 	bl	10003a0c <uxListRemove>
10003552:	2224      	movs	r2, #36	; 0x24
10003554:	5cb3      	ldrb	r3, [r6, r2]
10003556:	0759      	lsls	r1, r3, #29
10003558:	d40e      	bmi.n	10003578 <prvTimerTask+0x2d0>
1000355a:	2101      	movs	r1, #1
1000355c:	438b      	bics	r3, r1
1000355e:	54b3      	strb	r3, [r6, r2]
10003560:	0030      	movs	r0, r6
10003562:	6a33      	ldr	r3, [r6, #32]
10003564:	4798      	blx	r3
10003566:	e6c6      	b.n	100032f6 <prvTimerTask+0x4e>
10003568:	464a      	mov	r2, r9
1000356a:	1b14      	subs	r4, r2, r4
1000356c:	42a3      	cmp	r3, r4
1000356e:	d812      	bhi.n	10003596 <prvTimerTask+0x2ee>
10003570:	0030      	movs	r0, r6
10003572:	6a33      	ldr	r3, [r6, #32]
10003574:	4798      	blx	r3
10003576:	003c      	movs	r4, r7
10003578:	69b3      	ldr	r3, [r6, #24]
1000357a:	6136      	str	r6, [r6, #16]
1000357c:	18e7      	adds	r7, r4, r3
1000357e:	6077      	str	r7, [r6, #4]
10003580:	45b9      	cmp	r9, r7
10003582:	d2f1      	bcs.n	10003568 <prvTimerTask+0x2c0>
10003584:	45a1      	cmp	r9, r4
10003586:	d201      	bcs.n	1000358c <prvTimerTask+0x2e4>
10003588:	42bc      	cmp	r4, r7
1000358a:	d9f1      	bls.n	10003570 <prvTimerTask+0x2c8>
1000358c:	4641      	mov	r1, r8
1000358e:	6828      	ldr	r0, [r5, #0]
10003590:	f000 fa24 	bl	100039dc <vListInsert>
10003594:	e7e4      	b.n	10003560 <prvTimerTask+0x2b8>
10003596:	4641      	mov	r1, r8
10003598:	68a8      	ldr	r0, [r5, #8]
1000359a:	f000 fa1f 	bl	100039dc <vListInsert>
1000359e:	e7df      	b.n	10003560 <prvTimerTask+0x2b8>
100035a0:	4643      	mov	r3, r8
100035a2:	68a8      	ldr	r0, [r5, #8]
100035a4:	1d19      	adds	r1, r3, #4
100035a6:	f000 fa19 	bl	100039dc <vListInsert>
100035aa:	e716      	b.n	100033da <prvTimerTask+0x132>
100035ac:	4641      	mov	r1, r8
100035ae:	68a8      	ldr	r0, [r5, #8]
100035b0:	3104      	adds	r1, #4
100035b2:	f000 fa13 	bl	100039dc <vListInsert>
100035b6:	e6a0      	b.n	100032fa <prvTimerTask+0x52>
100035b8:	20000ef8 	.word	0x20000ef8
100035bc:	1000562c 	.word	0x1000562c

100035c0 <xTimerCreateTimerTask>:
100035c0:	b570      	push	{r4, r5, r6, lr}
100035c2:	b082      	sub	sp, #8
100035c4:	f000 f966 	bl	10003894 <vPortEnterCritical>
100035c8:	4c16      	ldr	r4, [pc, #88]	; (10003624 <xTimerCreateTimerTask+0x64>)
100035ca:	68e3      	ldr	r3, [r4, #12]
100035cc:	2b00      	cmp	r3, #0
100035ce:	d011      	beq.n	100035f4 <xTimerCreateTimerTask+0x34>
100035d0:	f000 f96c 	bl	100038ac <vPortExitCritical>
100035d4:	68e3      	ldr	r3, [r4, #12]
100035d6:	2000      	movs	r0, #0
100035d8:	2b00      	cmp	r3, #0
100035da:	d009      	beq.n	100035f0 <xTimerCreateTimerTask+0x30>
100035dc:	2303      	movs	r3, #3
100035de:	3438      	adds	r4, #56	; 0x38
100035e0:	9300      	str	r3, [sp, #0]
100035e2:	2280      	movs	r2, #128	; 0x80
100035e4:	2300      	movs	r3, #0
100035e6:	4910      	ldr	r1, [pc, #64]	; (10003628 <xTimerCreateTimerTask+0x68>)
100035e8:	4810      	ldr	r0, [pc, #64]	; (1000362c <xTimerCreateTimerTask+0x6c>)
100035ea:	9401      	str	r4, [sp, #4]
100035ec:	f7fe fcb2 	bl	10001f54 <xTaskCreate>
100035f0:	b002      	add	sp, #8
100035f2:	bd70      	pop	{r4, r5, r6, pc}
100035f4:	0026      	movs	r6, r4
100035f6:	0025      	movs	r5, r4
100035f8:	3610      	adds	r6, #16
100035fa:	0030      	movs	r0, r6
100035fc:	3524      	adds	r5, #36	; 0x24
100035fe:	f000 f9d1 	bl	100039a4 <vListInitialise>
10003602:	0028      	movs	r0, r5
10003604:	f000 f9ce 	bl	100039a4 <vListInitialise>
10003608:	2200      	movs	r2, #0
1000360a:	210c      	movs	r1, #12
1000360c:	200a      	movs	r0, #10
1000360e:	6026      	str	r6, [r4, #0]
10003610:	60a5      	str	r5, [r4, #8]
10003612:	f000 fa5d 	bl	10003ad0 <xQueueGenericCreate>
10003616:	60e0      	str	r0, [r4, #12]
10003618:	2800      	cmp	r0, #0
1000361a:	d0d9      	beq.n	100035d0 <xTimerCreateTimerTask+0x10>
1000361c:	4904      	ldr	r1, [pc, #16]	; (10003630 <xTimerCreateTimerTask+0x70>)
1000361e:	f001 f99b 	bl	10004958 <vQueueAddToRegistry>
10003622:	e7d5      	b.n	100035d0 <xTimerCreateTimerTask+0x10>
10003624:	20000ef8 	.word	0x20000ef8
10003628:	1000565c 	.word	0x1000565c
1000362c:	100032a9 	.word	0x100032a9
10003630:	10005654 	.word	0x10005654

10003634 <xTimerCreate>:
10003634:	b5f8      	push	{r3, r4, r5, r6, r7, lr}
10003636:	4645      	mov	r5, r8
10003638:	46de      	mov	lr, fp
1000363a:	4657      	mov	r7, sl
1000363c:	464e      	mov	r6, r9
1000363e:	b5e0      	push	{r5, r6, r7, lr}
10003640:	0007      	movs	r7, r0
10003642:	2028      	movs	r0, #40	; 0x28
10003644:	4688      	mov	r8, r1
10003646:	0016      	movs	r6, r2
10003648:	001d      	movs	r5, r3
1000364a:	f000 f8c7 	bl	100037dc <pvPortMalloc>
1000364e:	1e04      	subs	r4, r0, #0
10003650:	d01b      	beq.n	1000368a <xTimerCreate+0x56>
10003652:	2324      	movs	r3, #36	; 0x24
10003654:	2200      	movs	r2, #0
10003656:	54c2      	strb	r2, [r0, r3]
10003658:	f000 f91c 	bl	10003894 <vPortEnterCritical>
1000365c:	4b1d      	ldr	r3, [pc, #116]	; (100036d4 <xTimerCreate+0xa0>)
1000365e:	4699      	mov	r9, r3
10003660:	68db      	ldr	r3, [r3, #12]
10003662:	2b00      	cmp	r3, #0
10003664:	d018      	beq.n	10003698 <xTimerCreate+0x64>
10003666:	f000 f921 	bl	100038ac <vPortExitCritical>
1000366a:	4643      	mov	r3, r8
1000366c:	61a3      	str	r3, [r4, #24]
1000366e:	9b0a      	ldr	r3, [sp, #40]	; 0x28
10003670:	6027      	str	r7, [r4, #0]
10003672:	61e5      	str	r5, [r4, #28]
10003674:	6223      	str	r3, [r4, #32]
10003676:	1d20      	adds	r0, r4, #4
10003678:	f000 f9a0 	bl	100039bc <vListInitialiseItem>
1000367c:	2e00      	cmp	r6, #0
1000367e:	d004      	beq.n	1000368a <xTimerCreate+0x56>
10003680:	2224      	movs	r2, #36	; 0x24
10003682:	2104      	movs	r1, #4
10003684:	5ca3      	ldrb	r3, [r4, r2]
10003686:	430b      	orrs	r3, r1
10003688:	54a3      	strb	r3, [r4, r2]
1000368a:	0020      	movs	r0, r4
1000368c:	bcf0      	pop	{r4, r5, r6, r7}
1000368e:	46bb      	mov	fp, r7
10003690:	46b2      	mov	sl, r6
10003692:	46a9      	mov	r9, r5
10003694:	46a0      	mov	r8, r4
10003696:	bdf8      	pop	{r3, r4, r5, r6, r7, pc}
10003698:	3310      	adds	r3, #16
1000369a:	444b      	add	r3, r9
1000369c:	0018      	movs	r0, r3
1000369e:	469b      	mov	fp, r3
100036a0:	f000 f980 	bl	100039a4 <vListInitialise>
100036a4:	2324      	movs	r3, #36	; 0x24
100036a6:	444b      	add	r3, r9
100036a8:	0018      	movs	r0, r3
100036aa:	469a      	mov	sl, r3
100036ac:	f000 f97a 	bl	100039a4 <vListInitialise>
100036b0:	464b      	mov	r3, r9
100036b2:	465a      	mov	r2, fp
100036b4:	601a      	str	r2, [r3, #0]
100036b6:	4652      	mov	r2, sl
100036b8:	210c      	movs	r1, #12
100036ba:	609a      	str	r2, [r3, #8]
100036bc:	200a      	movs	r0, #10
100036be:	2200      	movs	r2, #0
100036c0:	f000 fa06 	bl	10003ad0 <xQueueGenericCreate>
100036c4:	464b      	mov	r3, r9
100036c6:	60d8      	str	r0, [r3, #12]
100036c8:	2800      	cmp	r0, #0
100036ca:	d0cc      	beq.n	10003666 <xTimerCreate+0x32>
100036cc:	4902      	ldr	r1, [pc, #8]	; (100036d8 <xTimerCreate+0xa4>)
100036ce:	f001 f943 	bl	10004958 <vQueueAddToRegistry>
100036d2:	e7c8      	b.n	10003666 <xTimerCreate+0x32>
100036d4:	20000ef8 	.word	0x20000ef8
100036d8:	10005654 	.word	0x10005654

100036dc <xTimerGenericCommand>:
100036dc:	b570      	push	{r4, r5, r6, lr}
100036de:	4e13      	ldr	r6, [pc, #76]	; (1000372c <xTimerGenericCommand+0x50>)
100036e0:	001c      	movs	r4, r3
100036e2:	68f5      	ldr	r5, [r6, #12]
100036e4:	b084      	sub	sp, #16
100036e6:	2d00      	cmp	r5, #0
100036e8:	d017      	beq.n	1000371a <xTimerGenericCommand+0x3e>
100036ea:	9101      	str	r1, [sp, #4]
100036ec:	9202      	str	r2, [sp, #8]
100036ee:	9003      	str	r0, [sp, #12]
100036f0:	2905      	cmp	r1, #5
100036f2:	dc0a      	bgt.n	1000370a <xTimerGenericCommand+0x2e>
100036f4:	f7ff fb8c 	bl	10002e10 <xTaskGetSchedulerState>
100036f8:	2802      	cmp	r0, #2
100036fa:	d010      	beq.n	1000371e <xTimerGenericCommand+0x42>
100036fc:	2300      	movs	r3, #0
100036fe:	2200      	movs	r2, #0
10003700:	68f0      	ldr	r0, [r6, #12]
10003702:	a901      	add	r1, sp, #4
10003704:	f000 fa30 	bl	10003b68 <xQueueGenericSend>
10003708:	e005      	b.n	10003716 <xTimerGenericCommand+0x3a>
1000370a:	2300      	movs	r3, #0
1000370c:	0022      	movs	r2, r4
1000370e:	0028      	movs	r0, r5
10003710:	a901      	add	r1, sp, #4
10003712:	f000 fbb5 	bl	10003e80 <xQueueGenericSendFromISR>
10003716:	b004      	add	sp, #16
10003718:	bd70      	pop	{r4, r5, r6, pc}
1000371a:	2000      	movs	r0, #0
1000371c:	e7fb      	b.n	10003716 <xTimerGenericCommand+0x3a>
1000371e:	2300      	movs	r3, #0
10003720:	68f0      	ldr	r0, [r6, #12]
10003722:	9a08      	ldr	r2, [sp, #32]
10003724:	a901      	add	r1, sp, #4
10003726:	f000 fa1f 	bl	10003b68 <xQueueGenericSend>
1000372a:	e7f4      	b.n	10003716 <xTimerGenericCommand+0x3a>
1000372c:	20000ef8 	.word	0x20000ef8

10003730 <xTimerGetTimerDaemonTaskHandle>:
10003730:	4b01      	ldr	r3, [pc, #4]	; (10003738 <xTimerGetTimerDaemonTaskHandle+0x8>)
10003732:	6b98      	ldr	r0, [r3, #56]	; 0x38
10003734:	4770      	bx	lr
10003736:	46c0      	nop			; (mov r8, r8)
10003738:	20000ef8 	.word	0x20000ef8

1000373c <xTimerGetPeriod>:
1000373c:	6980      	ldr	r0, [r0, #24]
1000373e:	4770      	bx	lr

10003740 <vTimerSetReloadMode>:
10003740:	b570      	push	{r4, r5, r6, lr}
10003742:	0004      	movs	r4, r0
10003744:	000d      	movs	r5, r1
10003746:	f000 f8a5 	bl	10003894 <vPortEnterCritical>
1000374a:	2324      	movs	r3, #36	; 0x24
1000374c:	2204      	movs	r2, #4
1000374e:	5ce3      	ldrb	r3, [r4, r3]
10003750:	2d00      	cmp	r5, #0
10003752:	d005      	beq.n	10003760 <vTimerSetReloadMode+0x20>
10003754:	4313      	orrs	r3, r2
10003756:	2224      	movs	r2, #36	; 0x24
10003758:	54a3      	strb	r3, [r4, r2]
1000375a:	f000 f8a7 	bl	100038ac <vPortExitCritical>
1000375e:	bd70      	pop	{r4, r5, r6, pc}
10003760:	4393      	bics	r3, r2
10003762:	e7f8      	b.n	10003756 <vTimerSetReloadMode+0x16>

10003764 <xTimerGetReloadMode>:
10003764:	b510      	push	{r4, lr}
10003766:	0004      	movs	r4, r0
10003768:	f000 f894 	bl	10003894 <vPortEnterCritical>
1000376c:	2324      	movs	r3, #36	; 0x24
1000376e:	5ce4      	ldrb	r4, [r4, r3]
10003770:	f000 f89c 	bl	100038ac <vPortExitCritical>
10003774:	0764      	lsls	r4, r4, #29
10003776:	0fe4      	lsrs	r4, r4, #31
10003778:	0020      	movs	r0, r4
1000377a:	bd10      	pop	{r4, pc}

1000377c <uxTimerGetReloadMode>:
1000377c:	b510      	push	{r4, lr}
1000377e:	0004      	movs	r4, r0
10003780:	f000 f888 	bl	10003894 <vPortEnterCritical>
10003784:	2324      	movs	r3, #36	; 0x24
10003786:	5ce4      	ldrb	r4, [r4, r3]
10003788:	f000 f890 	bl	100038ac <vPortExitCritical>
1000378c:	0764      	lsls	r4, r4, #29
1000378e:	0fe4      	lsrs	r4, r4, #31
10003790:	0020      	movs	r0, r4
10003792:	bd10      	pop	{r4, pc}

10003794 <xTimerGetExpiryTime>:
10003794:	6840      	ldr	r0, [r0, #4]
10003796:	4770      	bx	lr

10003798 <pcTimerGetName>:
10003798:	6800      	ldr	r0, [r0, #0]
1000379a:	4770      	bx	lr

1000379c <xTimerIsTimerActive>:
1000379c:	b510      	push	{r4, lr}
1000379e:	0004      	movs	r4, r0
100037a0:	f000 f878 	bl	10003894 <vPortEnterCritical>
100037a4:	2324      	movs	r3, #36	; 0x24
100037a6:	5ce3      	ldrb	r3, [r4, r3]
100037a8:	2401      	movs	r4, #1
100037aa:	401c      	ands	r4, r3
100037ac:	f000 f87e 	bl	100038ac <vPortExitCritical>
100037b0:	0020      	movs	r0, r4
100037b2:	bd10      	pop	{r4, pc}

100037b4 <pvTimerGetTimerID>:
100037b4:	b510      	push	{r4, lr}
100037b6:	0004      	movs	r4, r0
100037b8:	f000 f86c 	bl	10003894 <vPortEnterCritical>
100037bc:	69e4      	ldr	r4, [r4, #28]
100037be:	f000 f875 	bl	100038ac <vPortExitCritical>
100037c2:	0020      	movs	r0, r4
100037c4:	bd10      	pop	{r4, pc}
100037c6:	46c0      	nop			; (mov r8, r8)

100037c8 <vTimerSetTimerID>:
100037c8:	b570      	push	{r4, r5, r6, lr}
100037ca:	000d      	movs	r5, r1
100037cc:	0004      	movs	r4, r0
100037ce:	f000 f861 	bl	10003894 <vPortEnterCritical>
100037d2:	61e5      	str	r5, [r4, #28]
100037d4:	f000 f86a 	bl	100038ac <vPortExitCritical>
100037d8:	bd70      	pop	{r4, r5, r6, pc}
100037da:	46c0      	nop			; (mov r8, r8)

100037dc <pvPortMalloc>:
100037dc:	b510      	push	{r4, lr}
100037de:	0004      	movs	r4, r0
100037e0:	f7fe ff8a 	bl	100026f8 <vTaskSuspendAll>
100037e4:	0020      	movs	r0, r4
100037e6:	f7fe f8c7 	bl	10001978 <__wrap_malloc>
100037ea:	0004      	movs	r4, r0
100037ec:	f7fe ff8c 	bl	10002708 <xTaskResumeAll>
100037f0:	0020      	movs	r0, r4
100037f2:	bd10      	pop	{r4, pc}

100037f4 <vPortFree>:
100037f4:	b510      	push	{r4, lr}
100037f6:	1e04      	subs	r4, r0, #0
100037f8:	d006      	beq.n	10003808 <vPortFree+0x14>
100037fa:	f7fe ff7d 	bl	100026f8 <vTaskSuspendAll>
100037fe:	0020      	movs	r0, r4
10003800:	f7fe f8cc 	bl	1000199c <__wrap_free>
10003804:	f7fe ff80 	bl	10002708 <xTaskResumeAll>
10003808:	bd10      	pop	{r4, pc}
1000380a:	46c0      	nop			; (mov r8, r8)
1000380c:	0000      	movs	r0, r0
	...

10003810 <prvTaskExitError>:
10003810:	2300      	movs	r3, #0
10003812:	b082      	sub	sp, #8
10003814:	9301      	str	r3, [sp, #4]
10003816:	b672      	cpsid	i
10003818:	9b01      	ldr	r3, [sp, #4]
1000381a:	2b00      	cmp	r3, #0
1000381c:	d0fc      	beq.n	10003818 <prvTaskExitError+0x8>
1000381e:	b002      	add	sp, #8
10003820:	4770      	bx	lr
10003822:	46c0      	nop			; (mov r8, r8)

10003824 <vPortStartFirstTask>:
10003824:	4a0a      	ldr	r2, [pc, #40]	; (10003850 <pxCurrentTCBConst2>)
10003826:	6813      	ldr	r3, [r2, #0]
10003828:	6818      	ldr	r0, [r3, #0]
1000382a:	3020      	adds	r0, #32
1000382c:	f380 8809 	msr	PSP, r0
10003830:	2002      	movs	r0, #2
10003832:	f380 8814 	msr	CONTROL, r0
10003836:	f3bf 8f6f 	isb	sy
1000383a:	bc3f      	pop	{r0, r1, r2, r3, r4, r5}
1000383c:	46ae      	mov	lr, r5
1000383e:	bc08      	pop	{r3}
10003840:	bc04      	pop	{r2}
10003842:	b662      	cpsie	i
10003844:	4718      	bx	r3
10003846:	46c0      	nop			; (mov r8, r8)
10003848:	46c0      	nop			; (mov r8, r8)
1000384a:	46c0      	nop			; (mov r8, r8)
1000384c:	46c0      	nop			; (mov r8, r8)
1000384e:	46c0      	nop			; (mov r8, r8)

10003850 <pxCurrentTCBConst2>:
10003850:	20000e78 	.word	0x20000e78

10003854 <pxPortInitialiseStack>:
10003854:	b510      	push	{r4, lr}
10003856:	2480      	movs	r4, #128	; 0x80
10003858:	1f03      	subs	r3, r0, #4
1000385a:	0464      	lsls	r4, r4, #17
1000385c:	601c      	str	r4, [r3, #0]
1000385e:	3b04      	subs	r3, #4
10003860:	6019      	str	r1, [r3, #0]
10003862:	4903      	ldr	r1, [pc, #12]	; (10003870 <pxPortInitialiseStack+0x1c>)
10003864:	3b04      	subs	r3, #4
10003866:	6019      	str	r1, [r3, #0]
10003868:	3b14      	subs	r3, #20
1000386a:	3840      	subs	r0, #64	; 0x40
1000386c:	601a      	str	r2, [r3, #0]
1000386e:	bd10      	pop	{r4, pc}
10003870:	10003811 	.word	0x10003811

10003874 <isr_svcall>:
10003874:	4770      	bx	lr
10003876:	46c0      	nop			; (mov r8, r8)

10003878 <vPortEndScheduler>:
10003878:	4770      	bx	lr
1000387a:	46c0      	nop			; (mov r8, r8)

1000387c <vPortYield>:
1000387c:	2280      	movs	r2, #128	; 0x80
1000387e:	4b04      	ldr	r3, [pc, #16]	; (10003890 <vPortYield+0x14>)
10003880:	0552      	lsls	r2, r2, #21
10003882:	601a      	str	r2, [r3, #0]
10003884:	f3bf 8f4f 	dsb	sy
10003888:	f3bf 8f6f 	isb	sy
1000388c:	4770      	bx	lr
1000388e:	46c0      	nop			; (mov r8, r8)
10003890:	e000ed04 	.word	0xe000ed04

10003894 <vPortEnterCritical>:
10003894:	b672      	cpsid	i
10003896:	4a04      	ldr	r2, [pc, #16]	; (100038a8 <vPortEnterCritical+0x14>)
10003898:	6813      	ldr	r3, [r2, #0]
1000389a:	3301      	adds	r3, #1
1000389c:	6013      	str	r3, [r2, #0]
1000389e:	f3bf 8f4f 	dsb	sy
100038a2:	f3bf 8f6f 	isb	sy
100038a6:	4770      	bx	lr
100038a8:	20000228 	.word	0x20000228

100038ac <vPortExitCritical>:
100038ac:	4a03      	ldr	r2, [pc, #12]	; (100038bc <vPortExitCritical+0x10>)
100038ae:	6813      	ldr	r3, [r2, #0]
100038b0:	3b01      	subs	r3, #1
100038b2:	6013      	str	r3, [r2, #0]
100038b4:	2b00      	cmp	r3, #0
100038b6:	d100      	bne.n	100038ba <vPortExitCritical+0xe>
100038b8:	b662      	cpsie	i
100038ba:	4770      	bx	lr
100038bc:	20000228 	.word	0x20000228

100038c0 <ulSetInterruptMaskFromISR>:
100038c0:	f3ef 8010 	mrs	r0, PRIMASK
100038c4:	b672      	cpsid	i
100038c6:	4770      	bx	lr

100038c8 <vClearInterruptMaskFromISR>:
100038c8:	f380 8810 	msr	PRIMASK, r0
100038cc:	4770      	bx	lr
100038ce:	46c0      	nop			; (mov r8, r8)

100038d0 <isr_pendsv>:
100038d0:	f3ef 8009 	mrs	r0, PSP
100038d4:	4b0e      	ldr	r3, [pc, #56]	; (10003910 <pxCurrentTCBConst>)
100038d6:	681a      	ldr	r2, [r3, #0]
100038d8:	3820      	subs	r0, #32
100038da:	6010      	str	r0, [r2, #0]
100038dc:	c0f0      	stmia	r0!, {r4, r5, r6, r7}
100038de:	4644      	mov	r4, r8
100038e0:	464d      	mov	r5, r9
100038e2:	4656      	mov	r6, sl
100038e4:	465f      	mov	r7, fp
100038e6:	c0f0      	stmia	r0!, {r4, r5, r6, r7}
100038e8:	b508      	push	{r3, lr}
100038ea:	b672      	cpsid	i
100038ec:	f7ff f852 	bl	10002994 <vTaskSwitchContext>
100038f0:	b662      	cpsie	i
100038f2:	bc0c      	pop	{r2, r3}
100038f4:	6811      	ldr	r1, [r2, #0]
100038f6:	6808      	ldr	r0, [r1, #0]
100038f8:	3010      	adds	r0, #16
100038fa:	c8f0      	ldmia	r0!, {r4, r5, r6, r7}
100038fc:	46a0      	mov	r8, r4
100038fe:	46a9      	mov	r9, r5
10003900:	46b2      	mov	sl, r6
10003902:	46bb      	mov	fp, r7
10003904:	f380 8809 	msr	PSP, r0
10003908:	3820      	subs	r0, #32
1000390a:	c8f0      	ldmia	r0!, {r4, r5, r6, r7}
1000390c:	4718      	bx	r3
1000390e:	46c0      	nop			; (mov r8, r8)

10003910 <pxCurrentTCBConst>:
10003910:	20000e78 	.word	0x20000e78

10003914 <isr_systick>:
10003914:	b510      	push	{r4, lr}
10003916:	f7ff ffd3 	bl	100038c0 <ulSetInterruptMaskFromISR>
1000391a:	0004      	movs	r4, r0
1000391c:	f7ff f828 	bl	10002970 <xTaskIncrementTick>
10003920:	2800      	cmp	r0, #0
10003922:	d003      	beq.n	1000392c <isr_systick+0x18>
10003924:	2280      	movs	r2, #128	; 0x80
10003926:	4b03      	ldr	r3, [pc, #12]	; (10003934 <isr_systick+0x20>)
10003928:	0552      	lsls	r2, r2, #21
1000392a:	601a      	str	r2, [r3, #0]
1000392c:	0020      	movs	r0, r4
1000392e:	f7ff ffcb 	bl	100038c8 <vClearInterruptMaskFromISR>
10003932:	bd10      	pop	{r4, pc}
10003934:	e000ed04 	.word	0xe000ed04

10003938 <vPortSetupTimerInterrupt>:
10003938:	2200      	movs	r2, #0
1000393a:	4b05      	ldr	r3, [pc, #20]	; (10003950 <vPortSetupTimerInterrupt+0x18>)
1000393c:	4905      	ldr	r1, [pc, #20]	; (10003954 <vPortSetupTimerInterrupt+0x1c>)
1000393e:	601a      	str	r2, [r3, #0]
10003940:	600a      	str	r2, [r1, #0]
10003942:	4a05      	ldr	r2, [pc, #20]	; (10003958 <vPortSetupTimerInterrupt+0x20>)
10003944:	4905      	ldr	r1, [pc, #20]	; (1000395c <vPortSetupTimerInterrupt+0x24>)
10003946:	6011      	str	r1, [r2, #0]
10003948:	2207      	movs	r2, #7
1000394a:	601a      	str	r2, [r3, #0]
1000394c:	4770      	bx	lr
1000394e:	46c0      	nop			; (mov r8, r8)
10003950:	e000e010 	.word	0xe000e010
10003954:	e000e018 	.word	0xe000e018
10003958:	e000e014 	.word	0xe000e014
1000395c:	00144b4f 	.word	0x00144b4f

10003960 <xPortStartScheduler>:
10003960:	22ff      	movs	r2, #255	; 0xff
10003962:	4b0e      	ldr	r3, [pc, #56]	; (1000399c <xPortStartScheduler+0x3c>)
10003964:	0412      	lsls	r2, r2, #16
10003966:	6819      	ldr	r1, [r3, #0]
10003968:	b510      	push	{r4, lr}
1000396a:	430a      	orrs	r2, r1
1000396c:	601a      	str	r2, [r3, #0]
1000396e:	22ff      	movs	r2, #255	; 0xff
10003970:	2400      	movs	r4, #0
10003972:	6819      	ldr	r1, [r3, #0]
10003974:	0612      	lsls	r2, r2, #24
10003976:	430a      	orrs	r2, r1
10003978:	b082      	sub	sp, #8
1000397a:	601a      	str	r2, [r3, #0]
1000397c:	f7ff ffdc 	bl	10003938 <vPortSetupTimerInterrupt>
10003980:	4b07      	ldr	r3, [pc, #28]	; (100039a0 <xPortStartScheduler+0x40>)
10003982:	601c      	str	r4, [r3, #0]
10003984:	f7ff ff4e 	bl	10003824 <vPortStartFirstTask>
10003988:	f7ff f804 	bl	10002994 <vTaskSwitchContext>
1000398c:	9401      	str	r4, [sp, #4]
1000398e:	b672      	cpsid	i
10003990:	9b01      	ldr	r3, [sp, #4]
10003992:	2b00      	cmp	r3, #0
10003994:	d0fc      	beq.n	10003990 <xPortStartScheduler+0x30>
10003996:	2000      	movs	r0, #0
10003998:	b002      	add	sp, #8
1000399a:	bd10      	pop	{r4, pc}
1000399c:	e000ed20 	.word	0xe000ed20
100039a0:	20000228 	.word	0x20000228

100039a4 <vListInitialise>:
100039a4:	0003      	movs	r3, r0
100039a6:	3308      	adds	r3, #8
100039a8:	2201      	movs	r2, #1
100039aa:	6043      	str	r3, [r0, #4]
100039ac:	60c3      	str	r3, [r0, #12]
100039ae:	6103      	str	r3, [r0, #16]
100039b0:	2300      	movs	r3, #0
100039b2:	4252      	negs	r2, r2
100039b4:	6082      	str	r2, [r0, #8]
100039b6:	6003      	str	r3, [r0, #0]
100039b8:	4770      	bx	lr
100039ba:	46c0      	nop			; (mov r8, r8)

100039bc <vListInitialiseItem>:
100039bc:	2300      	movs	r3, #0
100039be:	6103      	str	r3, [r0, #16]
100039c0:	4770      	bx	lr
100039c2:	46c0      	nop			; (mov r8, r8)

100039c4 <vListInsertEnd>:
100039c4:	6843      	ldr	r3, [r0, #4]
100039c6:	689a      	ldr	r2, [r3, #8]
100039c8:	604b      	str	r3, [r1, #4]
100039ca:	608a      	str	r2, [r1, #8]
100039cc:	689a      	ldr	r2, [r3, #8]
100039ce:	6051      	str	r1, [r2, #4]
100039d0:	6099      	str	r1, [r3, #8]
100039d2:	6803      	ldr	r3, [r0, #0]
100039d4:	6108      	str	r0, [r1, #16]
100039d6:	3301      	adds	r3, #1
100039d8:	6003      	str	r3, [r0, #0]
100039da:	4770      	bx	lr

100039dc <vListInsert>:
100039dc:	0003      	movs	r3, r0
100039de:	b530      	push	{r4, r5, lr}
100039e0:	680c      	ldr	r4, [r1, #0]
100039e2:	3308      	adds	r3, #8
100039e4:	1c62      	adds	r2, r4, #1
100039e6:	d00d      	beq.n	10003a04 <vListInsert+0x28>
100039e8:	001a      	movs	r2, r3
100039ea:	685b      	ldr	r3, [r3, #4]
100039ec:	681d      	ldr	r5, [r3, #0]
100039ee:	42a5      	cmp	r5, r4
100039f0:	d9fa      	bls.n	100039e8 <vListInsert+0xc>
100039f2:	604b      	str	r3, [r1, #4]
100039f4:	6099      	str	r1, [r3, #8]
100039f6:	6803      	ldr	r3, [r0, #0]
100039f8:	608a      	str	r2, [r1, #8]
100039fa:	3301      	adds	r3, #1
100039fc:	6051      	str	r1, [r2, #4]
100039fe:	6108      	str	r0, [r1, #16]
10003a00:	6003      	str	r3, [r0, #0]
10003a02:	bd30      	pop	{r4, r5, pc}
10003a04:	6902      	ldr	r2, [r0, #16]
10003a06:	6853      	ldr	r3, [r2, #4]
10003a08:	e7f3      	b.n	100039f2 <vListInsert+0x16>
10003a0a:	46c0      	nop			; (mov r8, r8)

10003a0c <uxListRemove>:
10003a0c:	6903      	ldr	r3, [r0, #16]
10003a0e:	6841      	ldr	r1, [r0, #4]
10003a10:	6882      	ldr	r2, [r0, #8]
10003a12:	608a      	str	r2, [r1, #8]
10003a14:	6051      	str	r1, [r2, #4]
10003a16:	6859      	ldr	r1, [r3, #4]
10003a18:	4281      	cmp	r1, r0
10003a1a:	d006      	beq.n	10003a2a <uxListRemove+0x1e>
10003a1c:	2200      	movs	r2, #0
10003a1e:	6102      	str	r2, [r0, #16]
10003a20:	681a      	ldr	r2, [r3, #0]
10003a22:	3a01      	subs	r2, #1
10003a24:	601a      	str	r2, [r3, #0]
10003a26:	6818      	ldr	r0, [r3, #0]
10003a28:	4770      	bx	lr
10003a2a:	605a      	str	r2, [r3, #4]
10003a2c:	e7f6      	b.n	10003a1c <uxListRemove+0x10>
10003a2e:	46c0      	nop			; (mov r8, r8)

10003a30 <xQueueGenericReset>:
10003a30:	b570      	push	{r4, r5, r6, lr}
10003a32:	0004      	movs	r4, r0
10003a34:	000d      	movs	r5, r1
10003a36:	2800      	cmp	r0, #0
10003a38:	d032      	beq.n	10003aa0 <xQueueGenericReset+0x70>
10003a3a:	6bc3      	ldr	r3, [r0, #60]	; 0x3c
10003a3c:	2000      	movs	r0, #0
10003a3e:	2b00      	cmp	r3, #0
10003a40:	d020      	beq.n	10003a84 <xQueueGenericReset+0x54>
10003a42:	6c21      	ldr	r1, [r4, #64]	; 0x40
10003a44:	0c18      	lsrs	r0, r3, #16
10003a46:	0c0a      	lsrs	r2, r1, #16
10003a48:	d11d      	bne.n	10003a86 <xQueueGenericReset+0x56>
10003a4a:	2800      	cmp	r0, #0
10003a4c:	d12a      	bne.n	10003aa4 <xQueueGenericReset+0x74>
10003a4e:	f7ff ff21 	bl	10003894 <vPortEnterCritical>
10003a52:	6c21      	ldr	r1, [r4, #64]	; 0x40
10003a54:	6be3      	ldr	r3, [r4, #60]	; 0x3c
10003a56:	6822      	ldr	r2, [r4, #0]
10003a58:	434b      	muls	r3, r1
10003a5a:	18d0      	adds	r0, r2, r3
10003a5c:	1a5b      	subs	r3, r3, r1
10003a5e:	18d3      	adds	r3, r2, r3
10003a60:	60a0      	str	r0, [r4, #8]
10003a62:	6062      	str	r2, [r4, #4]
10003a64:	60e3      	str	r3, [r4, #12]
10003a66:	2244      	movs	r2, #68	; 0x44
10003a68:	23ff      	movs	r3, #255	; 0xff
10003a6a:	2000      	movs	r0, #0
10003a6c:	63a0      	str	r0, [r4, #56]	; 0x38
10003a6e:	54a3      	strb	r3, [r4, r2]
10003a70:	3201      	adds	r2, #1
10003a72:	54a3      	strb	r3, [r4, r2]
10003a74:	2d00      	cmp	r5, #0
10003a76:	d118      	bne.n	10003aaa <xQueueGenericReset+0x7a>
10003a78:	6923      	ldr	r3, [r4, #16]
10003a7a:	2b00      	cmp	r3, #0
10003a7c:	d11e      	bne.n	10003abc <xQueueGenericReset+0x8c>
10003a7e:	f7ff ff15 	bl	100038ac <vPortExitCritical>
10003a82:	2001      	movs	r0, #1
10003a84:	bd70      	pop	{r4, r5, r6, pc}
10003a86:	2800      	cmp	r0, #0
10003a88:	d10a      	bne.n	10003aa0 <xQueueGenericReset+0x70>
10003a8a:	1c18      	adds	r0, r3, #0
10003a8c:	b289      	uxth	r1, r1
10003a8e:	b29b      	uxth	r3, r3
10003a90:	434b      	muls	r3, r1
10003a92:	b280      	uxth	r0, r0
10003a94:	b292      	uxth	r2, r2
10003a96:	4342      	muls	r2, r0
10003a98:	0c1b      	lsrs	r3, r3, #16
10003a9a:	18d3      	adds	r3, r2, r3
10003a9c:	0c1b      	lsrs	r3, r3, #16
10003a9e:	d0d6      	beq.n	10003a4e <xQueueGenericReset+0x1e>
10003aa0:	2000      	movs	r0, #0
10003aa2:	e7ef      	b.n	10003a84 <xQueueGenericReset+0x54>
10003aa4:	1c02      	adds	r2, r0, #0
10003aa6:	1c08      	adds	r0, r1, #0
10003aa8:	e7f0      	b.n	10003a8c <xQueueGenericReset+0x5c>
10003aaa:	0020      	movs	r0, r4
10003aac:	3010      	adds	r0, #16
10003aae:	f7ff ff79 	bl	100039a4 <vListInitialise>
10003ab2:	0020      	movs	r0, r4
10003ab4:	3024      	adds	r0, #36	; 0x24
10003ab6:	f7ff ff75 	bl	100039a4 <vListInitialise>
10003aba:	e7e0      	b.n	10003a7e <xQueueGenericReset+0x4e>
10003abc:	0020      	movs	r0, r4
10003abe:	3010      	adds	r0, #16
10003ac0:	f7ff f890 	bl	10002be4 <xTaskRemoveFromEventList>
10003ac4:	2800      	cmp	r0, #0
10003ac6:	d0da      	beq.n	10003a7e <xQueueGenericReset+0x4e>
10003ac8:	f7ff fed8 	bl	1000387c <vPortYield>
10003acc:	e7d7      	b.n	10003a7e <xQueueGenericReset+0x4e>
10003ace:	46c0      	nop			; (mov r8, r8)

10003ad0 <xQueueGenericCreate>:
10003ad0:	b570      	push	{r4, r5, r6, lr}
10003ad2:	0005      	movs	r5, r0
10003ad4:	000e      	movs	r6, r1
10003ad6:	2800      	cmp	r0, #0
10003ad8:	d043      	beq.n	10003b62 <xQueueGenericCreate+0x92>
10003ada:	0c0b      	lsrs	r3, r1, #16
10003adc:	0c02      	lsrs	r2, r0, #16
10003ade:	2b00      	cmp	r3, #0
10003ae0:	d131      	bne.n	10003b46 <xQueueGenericCreate+0x76>
10003ae2:	1c33      	adds	r3, r6, #0
10003ae4:	2a00      	cmp	r2, #0
10003ae6:	d132      	bne.n	10003b4e <xQueueGenericCreate+0x7e>
10003ae8:	0030      	movs	r0, r6
10003aea:	4368      	muls	r0, r5
10003aec:	0003      	movs	r3, r0
10003aee:	3349      	adds	r3, #73	; 0x49
10003af0:	d837      	bhi.n	10003b62 <xQueueGenericCreate+0x92>
10003af2:	3048      	adds	r0, #72	; 0x48
10003af4:	f7ff fe72 	bl	100037dc <pvPortMalloc>
10003af8:	1e04      	subs	r4, r0, #0
10003afa:	d032      	beq.n	10003b62 <xQueueGenericCreate+0x92>
10003afc:	0003      	movs	r3, r0
10003afe:	2e00      	cmp	r6, #0
10003b00:	d000      	beq.n	10003b04 <xQueueGenericCreate+0x34>
10003b02:	3348      	adds	r3, #72	; 0x48
10003b04:	6023      	str	r3, [r4, #0]
10003b06:	63e5      	str	r5, [r4, #60]	; 0x3c
10003b08:	6426      	str	r6, [r4, #64]	; 0x40
10003b0a:	f7ff fec3 	bl	10003894 <vPortEnterCritical>
10003b0e:	6c21      	ldr	r1, [r4, #64]	; 0x40
10003b10:	6be3      	ldr	r3, [r4, #60]	; 0x3c
10003b12:	6822      	ldr	r2, [r4, #0]
10003b14:	434b      	muls	r3, r1
10003b16:	18d0      	adds	r0, r2, r3
10003b18:	60a0      	str	r0, [r4, #8]
10003b1a:	2000      	movs	r0, #0
10003b1c:	1a5b      	subs	r3, r3, r1
10003b1e:	18d3      	adds	r3, r2, r3
10003b20:	6062      	str	r2, [r4, #4]
10003b22:	60e3      	str	r3, [r4, #12]
10003b24:	2244      	movs	r2, #68	; 0x44
10003b26:	23ff      	movs	r3, #255	; 0xff
10003b28:	63a0      	str	r0, [r4, #56]	; 0x38
10003b2a:	0020      	movs	r0, r4
10003b2c:	54a3      	strb	r3, [r4, r2]
10003b2e:	3201      	adds	r2, #1
10003b30:	54a3      	strb	r3, [r4, r2]
10003b32:	3010      	adds	r0, #16
10003b34:	f7ff ff36 	bl	100039a4 <vListInitialise>
10003b38:	0020      	movs	r0, r4
10003b3a:	3024      	adds	r0, #36	; 0x24
10003b3c:	f7ff ff32 	bl	100039a4 <vListInitialise>
10003b40:	f7ff feb4 	bl	100038ac <vPortExitCritical>
10003b44:	e00e      	b.n	10003b64 <xQueueGenericCreate+0x94>
10003b46:	2a00      	cmp	r2, #0
10003b48:	d10b      	bne.n	10003b62 <xQueueGenericCreate+0x92>
10003b4a:	1c1a      	adds	r2, r3, #0
10003b4c:	1c03      	adds	r3, r0, #0
10003b4e:	b2b0      	uxth	r0, r6
10003b50:	b2a9      	uxth	r1, r5
10003b52:	4341      	muls	r1, r0
10003b54:	b298      	uxth	r0, r3
10003b56:	b293      	uxth	r3, r2
10003b58:	4343      	muls	r3, r0
10003b5a:	0c09      	lsrs	r1, r1, #16
10003b5c:	185b      	adds	r3, r3, r1
10003b5e:	0c1b      	lsrs	r3, r3, #16
10003b60:	d0c2      	beq.n	10003ae8 <xQueueGenericCreate+0x18>
10003b62:	2400      	movs	r4, #0
10003b64:	0020      	movs	r0, r4
10003b66:	bd70      	pop	{r4, r5, r6, pc}

10003b68 <xQueueGenericSend>:
10003b68:	b5f0      	push	{r4, r5, r6, r7, lr}
10003b6a:	46ce      	mov	lr, r9
10003b6c:	4647      	mov	r7, r8
10003b6e:	0004      	movs	r4, r0
10003b70:	0006      	movs	r6, r0
10003b72:	b580      	push	{r7, lr}
10003b74:	b085      	sub	sp, #20
10003b76:	4699      	mov	r9, r3
10003b78:	9201      	str	r2, [sp, #4]
10003b7a:	4688      	mov	r8, r1
10003b7c:	f7ff fe8a 	bl	10003894 <vPortEnterCritical>
10003b80:	6ba3      	ldr	r3, [r4, #56]	; 0x38
10003b82:	6be2      	ldr	r2, [r4, #60]	; 0x3c
10003b84:	2500      	movs	r5, #0
10003b86:	3624      	adds	r6, #36	; 0x24
10003b88:	4293      	cmp	r3, r2
10003b8a:	d37c      	bcc.n	10003c86 <xQueueGenericSend+0x11e>
10003b8c:	464b      	mov	r3, r9
10003b8e:	2b02      	cmp	r3, #2
10003b90:	d100      	bne.n	10003b94 <xQueueGenericSend+0x2c>
10003b92:	e0e1      	b.n	10003d58 <xQueueGenericSend+0x1f0>
10003b94:	9b01      	ldr	r3, [sp, #4]
10003b96:	2b00      	cmp	r3, #0
10003b98:	d100      	bne.n	10003b9c <xQueueGenericSend+0x34>
10003b9a:	e0f9      	b.n	10003d90 <xQueueGenericSend+0x228>
10003b9c:	2d00      	cmp	r5, #0
10003b9e:	d100      	bne.n	10003ba2 <xQueueGenericSend+0x3a>
10003ba0:	e0d6      	b.n	10003d50 <xQueueGenericSend+0x1e8>
10003ba2:	f7ff fe83 	bl	100038ac <vPortExitCritical>
10003ba6:	f7fe fda7 	bl	100026f8 <vTaskSuspendAll>
10003baa:	f7ff fe73 	bl	10003894 <vPortEnterCritical>
10003bae:	2244      	movs	r2, #68	; 0x44
10003bb0:	5ca3      	ldrb	r3, [r4, r2]
10003bb2:	b25b      	sxtb	r3, r3
10003bb4:	3301      	adds	r3, #1
10003bb6:	d101      	bne.n	10003bbc <xQueueGenericSend+0x54>
10003bb8:	2300      	movs	r3, #0
10003bba:	54a3      	strb	r3, [r4, r2]
10003bbc:	2245      	movs	r2, #69	; 0x45
10003bbe:	5ca3      	ldrb	r3, [r4, r2]
10003bc0:	b25b      	sxtb	r3, r3
10003bc2:	3301      	adds	r3, #1
10003bc4:	d101      	bne.n	10003bca <xQueueGenericSend+0x62>
10003bc6:	2300      	movs	r3, #0
10003bc8:	54a3      	strb	r3, [r4, r2]
10003bca:	f7ff fe6f 	bl	100038ac <vPortExitCritical>
10003bce:	a901      	add	r1, sp, #4
10003bd0:	a802      	add	r0, sp, #8
10003bd2:	f7ff f8cb 	bl	10002d6c <xTaskCheckForTimeOut>
10003bd6:	2800      	cmp	r0, #0
10003bd8:	d000      	beq.n	10003bdc <xQueueGenericSend+0x74>
10003bda:	e0dd      	b.n	10003d98 <xQueueGenericSend+0x230>
10003bdc:	f7ff fe5a 	bl	10003894 <vPortEnterCritical>
10003be0:	6ba3      	ldr	r3, [r4, #56]	; 0x38
10003be2:	6be2      	ldr	r2, [r4, #60]	; 0x3c
10003be4:	4293      	cmp	r3, r2
10003be6:	d061      	beq.n	10003cac <xQueueGenericSend+0x144>
10003be8:	f7ff fe60 	bl	100038ac <vPortExitCritical>
10003bec:	f7ff fe52 	bl	10003894 <vPortEnterCritical>
10003bf0:	2345      	movs	r3, #69	; 0x45
10003bf2:	5ce5      	ldrb	r5, [r4, r3]
10003bf4:	b26d      	sxtb	r5, r5
10003bf6:	2d00      	cmp	r5, #0
10003bf8:	dc05      	bgt.n	10003c06 <xQueueGenericSend+0x9e>
10003bfa:	e013      	b.n	10003c24 <xQueueGenericSend+0xbc>
10003bfc:	3d01      	subs	r5, #1
10003bfe:	b2eb      	uxtb	r3, r5
10003c00:	b26d      	sxtb	r5, r5
10003c02:	2b00      	cmp	r3, #0
10003c04:	d00e      	beq.n	10003c24 <xQueueGenericSend+0xbc>
10003c06:	6a63      	ldr	r3, [r4, #36]	; 0x24
10003c08:	2b00      	cmp	r3, #0
10003c0a:	d00b      	beq.n	10003c24 <xQueueGenericSend+0xbc>
10003c0c:	0030      	movs	r0, r6
10003c0e:	f7fe ffe9 	bl	10002be4 <xTaskRemoveFromEventList>
10003c12:	2800      	cmp	r0, #0
10003c14:	d0f2      	beq.n	10003bfc <xQueueGenericSend+0x94>
10003c16:	3d01      	subs	r5, #1
10003c18:	f7ff f8d0 	bl	10002dbc <vTaskMissedYield>
10003c1c:	b2eb      	uxtb	r3, r5
10003c1e:	b26d      	sxtb	r5, r5
10003c20:	2b00      	cmp	r3, #0
10003c22:	d1f0      	bne.n	10003c06 <xQueueGenericSend+0x9e>
10003c24:	2345      	movs	r3, #69	; 0x45
10003c26:	22ff      	movs	r2, #255	; 0xff
10003c28:	54e2      	strb	r2, [r4, r3]
10003c2a:	f7ff fe3f 	bl	100038ac <vPortExitCritical>
10003c2e:	f7ff fe31 	bl	10003894 <vPortEnterCritical>
10003c32:	2344      	movs	r3, #68	; 0x44
10003c34:	0027      	movs	r7, r4
10003c36:	5ce5      	ldrb	r5, [r4, r3]
10003c38:	3710      	adds	r7, #16
10003c3a:	b26d      	sxtb	r5, r5
10003c3c:	2d00      	cmp	r5, #0
10003c3e:	dc05      	bgt.n	10003c4c <xQueueGenericSend+0xe4>
10003c40:	e013      	b.n	10003c6a <xQueueGenericSend+0x102>
10003c42:	3d01      	subs	r5, #1
10003c44:	b2eb      	uxtb	r3, r5
10003c46:	b26d      	sxtb	r5, r5
10003c48:	2b00      	cmp	r3, #0
10003c4a:	d00e      	beq.n	10003c6a <xQueueGenericSend+0x102>
10003c4c:	6923      	ldr	r3, [r4, #16]
10003c4e:	2b00      	cmp	r3, #0
10003c50:	d00b      	beq.n	10003c6a <xQueueGenericSend+0x102>
10003c52:	0038      	movs	r0, r7
10003c54:	f7fe ffc6 	bl	10002be4 <xTaskRemoveFromEventList>
10003c58:	2800      	cmp	r0, #0
10003c5a:	d0f2      	beq.n	10003c42 <xQueueGenericSend+0xda>
10003c5c:	3d01      	subs	r5, #1
10003c5e:	f7ff f8ad 	bl	10002dbc <vTaskMissedYield>
10003c62:	b2eb      	uxtb	r3, r5
10003c64:	b26d      	sxtb	r5, r5
10003c66:	2b00      	cmp	r3, #0
10003c68:	d1f0      	bne.n	10003c4c <xQueueGenericSend+0xe4>
10003c6a:	2344      	movs	r3, #68	; 0x44
10003c6c:	22ff      	movs	r2, #255	; 0xff
10003c6e:	54e2      	strb	r2, [r4, r3]
10003c70:	f7ff fe1c 	bl	100038ac <vPortExitCritical>
10003c74:	f7fe fd48 	bl	10002708 <xTaskResumeAll>
10003c78:	2501      	movs	r5, #1
10003c7a:	f7ff fe0b 	bl	10003894 <vPortEnterCritical>
10003c7e:	6ba3      	ldr	r3, [r4, #56]	; 0x38
10003c80:	6be2      	ldr	r2, [r4, #60]	; 0x3c
10003c82:	4293      	cmp	r3, r2
10003c84:	d282      	bcs.n	10003b8c <xQueueGenericSend+0x24>
10003c86:	6c22      	ldr	r2, [r4, #64]	; 0x40
10003c88:	6ba5      	ldr	r5, [r4, #56]	; 0x38
10003c8a:	2a00      	cmp	r2, #0
10003c8c:	d000      	beq.n	10003c90 <xQueueGenericSend+0x128>
10003c8e:	e0cd      	b.n	10003e2c <xQueueGenericSend+0x2c4>
10003c90:	3501      	adds	r5, #1
10003c92:	63a5      	str	r5, [r4, #56]	; 0x38
10003c94:	6a63      	ldr	r3, [r4, #36]	; 0x24
10003c96:	2b00      	cmp	r3, #0
10003c98:	d000      	beq.n	10003c9c <xQueueGenericSend+0x134>
10003c9a:	e0db      	b.n	10003e54 <xQueueGenericSend+0x2ec>
10003c9c:	f7ff fe06 	bl	100038ac <vPortExitCritical>
10003ca0:	2001      	movs	r0, #1
10003ca2:	b005      	add	sp, #20
10003ca4:	bcc0      	pop	{r6, r7}
10003ca6:	46b9      	mov	r9, r7
10003ca8:	46b0      	mov	r8, r6
10003caa:	bdf0      	pop	{r4, r5, r6, r7, pc}
10003cac:	0027      	movs	r7, r4
10003cae:	3710      	adds	r7, #16
10003cb0:	f7ff fdfc 	bl	100038ac <vPortExitCritical>
10003cb4:	0038      	movs	r0, r7
10003cb6:	9901      	ldr	r1, [sp, #4]
10003cb8:	f7fe febe 	bl	10002a38 <vTaskPlaceOnEventList>
10003cbc:	f7ff fdea 	bl	10003894 <vPortEnterCritical>
10003cc0:	2345      	movs	r3, #69	; 0x45
10003cc2:	5ce5      	ldrb	r5, [r4, r3]
10003cc4:	b26d      	sxtb	r5, r5
10003cc6:	2d00      	cmp	r5, #0
10003cc8:	dc05      	bgt.n	10003cd6 <xQueueGenericSend+0x16e>
10003cca:	e013      	b.n	10003cf4 <xQueueGenericSend+0x18c>
10003ccc:	3d01      	subs	r5, #1
10003cce:	b2ea      	uxtb	r2, r5
10003cd0:	b26d      	sxtb	r5, r5
10003cd2:	2a00      	cmp	r2, #0
10003cd4:	d00e      	beq.n	10003cf4 <xQueueGenericSend+0x18c>
10003cd6:	6a63      	ldr	r3, [r4, #36]	; 0x24
10003cd8:	2b00      	cmp	r3, #0
10003cda:	d00b      	beq.n	10003cf4 <xQueueGenericSend+0x18c>
10003cdc:	0030      	movs	r0, r6
10003cde:	f7fe ff81 	bl	10002be4 <xTaskRemoveFromEventList>
10003ce2:	2800      	cmp	r0, #0
10003ce4:	d0f2      	beq.n	10003ccc <xQueueGenericSend+0x164>
10003ce6:	3d01      	subs	r5, #1
10003ce8:	f7ff f868 	bl	10002dbc <vTaskMissedYield>
10003cec:	b2ea      	uxtb	r2, r5
10003cee:	b26d      	sxtb	r5, r5
10003cf0:	2a00      	cmp	r2, #0
10003cf2:	d1f0      	bne.n	10003cd6 <xQueueGenericSend+0x16e>
10003cf4:	2345      	movs	r3, #69	; 0x45
10003cf6:	22ff      	movs	r2, #255	; 0xff
10003cf8:	54e2      	strb	r2, [r4, r3]
10003cfa:	f7ff fdd7 	bl	100038ac <vPortExitCritical>
10003cfe:	f7ff fdc9 	bl	10003894 <vPortEnterCritical>
10003d02:	2344      	movs	r3, #68	; 0x44
10003d04:	5ce5      	ldrb	r5, [r4, r3]
10003d06:	b26d      	sxtb	r5, r5
10003d08:	2d00      	cmp	r5, #0
10003d0a:	dc05      	bgt.n	10003d18 <xQueueGenericSend+0x1b0>
10003d0c:	e013      	b.n	10003d36 <xQueueGenericSend+0x1ce>
10003d0e:	3d01      	subs	r5, #1
10003d10:	b2ea      	uxtb	r2, r5
10003d12:	b26d      	sxtb	r5, r5
10003d14:	2a00      	cmp	r2, #0
10003d16:	d00e      	beq.n	10003d36 <xQueueGenericSend+0x1ce>
10003d18:	6923      	ldr	r3, [r4, #16]
10003d1a:	2b00      	cmp	r3, #0
10003d1c:	d00b      	beq.n	10003d36 <xQueueGenericSend+0x1ce>
10003d1e:	0038      	movs	r0, r7
10003d20:	f7fe ff60 	bl	10002be4 <xTaskRemoveFromEventList>
10003d24:	2800      	cmp	r0, #0
10003d26:	d0f2      	beq.n	10003d0e <xQueueGenericSend+0x1a6>
10003d28:	3d01      	subs	r5, #1
10003d2a:	f7ff f847 	bl	10002dbc <vTaskMissedYield>
10003d2e:	b2ea      	uxtb	r2, r5
10003d30:	b26d      	sxtb	r5, r5
10003d32:	2a00      	cmp	r2, #0
10003d34:	d1f0      	bne.n	10003d18 <xQueueGenericSend+0x1b0>
10003d36:	2344      	movs	r3, #68	; 0x44
10003d38:	22ff      	movs	r2, #255	; 0xff
10003d3a:	54e2      	strb	r2, [r4, r3]
10003d3c:	f7ff fdb6 	bl	100038ac <vPortExitCritical>
10003d40:	f7fe fce2 	bl	10002708 <xTaskResumeAll>
10003d44:	2800      	cmp	r0, #0
10003d46:	d197      	bne.n	10003c78 <xQueueGenericSend+0x110>
10003d48:	f7ff fd98 	bl	1000387c <vPortYield>
10003d4c:	2501      	movs	r5, #1
10003d4e:	e794      	b.n	10003c7a <xQueueGenericSend+0x112>
10003d50:	a802      	add	r0, sp, #8
10003d52:	f7ff f803 	bl	10002d5c <vTaskInternalSetTimeOutState>
10003d56:	e724      	b.n	10003ba2 <xQueueGenericSend+0x3a>
10003d58:	6c22      	ldr	r2, [r4, #64]	; 0x40
10003d5a:	6ba5      	ldr	r5, [r4, #56]	; 0x38
10003d5c:	2a00      	cmp	r2, #0
10003d5e:	d097      	beq.n	10003c90 <xQueueGenericSend+0x128>
10003d60:	4641      	mov	r1, r8
10003d62:	68e0      	ldr	r0, [r4, #12]
10003d64:	f7fd fe2c 	bl	100019c0 <__wrap___aeabi_memcpy>
10003d68:	68e1      	ldr	r1, [r4, #12]
10003d6a:	6c23      	ldr	r3, [r4, #64]	; 0x40
10003d6c:	425a      	negs	r2, r3
10003d6e:	1acb      	subs	r3, r1, r3
10003d70:	6821      	ldr	r1, [r4, #0]
10003d72:	60e3      	str	r3, [r4, #12]
10003d74:	428b      	cmp	r3, r1
10003d76:	d207      	bcs.n	10003d88 <xQueueGenericSend+0x220>
10003d78:	68a3      	ldr	r3, [r4, #8]
10003d7a:	469c      	mov	ip, r3
10003d7c:	4462      	add	r2, ip
10003d7e:	60e2      	str	r2, [r4, #12]
10003d80:	464b      	mov	r3, r9
10003d82:	2b02      	cmp	r3, #2
10003d84:	d000      	beq.n	10003d88 <xQueueGenericSend+0x220>
10003d86:	e783      	b.n	10003c90 <xQueueGenericSend+0x128>
10003d88:	2d00      	cmp	r5, #0
10003d8a:	d000      	beq.n	10003d8e <xQueueGenericSend+0x226>
10003d8c:	e781      	b.n	10003c92 <xQueueGenericSend+0x12a>
10003d8e:	e77f      	b.n	10003c90 <xQueueGenericSend+0x128>
10003d90:	f7ff fd8c 	bl	100038ac <vPortExitCritical>
10003d94:	2000      	movs	r0, #0
10003d96:	e784      	b.n	10003ca2 <xQueueGenericSend+0x13a>
10003d98:	f7ff fd7c 	bl	10003894 <vPortEnterCritical>
10003d9c:	2345      	movs	r3, #69	; 0x45
10003d9e:	0026      	movs	r6, r4
10003da0:	5ce5      	ldrb	r5, [r4, r3]
10003da2:	3624      	adds	r6, #36	; 0x24
10003da4:	b26d      	sxtb	r5, r5
10003da6:	2d00      	cmp	r5, #0
10003da8:	dc05      	bgt.n	10003db6 <xQueueGenericSend+0x24e>
10003daa:	e013      	b.n	10003dd4 <xQueueGenericSend+0x26c>
10003dac:	3d01      	subs	r5, #1
10003dae:	b2ea      	uxtb	r2, r5
10003db0:	b26d      	sxtb	r5, r5
10003db2:	2a00      	cmp	r2, #0
10003db4:	d00e      	beq.n	10003dd4 <xQueueGenericSend+0x26c>
10003db6:	6a63      	ldr	r3, [r4, #36]	; 0x24
10003db8:	2b00      	cmp	r3, #0
10003dba:	d00b      	beq.n	10003dd4 <xQueueGenericSend+0x26c>
10003dbc:	0030      	movs	r0, r6
10003dbe:	f7fe ff11 	bl	10002be4 <xTaskRemoveFromEventList>
10003dc2:	2800      	cmp	r0, #0
10003dc4:	d0f2      	beq.n	10003dac <xQueueGenericSend+0x244>
10003dc6:	3d01      	subs	r5, #1
10003dc8:	f7fe fff8 	bl	10002dbc <vTaskMissedYield>
10003dcc:	b2ea      	uxtb	r2, r5
10003dce:	b26d      	sxtb	r5, r5
10003dd0:	2a00      	cmp	r2, #0
10003dd2:	d1f0      	bne.n	10003db6 <xQueueGenericSend+0x24e>
10003dd4:	2345      	movs	r3, #69	; 0x45
10003dd6:	22ff      	movs	r2, #255	; 0xff
10003dd8:	54e2      	strb	r2, [r4, r3]
10003dda:	f7ff fd67 	bl	100038ac <vPortExitCritical>
10003dde:	f7ff fd59 	bl	10003894 <vPortEnterCritical>
10003de2:	2344      	movs	r3, #68	; 0x44
10003de4:	0026      	movs	r6, r4
10003de6:	5ce5      	ldrb	r5, [r4, r3]
10003de8:	3610      	adds	r6, #16
10003dea:	b26d      	sxtb	r5, r5
10003dec:	2d00      	cmp	r5, #0
10003dee:	dc05      	bgt.n	10003dfc <xQueueGenericSend+0x294>
10003df0:	e013      	b.n	10003e1a <xQueueGenericSend+0x2b2>
10003df2:	3d01      	subs	r5, #1
10003df4:	b2ea      	uxtb	r2, r5
10003df6:	b26d      	sxtb	r5, r5
10003df8:	2a00      	cmp	r2, #0
10003dfa:	d00e      	beq.n	10003e1a <xQueueGenericSend+0x2b2>
10003dfc:	6923      	ldr	r3, [r4, #16]
10003dfe:	2b00      	cmp	r3, #0
10003e00:	d00b      	beq.n	10003e1a <xQueueGenericSend+0x2b2>
10003e02:	0030      	movs	r0, r6
10003e04:	f7fe feee 	bl	10002be4 <xTaskRemoveFromEventList>
10003e08:	2800      	cmp	r0, #0
10003e0a:	d0f2      	beq.n	10003df2 <xQueueGenericSend+0x28a>
10003e0c:	3d01      	subs	r5, #1
10003e0e:	f7fe ffd5 	bl	10002dbc <vTaskMissedYield>
10003e12:	b2ea      	uxtb	r2, r5
10003e14:	b26d      	sxtb	r5, r5
10003e16:	2a00      	cmp	r2, #0
10003e18:	d1f0      	bne.n	10003dfc <xQueueGenericSend+0x294>
10003e1a:	2344      	movs	r3, #68	; 0x44
10003e1c:	22ff      	movs	r2, #255	; 0xff
10003e1e:	54e2      	strb	r2, [r4, r3]
10003e20:	f7ff fd44 	bl	100038ac <vPortExitCritical>
10003e24:	f7fe fc70 	bl	10002708 <xTaskResumeAll>
10003e28:	2000      	movs	r0, #0
10003e2a:	e73a      	b.n	10003ca2 <xQueueGenericSend+0x13a>
10003e2c:	464b      	mov	r3, r9
10003e2e:	4641      	mov	r1, r8
10003e30:	2b00      	cmp	r3, #0
10003e32:	d119      	bne.n	10003e68 <xQueueGenericSend+0x300>
10003e34:	6860      	ldr	r0, [r4, #4]
10003e36:	f7fd fdc3 	bl	100019c0 <__wrap___aeabi_memcpy>
10003e3a:	6c22      	ldr	r2, [r4, #64]	; 0x40
10003e3c:	6863      	ldr	r3, [r4, #4]
10003e3e:	4694      	mov	ip, r2
10003e40:	68a2      	ldr	r2, [r4, #8]
10003e42:	4463      	add	r3, ip
10003e44:	6063      	str	r3, [r4, #4]
10003e46:	4293      	cmp	r3, r2
10003e48:	d200      	bcs.n	10003e4c <xQueueGenericSend+0x2e4>
10003e4a:	e721      	b.n	10003c90 <xQueueGenericSend+0x128>
10003e4c:	6823      	ldr	r3, [r4, #0]
10003e4e:	3501      	adds	r5, #1
10003e50:	6063      	str	r3, [r4, #4]
10003e52:	e71e      	b.n	10003c92 <xQueueGenericSend+0x12a>
10003e54:	0020      	movs	r0, r4
10003e56:	3024      	adds	r0, #36	; 0x24
10003e58:	f7fe fec4 	bl	10002be4 <xTaskRemoveFromEventList>
10003e5c:	2800      	cmp	r0, #0
10003e5e:	d100      	bne.n	10003e62 <xQueueGenericSend+0x2fa>
10003e60:	e71c      	b.n	10003c9c <xQueueGenericSend+0x134>
10003e62:	f7ff fd0b 	bl	1000387c <vPortYield>
10003e66:	e719      	b.n	10003c9c <xQueueGenericSend+0x134>
10003e68:	68e0      	ldr	r0, [r4, #12]
10003e6a:	f7fd fda9 	bl	100019c0 <__wrap___aeabi_memcpy>
10003e6e:	68e1      	ldr	r1, [r4, #12]
10003e70:	6c23      	ldr	r3, [r4, #64]	; 0x40
10003e72:	425a      	negs	r2, r3
10003e74:	1acb      	subs	r3, r1, r3
10003e76:	6821      	ldr	r1, [r4, #0]
10003e78:	60e3      	str	r3, [r4, #12]
10003e7a:	428b      	cmp	r3, r1
10003e7c:	d280      	bcs.n	10003d80 <xQueueGenericSend+0x218>
10003e7e:	e77b      	b.n	10003d78 <xQueueGenericSend+0x210>

10003e80 <xQueueGenericSendFromISR>:
10003e80:	b5f0      	push	{r4, r5, r6, r7, lr}
10003e82:	464f      	mov	r7, r9
10003e84:	46d6      	mov	lr, sl
10003e86:	4646      	mov	r6, r8
10003e88:	b5c0      	push	{r6, r7, lr}
10003e8a:	0004      	movs	r4, r0
10003e8c:	4699      	mov	r9, r3
10003e8e:	000f      	movs	r7, r1
10003e90:	4690      	mov	r8, r2
10003e92:	f7ff fd15 	bl	100038c0 <ulSetInterruptMaskFromISR>
10003e96:	6be3      	ldr	r3, [r4, #60]	; 0x3c
10003e98:	0005      	movs	r5, r0
10003e9a:	6ba0      	ldr	r0, [r4, #56]	; 0x38
10003e9c:	4298      	cmp	r0, r3
10003e9e:	d337      	bcc.n	10003f10 <xQueueGenericSendFromISR+0x90>
10003ea0:	464b      	mov	r3, r9
10003ea2:	2b02      	cmp	r3, #2
10003ea4:	d009      	beq.n	10003eba <xQueueGenericSendFromISR+0x3a>
10003ea6:	2400      	movs	r4, #0
10003ea8:	0028      	movs	r0, r5
10003eaa:	f7ff fd0d 	bl	100038c8 <vClearInterruptMaskFromISR>
10003eae:	0020      	movs	r0, r4
10003eb0:	bce0      	pop	{r5, r6, r7}
10003eb2:	46ba      	mov	sl, r7
10003eb4:	46b1      	mov	r9, r6
10003eb6:	46a8      	mov	r8, r5
10003eb8:	bdf0      	pop	{r4, r5, r6, r7, pc}
10003eba:	2345      	movs	r3, #69	; 0x45
10003ebc:	6c22      	ldr	r2, [r4, #64]	; 0x40
10003ebe:	5ce6      	ldrb	r6, [r4, r3]
10003ec0:	6ba3      	ldr	r3, [r4, #56]	; 0x38
10003ec2:	6ba3      	ldr	r3, [r4, #56]	; 0x38
10003ec4:	b276      	sxtb	r6, r6
10003ec6:	469a      	mov	sl, r3
10003ec8:	2a00      	cmp	r2, #0
10003eca:	d02a      	beq.n	10003f22 <xQueueGenericSendFromISR+0xa2>
10003ecc:	0039      	movs	r1, r7
10003ece:	68e0      	ldr	r0, [r4, #12]
10003ed0:	f7fd fd76 	bl	100019c0 <__wrap___aeabi_memcpy>
10003ed4:	68e1      	ldr	r1, [r4, #12]
10003ed6:	6c23      	ldr	r3, [r4, #64]	; 0x40
10003ed8:	425a      	negs	r2, r3
10003eda:	1acb      	subs	r3, r1, r3
10003edc:	6821      	ldr	r1, [r4, #0]
10003ede:	60e3      	str	r3, [r4, #12]
10003ee0:	428b      	cmp	r3, r1
10003ee2:	d249      	bcs.n	10003f78 <xQueueGenericSendFromISR+0xf8>
10003ee4:	68a3      	ldr	r3, [r4, #8]
10003ee6:	469c      	mov	ip, r3
10003ee8:	4462      	add	r2, ip
10003eea:	60e2      	str	r2, [r4, #12]
10003eec:	464b      	mov	r3, r9
10003eee:	2b02      	cmp	r3, #2
10003ef0:	d042      	beq.n	10003f78 <xQueueGenericSendFromISR+0xf8>
10003ef2:	4653      	mov	r3, sl
10003ef4:	3301      	adds	r3, #1
10003ef6:	63a3      	str	r3, [r4, #56]	; 0x38
10003ef8:	1c73      	adds	r3, r6, #1
10003efa:	d016      	beq.n	10003f2a <xQueueGenericSendFromISR+0xaa>
10003efc:	f7fe fd12 	bl	10002924 <uxTaskGetNumberOfTasks>
10003f00:	4286      	cmp	r6, r0
10003f02:	d215      	bcs.n	10003f30 <xQueueGenericSendFromISR+0xb0>
10003f04:	2345      	movs	r3, #69	; 0x45
10003f06:	3601      	adds	r6, #1
10003f08:	b276      	sxtb	r6, r6
10003f0a:	54e6      	strb	r6, [r4, r3]
10003f0c:	2401      	movs	r4, #1
10003f0e:	e7cb      	b.n	10003ea8 <xQueueGenericSendFromISR+0x28>
10003f10:	2345      	movs	r3, #69	; 0x45
10003f12:	6c22      	ldr	r2, [r4, #64]	; 0x40
10003f14:	5ce6      	ldrb	r6, [r4, r3]
10003f16:	6ba3      	ldr	r3, [r4, #56]	; 0x38
10003f18:	6ba3      	ldr	r3, [r4, #56]	; 0x38
10003f1a:	b276      	sxtb	r6, r6
10003f1c:	469a      	mov	sl, r3
10003f1e:	2a00      	cmp	r2, #0
10003f20:	d108      	bne.n	10003f34 <xQueueGenericSendFromISR+0xb4>
10003f22:	3301      	adds	r3, #1
10003f24:	63a3      	str	r3, [r4, #56]	; 0x38
10003f26:	1c73      	adds	r3, r6, #1
10003f28:	d1e8      	bne.n	10003efc <xQueueGenericSendFromISR+0x7c>
10003f2a:	6a63      	ldr	r3, [r4, #36]	; 0x24
10003f2c:	2b00      	cmp	r3, #0
10003f2e:	d115      	bne.n	10003f5c <xQueueGenericSendFromISR+0xdc>
10003f30:	2401      	movs	r4, #1
10003f32:	e7b9      	b.n	10003ea8 <xQueueGenericSendFromISR+0x28>
10003f34:	464b      	mov	r3, r9
10003f36:	0039      	movs	r1, r7
10003f38:	2b00      	cmp	r3, #0
10003f3a:	d121      	bne.n	10003f80 <xQueueGenericSendFromISR+0x100>
10003f3c:	6860      	ldr	r0, [r4, #4]
10003f3e:	f7fd fd3f 	bl	100019c0 <__wrap___aeabi_memcpy>
10003f42:	6c22      	ldr	r2, [r4, #64]	; 0x40
10003f44:	6863      	ldr	r3, [r4, #4]
10003f46:	4694      	mov	ip, r2
10003f48:	68a2      	ldr	r2, [r4, #8]
10003f4a:	4463      	add	r3, ip
10003f4c:	6063      	str	r3, [r4, #4]
10003f4e:	4293      	cmp	r3, r2
10003f50:	d3cf      	bcc.n	10003ef2 <xQueueGenericSendFromISR+0x72>
10003f52:	6823      	ldr	r3, [r4, #0]
10003f54:	6063      	str	r3, [r4, #4]
10003f56:	4653      	mov	r3, sl
10003f58:	3301      	adds	r3, #1
10003f5a:	e7e3      	b.n	10003f24 <xQueueGenericSendFromISR+0xa4>
10003f5c:	0020      	movs	r0, r4
10003f5e:	3024      	adds	r0, #36	; 0x24
10003f60:	f7fe fe40 	bl	10002be4 <xTaskRemoveFromEventList>
10003f64:	2800      	cmp	r0, #0
10003f66:	d0e3      	beq.n	10003f30 <xQueueGenericSendFromISR+0xb0>
10003f68:	4643      	mov	r3, r8
10003f6a:	2b00      	cmp	r3, #0
10003f6c:	d0e0      	beq.n	10003f30 <xQueueGenericSendFromISR+0xb0>
10003f6e:	2301      	movs	r3, #1
10003f70:	4642      	mov	r2, r8
10003f72:	2401      	movs	r4, #1
10003f74:	6013      	str	r3, [r2, #0]
10003f76:	e797      	b.n	10003ea8 <xQueueGenericSendFromISR+0x28>
10003f78:	4653      	mov	r3, sl
10003f7a:	2b00      	cmp	r3, #0
10003f7c:	d1d2      	bne.n	10003f24 <xQueueGenericSendFromISR+0xa4>
10003f7e:	e7d0      	b.n	10003f22 <xQueueGenericSendFromISR+0xa2>
10003f80:	68e0      	ldr	r0, [r4, #12]
10003f82:	f7fd fd1d 	bl	100019c0 <__wrap___aeabi_memcpy>
10003f86:	68e1      	ldr	r1, [r4, #12]
10003f88:	6c23      	ldr	r3, [r4, #64]	; 0x40
10003f8a:	425a      	negs	r2, r3
10003f8c:	1acb      	subs	r3, r1, r3
10003f8e:	6821      	ldr	r1, [r4, #0]
10003f90:	60e3      	str	r3, [r4, #12]
10003f92:	428b      	cmp	r3, r1
10003f94:	d2aa      	bcs.n	10003eec <xQueueGenericSendFromISR+0x6c>
10003f96:	e7a5      	b.n	10003ee4 <xQueueGenericSendFromISR+0x64>

10003f98 <xQueueGiveFromISR>:
10003f98:	b5f0      	push	{r4, r5, r6, r7, lr}
10003f9a:	46c6      	mov	lr, r8
10003f9c:	0004      	movs	r4, r0
10003f9e:	b500      	push	{lr}
10003fa0:	000e      	movs	r6, r1
10003fa2:	f7ff fc8d 	bl	100038c0 <ulSetInterruptMaskFromISR>
10003fa6:	6ba3      	ldr	r3, [r4, #56]	; 0x38
10003fa8:	6be2      	ldr	r2, [r4, #60]	; 0x3c
10003faa:	0005      	movs	r5, r0
10003fac:	2700      	movs	r7, #0
10003fae:	429a      	cmp	r2, r3
10003fb0:	d90b      	bls.n	10003fca <xQueueGiveFromISR+0x32>
10003fb2:	2245      	movs	r2, #69	; 0x45
10003fb4:	5ca7      	ldrb	r7, [r4, r2]
10003fb6:	3301      	adds	r3, #1
10003fb8:	b27f      	sxtb	r7, r7
10003fba:	4690      	mov	r8, r2
10003fbc:	63a3      	str	r3, [r4, #56]	; 0x38
10003fbe:	1c7b      	adds	r3, r7, #1
10003fc0:	d10a      	bne.n	10003fd8 <xQueueGiveFromISR+0x40>
10003fc2:	6a63      	ldr	r3, [r4, #36]	; 0x24
10003fc4:	2b00      	cmp	r3, #0
10003fc6:	d111      	bne.n	10003fec <xQueueGiveFromISR+0x54>
10003fc8:	2701      	movs	r7, #1
10003fca:	0028      	movs	r0, r5
10003fcc:	f7ff fc7c 	bl	100038c8 <vClearInterruptMaskFromISR>
10003fd0:	0038      	movs	r0, r7
10003fd2:	bc80      	pop	{r7}
10003fd4:	46b8      	mov	r8, r7
10003fd6:	bdf0      	pop	{r4, r5, r6, r7, pc}
10003fd8:	f7fe fca4 	bl	10002924 <uxTaskGetNumberOfTasks>
10003fdc:	4287      	cmp	r7, r0
10003fde:	d2f3      	bcs.n	10003fc8 <xQueueGiveFromISR+0x30>
10003fe0:	4643      	mov	r3, r8
10003fe2:	3701      	adds	r7, #1
10003fe4:	b27f      	sxtb	r7, r7
10003fe6:	54e7      	strb	r7, [r4, r3]
10003fe8:	2701      	movs	r7, #1
10003fea:	e7ee      	b.n	10003fca <xQueueGiveFromISR+0x32>
10003fec:	0020      	movs	r0, r4
10003fee:	3024      	adds	r0, #36	; 0x24
10003ff0:	f7fe fdf8 	bl	10002be4 <xTaskRemoveFromEventList>
10003ff4:	2800      	cmp	r0, #0
10003ff6:	d0e7      	beq.n	10003fc8 <xQueueGiveFromISR+0x30>
10003ff8:	2e00      	cmp	r6, #0
10003ffa:	d0e5      	beq.n	10003fc8 <xQueueGiveFromISR+0x30>
10003ffc:	2301      	movs	r3, #1
10003ffe:	2701      	movs	r7, #1
10004000:	6033      	str	r3, [r6, #0]
10004002:	e7e2      	b.n	10003fca <xQueueGiveFromISR+0x32>

10004004 <xQueueReceive>:
10004004:	b5f0      	push	{r4, r5, r6, r7, lr}
10004006:	46ce      	mov	lr, r9
10004008:	4647      	mov	r7, r8
1000400a:	0004      	movs	r4, r0
1000400c:	b580      	push	{r7, lr}
1000400e:	b085      	sub	sp, #20
10004010:	4688      	mov	r8, r1
10004012:	9201      	str	r2, [sp, #4]
10004014:	f7ff fc3e 	bl	10003894 <vPortEnterCritical>
10004018:	6ba5      	ldr	r5, [r4, #56]	; 0x38
1000401a:	2d00      	cmp	r5, #0
1000401c:	d000      	beq.n	10004020 <xQueueReceive+0x1c>
1000401e:	e11f      	b.n	10004260 <xQueueReceive+0x25c>
10004020:	9b01      	ldr	r3, [sp, #4]
10004022:	2b00      	cmp	r3, #0
10004024:	d100      	bne.n	10004028 <xQueueReceive+0x24>
10004026:	e0cb      	b.n	100041c0 <xQueueReceive+0x1bc>
10004028:	0026      	movs	r6, r4
1000402a:	a802      	add	r0, sp, #8
1000402c:	f7fe fe96 	bl	10002d5c <vTaskInternalSetTimeOutState>
10004030:	2744      	movs	r7, #68	; 0x44
10004032:	3624      	adds	r6, #36	; 0x24
10004034:	f7ff fc3a 	bl	100038ac <vPortExitCritical>
10004038:	f7fe fb5e 	bl	100026f8 <vTaskSuspendAll>
1000403c:	f7ff fc2a 	bl	10003894 <vPortEnterCritical>
10004040:	5de3      	ldrb	r3, [r4, r7]
10004042:	b25b      	sxtb	r3, r3
10004044:	3301      	adds	r3, #1
10004046:	d101      	bne.n	1000404c <xQueueReceive+0x48>
10004048:	2300      	movs	r3, #0
1000404a:	55e3      	strb	r3, [r4, r7]
1000404c:	2245      	movs	r2, #69	; 0x45
1000404e:	5ca3      	ldrb	r3, [r4, r2]
10004050:	b25b      	sxtb	r3, r3
10004052:	3301      	adds	r3, #1
10004054:	d101      	bne.n	1000405a <xQueueReceive+0x56>
10004056:	2300      	movs	r3, #0
10004058:	54a3      	strb	r3, [r4, r2]
1000405a:	f7ff fc27 	bl	100038ac <vPortExitCritical>
1000405e:	a901      	add	r1, sp, #4
10004060:	a802      	add	r0, sp, #8
10004062:	f7fe fe83 	bl	10002d6c <xTaskCheckForTimeOut>
10004066:	2800      	cmp	r0, #0
10004068:	d155      	bne.n	10004116 <xQueueReceive+0x112>
1000406a:	f7ff fc13 	bl	10003894 <vPortEnterCritical>
1000406e:	6ba3      	ldr	r3, [r4, #56]	; 0x38
10004070:	2b00      	cmp	r3, #0
10004072:	d000      	beq.n	10004076 <xQueueReceive+0x72>
10004074:	e0ac      	b.n	100041d0 <xQueueReceive+0x1cc>
10004076:	f7ff fc19 	bl	100038ac <vPortExitCritical>
1000407a:	0030      	movs	r0, r6
1000407c:	9901      	ldr	r1, [sp, #4]
1000407e:	f7fe fcdb 	bl	10002a38 <vTaskPlaceOnEventList>
10004082:	f7ff fc07 	bl	10003894 <vPortEnterCritical>
10004086:	2345      	movs	r3, #69	; 0x45
10004088:	5ce5      	ldrb	r5, [r4, r3]
1000408a:	b26d      	sxtb	r5, r5
1000408c:	2d00      	cmp	r5, #0
1000408e:	dc05      	bgt.n	1000409c <xQueueReceive+0x98>
10004090:	e013      	b.n	100040ba <xQueueReceive+0xb6>
10004092:	3d01      	subs	r5, #1
10004094:	b2ea      	uxtb	r2, r5
10004096:	b26d      	sxtb	r5, r5
10004098:	2a00      	cmp	r2, #0
1000409a:	d00e      	beq.n	100040ba <xQueueReceive+0xb6>
1000409c:	6a63      	ldr	r3, [r4, #36]	; 0x24
1000409e:	2b00      	cmp	r3, #0
100040a0:	d00b      	beq.n	100040ba <xQueueReceive+0xb6>
100040a2:	0030      	movs	r0, r6
100040a4:	f7fe fd9e 	bl	10002be4 <xTaskRemoveFromEventList>
100040a8:	2800      	cmp	r0, #0
100040aa:	d0f2      	beq.n	10004092 <xQueueReceive+0x8e>
100040ac:	3d01      	subs	r5, #1
100040ae:	f7fe fe85 	bl	10002dbc <vTaskMissedYield>
100040b2:	b2ea      	uxtb	r2, r5
100040b4:	b26d      	sxtb	r5, r5
100040b6:	2a00      	cmp	r2, #0
100040b8:	d1f0      	bne.n	1000409c <xQueueReceive+0x98>
100040ba:	2345      	movs	r3, #69	; 0x45
100040bc:	22ff      	movs	r2, #255	; 0xff
100040be:	54e2      	strb	r2, [r4, r3]
100040c0:	f7ff fbf4 	bl	100038ac <vPortExitCritical>
100040c4:	f7ff fbe6 	bl	10003894 <vPortEnterCritical>
100040c8:	2310      	movs	r3, #16
100040ca:	4699      	mov	r9, r3
100040cc:	5de5      	ldrb	r5, [r4, r7]
100040ce:	44a1      	add	r9, r4
100040d0:	b26d      	sxtb	r5, r5
100040d2:	2d00      	cmp	r5, #0
100040d4:	dc05      	bgt.n	100040e2 <xQueueReceive+0xde>
100040d6:	e013      	b.n	10004100 <xQueueReceive+0xfc>
100040d8:	3d01      	subs	r5, #1
100040da:	b2ea      	uxtb	r2, r5
100040dc:	b26d      	sxtb	r5, r5
100040de:	2a00      	cmp	r2, #0
100040e0:	d00e      	beq.n	10004100 <xQueueReceive+0xfc>
100040e2:	6923      	ldr	r3, [r4, #16]
100040e4:	2b00      	cmp	r3, #0
100040e6:	d00b      	beq.n	10004100 <xQueueReceive+0xfc>
100040e8:	4648      	mov	r0, r9
100040ea:	f7fe fd7b 	bl	10002be4 <xTaskRemoveFromEventList>
100040ee:	2800      	cmp	r0, #0
100040f0:	d0f2      	beq.n	100040d8 <xQueueReceive+0xd4>
100040f2:	3d01      	subs	r5, #1
100040f4:	f7fe fe62 	bl	10002dbc <vTaskMissedYield>
100040f8:	b2ea      	uxtb	r2, r5
100040fa:	b26d      	sxtb	r5, r5
100040fc:	2a00      	cmp	r2, #0
100040fe:	d1f0      	bne.n	100040e2 <xQueueReceive+0xde>
10004100:	23ff      	movs	r3, #255	; 0xff
10004102:	55e3      	strb	r3, [r4, r7]
10004104:	f7ff fbd2 	bl	100038ac <vPortExitCritical>
10004108:	f7fe fafe 	bl	10002708 <xTaskResumeAll>
1000410c:	2800      	cmp	r0, #0
1000410e:	d14e      	bne.n	100041ae <xQueueReceive+0x1aa>
10004110:	f7ff fbb4 	bl	1000387c <vPortYield>
10004114:	e04b      	b.n	100041ae <xQueueReceive+0x1aa>
10004116:	f7ff fbbd 	bl	10003894 <vPortEnterCritical>
1000411a:	2345      	movs	r3, #69	; 0x45
1000411c:	5ce5      	ldrb	r5, [r4, r3]
1000411e:	b26d      	sxtb	r5, r5
10004120:	2d00      	cmp	r5, #0
10004122:	dc05      	bgt.n	10004130 <xQueueReceive+0x12c>
10004124:	e013      	b.n	1000414e <xQueueReceive+0x14a>
10004126:	3d01      	subs	r5, #1
10004128:	b2ea      	uxtb	r2, r5
1000412a:	b26d      	sxtb	r5, r5
1000412c:	2a00      	cmp	r2, #0
1000412e:	d00e      	beq.n	1000414e <xQueueReceive+0x14a>
10004130:	6a63      	ldr	r3, [r4, #36]	; 0x24
10004132:	2b00      	cmp	r3, #0
10004134:	d00b      	beq.n	1000414e <xQueueReceive+0x14a>
10004136:	0030      	movs	r0, r6
10004138:	f7fe fd54 	bl	10002be4 <xTaskRemoveFromEventList>
1000413c:	2800      	cmp	r0, #0
1000413e:	d0f2      	beq.n	10004126 <xQueueReceive+0x122>
10004140:	3d01      	subs	r5, #1
10004142:	f7fe fe3b 	bl	10002dbc <vTaskMissedYield>
10004146:	b2ea      	uxtb	r2, r5
10004148:	b26d      	sxtb	r5, r5
1000414a:	2a00      	cmp	r2, #0
1000414c:	d1f0      	bne.n	10004130 <xQueueReceive+0x12c>
1000414e:	2345      	movs	r3, #69	; 0x45
10004150:	22ff      	movs	r2, #255	; 0xff
10004152:	54e2      	strb	r2, [r4, r3]
10004154:	f7ff fbaa 	bl	100038ac <vPortExitCritical>
10004158:	f7ff fb9c 	bl	10003894 <vPortEnterCritical>
1000415c:	2310      	movs	r3, #16
1000415e:	4699      	mov	r9, r3
10004160:	5de5      	ldrb	r5, [r4, r7]
10004162:	44a1      	add	r9, r4
10004164:	b26d      	sxtb	r5, r5
10004166:	2d00      	cmp	r5, #0
10004168:	dc05      	bgt.n	10004176 <xQueueReceive+0x172>
1000416a:	e013      	b.n	10004194 <xQueueReceive+0x190>
1000416c:	3d01      	subs	r5, #1
1000416e:	b2ea      	uxtb	r2, r5
10004170:	b26d      	sxtb	r5, r5
10004172:	2a00      	cmp	r2, #0
10004174:	d00e      	beq.n	10004194 <xQueueReceive+0x190>
10004176:	6923      	ldr	r3, [r4, #16]
10004178:	2b00      	cmp	r3, #0
1000417a:	d00b      	beq.n	10004194 <xQueueReceive+0x190>
1000417c:	4648      	mov	r0, r9
1000417e:	f7fe fd31 	bl	10002be4 <xTaskRemoveFromEventList>
10004182:	2800      	cmp	r0, #0
10004184:	d0f2      	beq.n	1000416c <xQueueReceive+0x168>
10004186:	3d01      	subs	r5, #1
10004188:	f7fe fe18 	bl	10002dbc <vTaskMissedYield>
1000418c:	b2ea      	uxtb	r2, r5
1000418e:	b26d      	sxtb	r5, r5
10004190:	2a00      	cmp	r2, #0
10004192:	d1f0      	bne.n	10004176 <xQueueReceive+0x172>
10004194:	23ff      	movs	r3, #255	; 0xff
10004196:	55e3      	strb	r3, [r4, r7]
10004198:	f7ff fb88 	bl	100038ac <vPortExitCritical>
1000419c:	f7fe fab4 	bl	10002708 <xTaskResumeAll>
100041a0:	f7ff fb78 	bl	10003894 <vPortEnterCritical>
100041a4:	6ba3      	ldr	r3, [r4, #56]	; 0x38
100041a6:	2b00      	cmp	r3, #0
100041a8:	d00a      	beq.n	100041c0 <xQueueReceive+0x1bc>
100041aa:	f7ff fb7f 	bl	100038ac <vPortExitCritical>
100041ae:	f7ff fb71 	bl	10003894 <vPortEnterCritical>
100041b2:	6ba5      	ldr	r5, [r4, #56]	; 0x38
100041b4:	2d00      	cmp	r5, #0
100041b6:	d153      	bne.n	10004260 <xQueueReceive+0x25c>
100041b8:	9b01      	ldr	r3, [sp, #4]
100041ba:	2b00      	cmp	r3, #0
100041bc:	d000      	beq.n	100041c0 <xQueueReceive+0x1bc>
100041be:	e739      	b.n	10004034 <xQueueReceive+0x30>
100041c0:	f7ff fb74 	bl	100038ac <vPortExitCritical>
100041c4:	2000      	movs	r0, #0
100041c6:	b005      	add	sp, #20
100041c8:	bcc0      	pop	{r6, r7}
100041ca:	46b9      	mov	r9, r7
100041cc:	46b0      	mov	r8, r6
100041ce:	bdf0      	pop	{r4, r5, r6, r7, pc}
100041d0:	f7ff fb6c 	bl	100038ac <vPortExitCritical>
100041d4:	f7ff fb5e 	bl	10003894 <vPortEnterCritical>
100041d8:	2345      	movs	r3, #69	; 0x45
100041da:	5ce5      	ldrb	r5, [r4, r3]
100041dc:	b26d      	sxtb	r5, r5
100041de:	2d00      	cmp	r5, #0
100041e0:	dc05      	bgt.n	100041ee <xQueueReceive+0x1ea>
100041e2:	e013      	b.n	1000420c <xQueueReceive+0x208>
100041e4:	3d01      	subs	r5, #1
100041e6:	b2ea      	uxtb	r2, r5
100041e8:	b26d      	sxtb	r5, r5
100041ea:	2a00      	cmp	r2, #0
100041ec:	d00e      	beq.n	1000420c <xQueueReceive+0x208>
100041ee:	6a63      	ldr	r3, [r4, #36]	; 0x24
100041f0:	2b00      	cmp	r3, #0
100041f2:	d00b      	beq.n	1000420c <xQueueReceive+0x208>
100041f4:	0030      	movs	r0, r6
100041f6:	f7fe fcf5 	bl	10002be4 <xTaskRemoveFromEventList>
100041fa:	2800      	cmp	r0, #0
100041fc:	d0f2      	beq.n	100041e4 <xQueueReceive+0x1e0>
100041fe:	3d01      	subs	r5, #1
10004200:	f7fe fddc 	bl	10002dbc <vTaskMissedYield>
10004204:	b2ea      	uxtb	r2, r5
10004206:	b26d      	sxtb	r5, r5
10004208:	2a00      	cmp	r2, #0
1000420a:	d1f0      	bne.n	100041ee <xQueueReceive+0x1ea>
1000420c:	2345      	movs	r3, #69	; 0x45
1000420e:	22ff      	movs	r2, #255	; 0xff
10004210:	54e2      	strb	r2, [r4, r3]
10004212:	f7ff fb4b 	bl	100038ac <vPortExitCritical>
10004216:	f7ff fb3d 	bl	10003894 <vPortEnterCritical>
1000421a:	2310      	movs	r3, #16
1000421c:	4699      	mov	r9, r3
1000421e:	5de5      	ldrb	r5, [r4, r7]
10004220:	44a1      	add	r9, r4
10004222:	b26d      	sxtb	r5, r5
10004224:	2d00      	cmp	r5, #0
10004226:	dc05      	bgt.n	10004234 <xQueueReceive+0x230>
10004228:	e013      	b.n	10004252 <xQueueReceive+0x24e>
1000422a:	3d01      	subs	r5, #1
1000422c:	b2ea      	uxtb	r2, r5
1000422e:	b26d      	sxtb	r5, r5
10004230:	2a00      	cmp	r2, #0
10004232:	d00e      	beq.n	10004252 <xQueueReceive+0x24e>
10004234:	6923      	ldr	r3, [r4, #16]
10004236:	2b00      	cmp	r3, #0
10004238:	d00b      	beq.n	10004252 <xQueueReceive+0x24e>
1000423a:	4648      	mov	r0, r9
1000423c:	f7fe fcd2 	bl	10002be4 <xTaskRemoveFromEventList>
10004240:	2800      	cmp	r0, #0
10004242:	d0f2      	beq.n	1000422a <xQueueReceive+0x226>
10004244:	3d01      	subs	r5, #1
10004246:	f7fe fdb9 	bl	10002dbc <vTaskMissedYield>
1000424a:	b2ea      	uxtb	r2, r5
1000424c:	b26d      	sxtb	r5, r5
1000424e:	2a00      	cmp	r2, #0
10004250:	d1f0      	bne.n	10004234 <xQueueReceive+0x230>
10004252:	23ff      	movs	r3, #255	; 0xff
10004254:	55e3      	strb	r3, [r4, r7]
10004256:	f7ff fb29 	bl	100038ac <vPortExitCritical>
1000425a:	f7fe fa55 	bl	10002708 <xTaskResumeAll>
1000425e:	e7a6      	b.n	100041ae <xQueueReceive+0x1aa>
10004260:	6c22      	ldr	r2, [r4, #64]	; 0x40
10004262:	2a00      	cmp	r2, #0
10004264:	d008      	beq.n	10004278 <xQueueReceive+0x274>
10004266:	68e3      	ldr	r3, [r4, #12]
10004268:	1899      	adds	r1, r3, r2
1000426a:	68a3      	ldr	r3, [r4, #8]
1000426c:	60e1      	str	r1, [r4, #12]
1000426e:	4299      	cmp	r1, r3
10004270:	d20b      	bcs.n	1000428a <xQueueReceive+0x286>
10004272:	4640      	mov	r0, r8
10004274:	f7fd fba4 	bl	100019c0 <__wrap___aeabi_memcpy>
10004278:	3d01      	subs	r5, #1
1000427a:	63a5      	str	r5, [r4, #56]	; 0x38
1000427c:	6923      	ldr	r3, [r4, #16]
1000427e:	2b00      	cmp	r3, #0
10004280:	d106      	bne.n	10004290 <xQueueReceive+0x28c>
10004282:	f7ff fb13 	bl	100038ac <vPortExitCritical>
10004286:	2001      	movs	r0, #1
10004288:	e79d      	b.n	100041c6 <xQueueReceive+0x1c2>
1000428a:	6821      	ldr	r1, [r4, #0]
1000428c:	60e1      	str	r1, [r4, #12]
1000428e:	e7f0      	b.n	10004272 <xQueueReceive+0x26e>
10004290:	0020      	movs	r0, r4
10004292:	3010      	adds	r0, #16
10004294:	f7fe fca6 	bl	10002be4 <xTaskRemoveFromEventList>
10004298:	2800      	cmp	r0, #0
1000429a:	d0f2      	beq.n	10004282 <xQueueReceive+0x27e>
1000429c:	f7ff faee 	bl	1000387c <vPortYield>
100042a0:	e7ef      	b.n	10004282 <xQueueReceive+0x27e>
100042a2:	46c0      	nop			; (mov r8, r8)

100042a4 <xQueueSemaphoreTake>:
100042a4:	b5f0      	push	{r4, r5, r6, r7, lr}
100042a6:	46c6      	mov	lr, r8
100042a8:	0004      	movs	r4, r0
100042aa:	b500      	push	{lr}
100042ac:	b084      	sub	sp, #16
100042ae:	9101      	str	r1, [sp, #4]
100042b0:	f7ff faf0 	bl	10003894 <vPortEnterCritical>
100042b4:	6ba3      	ldr	r3, [r4, #56]	; 0x38
100042b6:	2b00      	cmp	r3, #0
100042b8:	d000      	beq.n	100042bc <xQueueSemaphoreTake+0x18>
100042ba:	e122      	b.n	10004502 <xQueueSemaphoreTake+0x25e>
100042bc:	9b01      	ldr	r3, [sp, #4]
100042be:	2b00      	cmp	r3, #0
100042c0:	d100      	bne.n	100042c4 <xQueueSemaphoreTake+0x20>
100042c2:	e0cb      	b.n	1000445c <xQueueSemaphoreTake+0x1b8>
100042c4:	0026      	movs	r6, r4
100042c6:	a802      	add	r0, sp, #8
100042c8:	f7fe fd48 	bl	10002d5c <vTaskInternalSetTimeOutState>
100042cc:	2744      	movs	r7, #68	; 0x44
100042ce:	3624      	adds	r6, #36	; 0x24
100042d0:	f7ff faec 	bl	100038ac <vPortExitCritical>
100042d4:	f7fe fa10 	bl	100026f8 <vTaskSuspendAll>
100042d8:	f7ff fadc 	bl	10003894 <vPortEnterCritical>
100042dc:	5de3      	ldrb	r3, [r4, r7]
100042de:	b25b      	sxtb	r3, r3
100042e0:	3301      	adds	r3, #1
100042e2:	d101      	bne.n	100042e8 <xQueueSemaphoreTake+0x44>
100042e4:	2300      	movs	r3, #0
100042e6:	55e3      	strb	r3, [r4, r7]
100042e8:	2245      	movs	r2, #69	; 0x45
100042ea:	5ca3      	ldrb	r3, [r4, r2]
100042ec:	b25b      	sxtb	r3, r3
100042ee:	3301      	adds	r3, #1
100042f0:	d101      	bne.n	100042f6 <xQueueSemaphoreTake+0x52>
100042f2:	2300      	movs	r3, #0
100042f4:	54a3      	strb	r3, [r4, r2]
100042f6:	f7ff fad9 	bl	100038ac <vPortExitCritical>
100042fa:	a901      	add	r1, sp, #4
100042fc:	a802      	add	r0, sp, #8
100042fe:	f7fe fd35 	bl	10002d6c <xTaskCheckForTimeOut>
10004302:	2800      	cmp	r0, #0
10004304:	d155      	bne.n	100043b2 <xQueueSemaphoreTake+0x10e>
10004306:	f7ff fac5 	bl	10003894 <vPortEnterCritical>
1000430a:	6ba3      	ldr	r3, [r4, #56]	; 0x38
1000430c:	2b00      	cmp	r3, #0
1000430e:	d000      	beq.n	10004312 <xQueueSemaphoreTake+0x6e>
10004310:	e0ab      	b.n	1000446a <xQueueSemaphoreTake+0x1c6>
10004312:	f7ff facb 	bl	100038ac <vPortExitCritical>
10004316:	0030      	movs	r0, r6
10004318:	9901      	ldr	r1, [sp, #4]
1000431a:	f7fe fb8d 	bl	10002a38 <vTaskPlaceOnEventList>
1000431e:	f7ff fab9 	bl	10003894 <vPortEnterCritical>
10004322:	2345      	movs	r3, #69	; 0x45
10004324:	5ce5      	ldrb	r5, [r4, r3]
10004326:	b26d      	sxtb	r5, r5
10004328:	2d00      	cmp	r5, #0
1000432a:	dc05      	bgt.n	10004338 <xQueueSemaphoreTake+0x94>
1000432c:	e013      	b.n	10004356 <xQueueSemaphoreTake+0xb2>
1000432e:	3d01      	subs	r5, #1
10004330:	b2ea      	uxtb	r2, r5
10004332:	b26d      	sxtb	r5, r5
10004334:	2a00      	cmp	r2, #0
10004336:	d00e      	beq.n	10004356 <xQueueSemaphoreTake+0xb2>
10004338:	6a63      	ldr	r3, [r4, #36]	; 0x24
1000433a:	2b00      	cmp	r3, #0
1000433c:	d00b      	beq.n	10004356 <xQueueSemaphoreTake+0xb2>
1000433e:	0030      	movs	r0, r6
10004340:	f7fe fc50 	bl	10002be4 <xTaskRemoveFromEventList>
10004344:	2800      	cmp	r0, #0
10004346:	d0f2      	beq.n	1000432e <xQueueSemaphoreTake+0x8a>
10004348:	3d01      	subs	r5, #1
1000434a:	f7fe fd37 	bl	10002dbc <vTaskMissedYield>
1000434e:	b2ea      	uxtb	r2, r5
10004350:	b26d      	sxtb	r5, r5
10004352:	2a00      	cmp	r2, #0
10004354:	d1f0      	bne.n	10004338 <xQueueSemaphoreTake+0x94>
10004356:	2345      	movs	r3, #69	; 0x45
10004358:	22ff      	movs	r2, #255	; 0xff
1000435a:	54e2      	strb	r2, [r4, r3]
1000435c:	f7ff faa6 	bl	100038ac <vPortExitCritical>
10004360:	f7ff fa98 	bl	10003894 <vPortEnterCritical>
10004364:	5de5      	ldrb	r5, [r4, r7]
10004366:	b26d      	sxtb	r5, r5
10004368:	2d00      	cmp	r5, #0
1000436a:	dd17      	ble.n	1000439c <xQueueSemaphoreTake+0xf8>
1000436c:	2310      	movs	r3, #16
1000436e:	4698      	mov	r8, r3
10004370:	44a0      	add	r8, r4
10004372:	e004      	b.n	1000437e <xQueueSemaphoreTake+0xda>
10004374:	3d01      	subs	r5, #1
10004376:	b2ea      	uxtb	r2, r5
10004378:	b26d      	sxtb	r5, r5
1000437a:	2a00      	cmp	r2, #0
1000437c:	d00e      	beq.n	1000439c <xQueueSemaphoreTake+0xf8>
1000437e:	6923      	ldr	r3, [r4, #16]
10004380:	2b00      	cmp	r3, #0
10004382:	d00b      	beq.n	1000439c <xQueueSemaphoreTake+0xf8>
10004384:	4640      	mov	r0, r8
10004386:	f7fe fc2d 	bl	10002be4 <xTaskRemoveFromEventList>
1000438a:	2800      	cmp	r0, #0
1000438c:	d0f2      	beq.n	10004374 <xQueueSemaphoreTake+0xd0>
1000438e:	3d01      	subs	r5, #1
10004390:	f7fe fd14 	bl	10002dbc <vTaskMissedYield>
10004394:	b2ea      	uxtb	r2, r5
10004396:	b26d      	sxtb	r5, r5
10004398:	2a00      	cmp	r2, #0
1000439a:	d1f0      	bne.n	1000437e <xQueueSemaphoreTake+0xda>
1000439c:	23ff      	movs	r3, #255	; 0xff
1000439e:	55e3      	strb	r3, [r4, r7]
100043a0:	f7ff fa84 	bl	100038ac <vPortExitCritical>
100043a4:	f7fe f9b0 	bl	10002708 <xTaskResumeAll>
100043a8:	2800      	cmp	r0, #0
100043aa:	d14e      	bne.n	1000444a <xQueueSemaphoreTake+0x1a6>
100043ac:	f7ff fa66 	bl	1000387c <vPortYield>
100043b0:	e04b      	b.n	1000444a <xQueueSemaphoreTake+0x1a6>
100043b2:	f7ff fa6f 	bl	10003894 <vPortEnterCritical>
100043b6:	2345      	movs	r3, #69	; 0x45
100043b8:	5ce5      	ldrb	r5, [r4, r3]
100043ba:	b26d      	sxtb	r5, r5
100043bc:	2d00      	cmp	r5, #0
100043be:	dc05      	bgt.n	100043cc <xQueueSemaphoreTake+0x128>
100043c0:	e013      	b.n	100043ea <xQueueSemaphoreTake+0x146>
100043c2:	3d01      	subs	r5, #1
100043c4:	b2ea      	uxtb	r2, r5
100043c6:	b26d      	sxtb	r5, r5
100043c8:	2a00      	cmp	r2, #0
100043ca:	d00e      	beq.n	100043ea <xQueueSemaphoreTake+0x146>
100043cc:	6a63      	ldr	r3, [r4, #36]	; 0x24
100043ce:	2b00      	cmp	r3, #0
100043d0:	d00b      	beq.n	100043ea <xQueueSemaphoreTake+0x146>
100043d2:	0030      	movs	r0, r6
100043d4:	f7fe fc06 	bl	10002be4 <xTaskRemoveFromEventList>
100043d8:	2800      	cmp	r0, #0
100043da:	d0f2      	beq.n	100043c2 <xQueueSemaphoreTake+0x11e>
100043dc:	3d01      	subs	r5, #1
100043de:	f7fe fced 	bl	10002dbc <vTaskMissedYield>
100043e2:	b2ea      	uxtb	r2, r5
100043e4:	b26d      	sxtb	r5, r5
100043e6:	2a00      	cmp	r2, #0
100043e8:	d1f0      	bne.n	100043cc <xQueueSemaphoreTake+0x128>
100043ea:	2345      	movs	r3, #69	; 0x45
100043ec:	22ff      	movs	r2, #255	; 0xff
100043ee:	54e2      	strb	r2, [r4, r3]
100043f0:	f7ff fa5c 	bl	100038ac <vPortExitCritical>
100043f4:	f7ff fa4e 	bl	10003894 <vPortEnterCritical>
100043f8:	5de5      	ldrb	r5, [r4, r7]
100043fa:	b26d      	sxtb	r5, r5
100043fc:	2d00      	cmp	r5, #0
100043fe:	dd17      	ble.n	10004430 <xQueueSemaphoreTake+0x18c>
10004400:	2310      	movs	r3, #16
10004402:	4698      	mov	r8, r3
10004404:	44a0      	add	r8, r4
10004406:	e004      	b.n	10004412 <xQueueSemaphoreTake+0x16e>
10004408:	3d01      	subs	r5, #1
1000440a:	b2ea      	uxtb	r2, r5
1000440c:	b26d      	sxtb	r5, r5
1000440e:	2a00      	cmp	r2, #0
10004410:	d00e      	beq.n	10004430 <xQueueSemaphoreTake+0x18c>
10004412:	6923      	ldr	r3, [r4, #16]
10004414:	2b00      	cmp	r3, #0
10004416:	d00b      	beq.n	10004430 <xQueueSemaphoreTake+0x18c>
10004418:	4640      	mov	r0, r8
1000441a:	f7fe fbe3 	bl	10002be4 <xTaskRemoveFromEventList>
1000441e:	2800      	cmp	r0, #0
10004420:	d0f2      	beq.n	10004408 <xQueueSemaphoreTake+0x164>
10004422:	3d01      	subs	r5, #1
10004424:	f7fe fcca 	bl	10002dbc <vTaskMissedYield>
10004428:	b2ea      	uxtb	r2, r5
1000442a:	b26d      	sxtb	r5, r5
1000442c:	2a00      	cmp	r2, #0
1000442e:	d1f0      	bne.n	10004412 <xQueueSemaphoreTake+0x16e>
10004430:	23ff      	movs	r3, #255	; 0xff
10004432:	55e3      	strb	r3, [r4, r7]
10004434:	f7ff fa3a 	bl	100038ac <vPortExitCritical>
10004438:	f7fe f966 	bl	10002708 <xTaskResumeAll>
1000443c:	f7ff fa2a 	bl	10003894 <vPortEnterCritical>
10004440:	6ba3      	ldr	r3, [r4, #56]	; 0x38
10004442:	2b00      	cmp	r3, #0
10004444:	d00a      	beq.n	1000445c <xQueueSemaphoreTake+0x1b8>
10004446:	f7ff fa31 	bl	100038ac <vPortExitCritical>
1000444a:	f7ff fa23 	bl	10003894 <vPortEnterCritical>
1000444e:	6ba3      	ldr	r3, [r4, #56]	; 0x38
10004450:	2b00      	cmp	r3, #0
10004452:	d156      	bne.n	10004502 <xQueueSemaphoreTake+0x25e>
10004454:	9b01      	ldr	r3, [sp, #4]
10004456:	2b00      	cmp	r3, #0
10004458:	d000      	beq.n	1000445c <xQueueSemaphoreTake+0x1b8>
1000445a:	e739      	b.n	100042d0 <xQueueSemaphoreTake+0x2c>
1000445c:	f7ff fa26 	bl	100038ac <vPortExitCritical>
10004460:	2000      	movs	r0, #0
10004462:	b004      	add	sp, #16
10004464:	bc80      	pop	{r7}
10004466:	46b8      	mov	r8, r7
10004468:	bdf0      	pop	{r4, r5, r6, r7, pc}
1000446a:	f7ff fa1f 	bl	100038ac <vPortExitCritical>
1000446e:	f7ff fa11 	bl	10003894 <vPortEnterCritical>
10004472:	2345      	movs	r3, #69	; 0x45
10004474:	5ce5      	ldrb	r5, [r4, r3]
10004476:	b26d      	sxtb	r5, r5
10004478:	2d00      	cmp	r5, #0
1000447a:	dc05      	bgt.n	10004488 <xQueueSemaphoreTake+0x1e4>
1000447c:	e013      	b.n	100044a6 <xQueueSemaphoreTake+0x202>
1000447e:	3d01      	subs	r5, #1
10004480:	b2ea      	uxtb	r2, r5
10004482:	b26d      	sxtb	r5, r5
10004484:	2a00      	cmp	r2, #0
10004486:	d00e      	beq.n	100044a6 <xQueueSemaphoreTake+0x202>
10004488:	6a63      	ldr	r3, [r4, #36]	; 0x24
1000448a:	2b00      	cmp	r3, #0
1000448c:	d00b      	beq.n	100044a6 <xQueueSemaphoreTake+0x202>
1000448e:	0030      	movs	r0, r6
10004490:	f7fe fba8 	bl	10002be4 <xTaskRemoveFromEventList>
10004494:	2800      	cmp	r0, #0
10004496:	d0f2      	beq.n	1000447e <xQueueSemaphoreTake+0x1da>
10004498:	3d01      	subs	r5, #1
1000449a:	f7fe fc8f 	bl	10002dbc <vTaskMissedYield>
1000449e:	b2ea      	uxtb	r2, r5
100044a0:	b26d      	sxtb	r5, r5
100044a2:	2a00      	cmp	r2, #0
100044a4:	d1f0      	bne.n	10004488 <xQueueSemaphoreTake+0x1e4>
100044a6:	2345      	movs	r3, #69	; 0x45
100044a8:	22ff      	movs	r2, #255	; 0xff
100044aa:	54e2      	strb	r2, [r4, r3]
100044ac:	f7ff f9fe 	bl	100038ac <vPortExitCritical>
100044b0:	f7ff f9f0 	bl	10003894 <vPortEnterCritical>
100044b4:	5de5      	ldrb	r5, [r4, r7]
100044b6:	b26d      	sxtb	r5, r5
100044b8:	2d00      	cmp	r5, #0
100044ba:	dd17      	ble.n	100044ec <xQueueSemaphoreTake+0x248>
100044bc:	2310      	movs	r3, #16
100044be:	4698      	mov	r8, r3
100044c0:	44a0      	add	r8, r4
100044c2:	e004      	b.n	100044ce <xQueueSemaphoreTake+0x22a>
100044c4:	3d01      	subs	r5, #1
100044c6:	b2ea      	uxtb	r2, r5
100044c8:	b26d      	sxtb	r5, r5
100044ca:	2a00      	cmp	r2, #0
100044cc:	d00e      	beq.n	100044ec <xQueueSemaphoreTake+0x248>
100044ce:	6923      	ldr	r3, [r4, #16]
100044d0:	2b00      	cmp	r3, #0
100044d2:	d00b      	beq.n	100044ec <xQueueSemaphoreTake+0x248>
100044d4:	4640      	mov	r0, r8
100044d6:	f7fe fb85 	bl	10002be4 <xTaskRemoveFromEventList>
100044da:	2800      	cmp	r0, #0
100044dc:	d0f2      	beq.n	100044c4 <xQueueSemaphoreTake+0x220>
100044de:	3d01      	subs	r5, #1
100044e0:	f7fe fc6c 	bl	10002dbc <vTaskMissedYield>
100044e4:	b2ea      	uxtb	r2, r5
100044e6:	b26d      	sxtb	r5, r5
100044e8:	2a00      	cmp	r2, #0
100044ea:	d1f0      	bne.n	100044ce <xQueueSemaphoreTake+0x22a>
100044ec:	23ff      	movs	r3, #255	; 0xff
100044ee:	55e3      	strb	r3, [r4, r7]
100044f0:	f7ff f9dc 	bl	100038ac <vPortExitCritical>
100044f4:	f7fe f908 	bl	10002708 <xTaskResumeAll>
100044f8:	f7ff f9cc 	bl	10003894 <vPortEnterCritical>
100044fc:	6ba3      	ldr	r3, [r4, #56]	; 0x38
100044fe:	2b00      	cmp	r3, #0
10004500:	d0a8      	beq.n	10004454 <xQueueSemaphoreTake+0x1b0>
10004502:	3b01      	subs	r3, #1
10004504:	63a3      	str	r3, [r4, #56]	; 0x38
10004506:	6923      	ldr	r3, [r4, #16]
10004508:	2b00      	cmp	r3, #0
1000450a:	d103      	bne.n	10004514 <xQueueSemaphoreTake+0x270>
1000450c:	f7ff f9ce 	bl	100038ac <vPortExitCritical>
10004510:	2001      	movs	r0, #1
10004512:	e7a6      	b.n	10004462 <xQueueSemaphoreTake+0x1be>
10004514:	0020      	movs	r0, r4
10004516:	3010      	adds	r0, #16
10004518:	f7fe fb64 	bl	10002be4 <xTaskRemoveFromEventList>
1000451c:	2800      	cmp	r0, #0
1000451e:	d0f5      	beq.n	1000450c <xQueueSemaphoreTake+0x268>
10004520:	f7ff f9ac 	bl	1000387c <vPortYield>
10004524:	e7f2      	b.n	1000450c <xQueueSemaphoreTake+0x268>
10004526:	46c0      	nop			; (mov r8, r8)

10004528 <xQueuePeek>:
10004528:	b5f0      	push	{r4, r5, r6, r7, lr}
1000452a:	46ce      	mov	lr, r9
1000452c:	4647      	mov	r7, r8
1000452e:	0004      	movs	r4, r0
10004530:	b580      	push	{r7, lr}
10004532:	b085      	sub	sp, #20
10004534:	4688      	mov	r8, r1
10004536:	9201      	str	r2, [sp, #4]
10004538:	f7ff f9ac 	bl	10003894 <vPortEnterCritical>
1000453c:	6ba3      	ldr	r3, [r4, #56]	; 0x38
1000453e:	2b00      	cmp	r3, #0
10004540:	d000      	beq.n	10004544 <xQueuePeek+0x1c>
10004542:	e11f      	b.n	10004784 <xQueuePeek+0x25c>
10004544:	9b01      	ldr	r3, [sp, #4]
10004546:	2b00      	cmp	r3, #0
10004548:	d100      	bne.n	1000454c <xQueuePeek+0x24>
1000454a:	e0cb      	b.n	100046e4 <xQueuePeek+0x1bc>
1000454c:	0026      	movs	r6, r4
1000454e:	a802      	add	r0, sp, #8
10004550:	f7fe fc04 	bl	10002d5c <vTaskInternalSetTimeOutState>
10004554:	2744      	movs	r7, #68	; 0x44
10004556:	3624      	adds	r6, #36	; 0x24
10004558:	f7ff f9a8 	bl	100038ac <vPortExitCritical>
1000455c:	f7fe f8cc 	bl	100026f8 <vTaskSuspendAll>
10004560:	f7ff f998 	bl	10003894 <vPortEnterCritical>
10004564:	5de3      	ldrb	r3, [r4, r7]
10004566:	b25b      	sxtb	r3, r3
10004568:	3301      	adds	r3, #1
1000456a:	d101      	bne.n	10004570 <xQueuePeek+0x48>
1000456c:	2300      	movs	r3, #0
1000456e:	55e3      	strb	r3, [r4, r7]
10004570:	2245      	movs	r2, #69	; 0x45
10004572:	5ca3      	ldrb	r3, [r4, r2]
10004574:	b25b      	sxtb	r3, r3
10004576:	3301      	adds	r3, #1
10004578:	d101      	bne.n	1000457e <xQueuePeek+0x56>
1000457a:	2300      	movs	r3, #0
1000457c:	54a3      	strb	r3, [r4, r2]
1000457e:	f7ff f995 	bl	100038ac <vPortExitCritical>
10004582:	a901      	add	r1, sp, #4
10004584:	a802      	add	r0, sp, #8
10004586:	f7fe fbf1 	bl	10002d6c <xTaskCheckForTimeOut>
1000458a:	2800      	cmp	r0, #0
1000458c:	d155      	bne.n	1000463a <xQueuePeek+0x112>
1000458e:	f7ff f981 	bl	10003894 <vPortEnterCritical>
10004592:	6ba3      	ldr	r3, [r4, #56]	; 0x38
10004594:	2b00      	cmp	r3, #0
10004596:	d000      	beq.n	1000459a <xQueuePeek+0x72>
10004598:	e0ac      	b.n	100046f4 <xQueuePeek+0x1cc>
1000459a:	f7ff f987 	bl	100038ac <vPortExitCritical>
1000459e:	0030      	movs	r0, r6
100045a0:	9901      	ldr	r1, [sp, #4]
100045a2:	f7fe fa49 	bl	10002a38 <vTaskPlaceOnEventList>
100045a6:	f7ff f975 	bl	10003894 <vPortEnterCritical>
100045aa:	2345      	movs	r3, #69	; 0x45
100045ac:	5ce5      	ldrb	r5, [r4, r3]
100045ae:	b26d      	sxtb	r5, r5
100045b0:	2d00      	cmp	r5, #0
100045b2:	dc05      	bgt.n	100045c0 <xQueuePeek+0x98>
100045b4:	e013      	b.n	100045de <xQueuePeek+0xb6>
100045b6:	3d01      	subs	r5, #1
100045b8:	b2ea      	uxtb	r2, r5
100045ba:	b26d      	sxtb	r5, r5
100045bc:	2a00      	cmp	r2, #0
100045be:	d00e      	beq.n	100045de <xQueuePeek+0xb6>
100045c0:	6a63      	ldr	r3, [r4, #36]	; 0x24
100045c2:	2b00      	cmp	r3, #0
100045c4:	d00b      	beq.n	100045de <xQueuePeek+0xb6>
100045c6:	0030      	movs	r0, r6
100045c8:	f7fe fb0c 	bl	10002be4 <xTaskRemoveFromEventList>
100045cc:	2800      	cmp	r0, #0
100045ce:	d0f2      	beq.n	100045b6 <xQueuePeek+0x8e>
100045d0:	3d01      	subs	r5, #1
100045d2:	f7fe fbf3 	bl	10002dbc <vTaskMissedYield>
100045d6:	b2ea      	uxtb	r2, r5
100045d8:	b26d      	sxtb	r5, r5
100045da:	2a00      	cmp	r2, #0
100045dc:	d1f0      	bne.n	100045c0 <xQueuePeek+0x98>
100045de:	2345      	movs	r3, #69	; 0x45
100045e0:	22ff      	movs	r2, #255	; 0xff
100045e2:	54e2      	strb	r2, [r4, r3]
100045e4:	f7ff f962 	bl	100038ac <vPortExitCritical>
100045e8:	f7ff f954 	bl	10003894 <vPortEnterCritical>
100045ec:	2310      	movs	r3, #16
100045ee:	4699      	mov	r9, r3
100045f0:	5de5      	ldrb	r5, [r4, r7]
100045f2:	44a1      	add	r9, r4
100045f4:	b26d      	sxtb	r5, r5
100045f6:	2d00      	cmp	r5, #0
100045f8:	dc05      	bgt.n	10004606 <xQueuePeek+0xde>
100045fa:	e013      	b.n	10004624 <xQueuePeek+0xfc>
100045fc:	3d01      	subs	r5, #1
100045fe:	b2ea      	uxtb	r2, r5
10004600:	b26d      	sxtb	r5, r5
10004602:	2a00      	cmp	r2, #0
10004604:	d00e      	beq.n	10004624 <xQueuePeek+0xfc>
10004606:	6923      	ldr	r3, [r4, #16]
10004608:	2b00      	cmp	r3, #0
1000460a:	d00b      	beq.n	10004624 <xQueuePeek+0xfc>
1000460c:	4648      	mov	r0, r9
1000460e:	f7fe fae9 	bl	10002be4 <xTaskRemoveFromEventList>
10004612:	2800      	cmp	r0, #0
10004614:	d0f2      	beq.n	100045fc <xQueuePeek+0xd4>
10004616:	3d01      	subs	r5, #1
10004618:	f7fe fbd0 	bl	10002dbc <vTaskMissedYield>
1000461c:	b2ea      	uxtb	r2, r5
1000461e:	b26d      	sxtb	r5, r5
10004620:	2a00      	cmp	r2, #0
10004622:	d1f0      	bne.n	10004606 <xQueuePeek+0xde>
10004624:	23ff      	movs	r3, #255	; 0xff
10004626:	55e3      	strb	r3, [r4, r7]
10004628:	f7ff f940 	bl	100038ac <vPortExitCritical>
1000462c:	f7fe f86c 	bl	10002708 <xTaskResumeAll>
10004630:	2800      	cmp	r0, #0
10004632:	d14e      	bne.n	100046d2 <xQueuePeek+0x1aa>
10004634:	f7ff f922 	bl	1000387c <vPortYield>
10004638:	e04b      	b.n	100046d2 <xQueuePeek+0x1aa>
1000463a:	f7ff f92b 	bl	10003894 <vPortEnterCritical>
1000463e:	2345      	movs	r3, #69	; 0x45
10004640:	5ce5      	ldrb	r5, [r4, r3]
10004642:	b26d      	sxtb	r5, r5
10004644:	2d00      	cmp	r5, #0
10004646:	dc05      	bgt.n	10004654 <xQueuePeek+0x12c>
10004648:	e013      	b.n	10004672 <xQueuePeek+0x14a>
1000464a:	3d01      	subs	r5, #1
1000464c:	b2ea      	uxtb	r2, r5
1000464e:	b26d      	sxtb	r5, r5
10004650:	2a00      	cmp	r2, #0
10004652:	d00e      	beq.n	10004672 <xQueuePeek+0x14a>
10004654:	6a63      	ldr	r3, [r4, #36]	; 0x24
10004656:	2b00      	cmp	r3, #0
10004658:	d00b      	beq.n	10004672 <xQueuePeek+0x14a>
1000465a:	0030      	movs	r0, r6
1000465c:	f7fe fac2 	bl	10002be4 <xTaskRemoveFromEventList>
10004660:	2800      	cmp	r0, #0
10004662:	d0f2      	beq.n	1000464a <xQueuePeek+0x122>
10004664:	3d01      	subs	r5, #1
10004666:	f7fe fba9 	bl	10002dbc <vTaskMissedYield>
1000466a:	b2ea      	uxtb	r2, r5
1000466c:	b26d      	sxtb	r5, r5
1000466e:	2a00      	cmp	r2, #0
10004670:	d1f0      	bne.n	10004654 <xQueuePeek+0x12c>
10004672:	2345      	movs	r3, #69	; 0x45
10004674:	22ff      	movs	r2, #255	; 0xff
10004676:	54e2      	strb	r2, [r4, r3]
10004678:	f7ff f918 	bl	100038ac <vPortExitCritical>
1000467c:	f7ff f90a 	bl	10003894 <vPortEnterCritical>
10004680:	2310      	movs	r3, #16
10004682:	4699      	mov	r9, r3
10004684:	5de5      	ldrb	r5, [r4, r7]
10004686:	44a1      	add	r9, r4
10004688:	b26d      	sxtb	r5, r5
1000468a:	2d00      	cmp	r5, #0
1000468c:	dc05      	bgt.n	1000469a <xQueuePeek+0x172>
1000468e:	e013      	b.n	100046b8 <xQueuePeek+0x190>
10004690:	3d01      	subs	r5, #1
10004692:	b2ea      	uxtb	r2, r5
10004694:	b26d      	sxtb	r5, r5
10004696:	2a00      	cmp	r2, #0
10004698:	d00e      	beq.n	100046b8 <xQueuePeek+0x190>
1000469a:	6923      	ldr	r3, [r4, #16]
1000469c:	2b00      	cmp	r3, #0
1000469e:	d00b      	beq.n	100046b8 <xQueuePeek+0x190>
100046a0:	4648      	mov	r0, r9
100046a2:	f7fe fa9f 	bl	10002be4 <xTaskRemoveFromEventList>
100046a6:	2800      	cmp	r0, #0
100046a8:	d0f2      	beq.n	10004690 <xQueuePeek+0x168>
100046aa:	3d01      	subs	r5, #1
100046ac:	f7fe fb86 	bl	10002dbc <vTaskMissedYield>
100046b0:	b2ea      	uxtb	r2, r5
100046b2:	b26d      	sxtb	r5, r5
100046b4:	2a00      	cmp	r2, #0
100046b6:	d1f0      	bne.n	1000469a <xQueuePeek+0x172>
100046b8:	23ff      	movs	r3, #255	; 0xff
100046ba:	55e3      	strb	r3, [r4, r7]
100046bc:	f7ff f8f6 	bl	100038ac <vPortExitCritical>
100046c0:	f7fe f822 	bl	10002708 <xTaskResumeAll>
100046c4:	f7ff f8e6 	bl	10003894 <vPortEnterCritical>
100046c8:	6ba3      	ldr	r3, [r4, #56]	; 0x38
100046ca:	2b00      	cmp	r3, #0
100046cc:	d00a      	beq.n	100046e4 <xQueuePeek+0x1bc>
100046ce:	f7ff f8ed 	bl	100038ac <vPortExitCritical>
100046d2:	f7ff f8df 	bl	10003894 <vPortEnterCritical>
100046d6:	6ba3      	ldr	r3, [r4, #56]	; 0x38
100046d8:	2b00      	cmp	r3, #0
100046da:	d153      	bne.n	10004784 <xQueuePeek+0x25c>
100046dc:	9b01      	ldr	r3, [sp, #4]
100046de:	2b00      	cmp	r3, #0
100046e0:	d000      	beq.n	100046e4 <xQueuePeek+0x1bc>
100046e2:	e739      	b.n	10004558 <xQueuePeek+0x30>
100046e4:	f7ff f8e2 	bl	100038ac <vPortExitCritical>
100046e8:	2000      	movs	r0, #0
100046ea:	b005      	add	sp, #20
100046ec:	bcc0      	pop	{r6, r7}
100046ee:	46b9      	mov	r9, r7
100046f0:	46b0      	mov	r8, r6
100046f2:	bdf0      	pop	{r4, r5, r6, r7, pc}
100046f4:	f7ff f8da 	bl	100038ac <vPortExitCritical>
100046f8:	f7ff f8cc 	bl	10003894 <vPortEnterCritical>
100046fc:	2345      	movs	r3, #69	; 0x45
100046fe:	5ce5      	ldrb	r5, [r4, r3]
10004700:	b26d      	sxtb	r5, r5
10004702:	2d00      	cmp	r5, #0
10004704:	dc05      	bgt.n	10004712 <xQueuePeek+0x1ea>
10004706:	e013      	b.n	10004730 <xQueuePeek+0x208>
10004708:	3d01      	subs	r5, #1
1000470a:	b2ea      	uxtb	r2, r5
1000470c:	b26d      	sxtb	r5, r5
1000470e:	2a00      	cmp	r2, #0
10004710:	d00e      	beq.n	10004730 <xQueuePeek+0x208>
10004712:	6a63      	ldr	r3, [r4, #36]	; 0x24
10004714:	2b00      	cmp	r3, #0
10004716:	d00b      	beq.n	10004730 <xQueuePeek+0x208>
10004718:	0030      	movs	r0, r6
1000471a:	f7fe fa63 	bl	10002be4 <xTaskRemoveFromEventList>
1000471e:	2800      	cmp	r0, #0
10004720:	d0f2      	beq.n	10004708 <xQueuePeek+0x1e0>
10004722:	3d01      	subs	r5, #1
10004724:	f7fe fb4a 	bl	10002dbc <vTaskMissedYield>
10004728:	b2ea      	uxtb	r2, r5
1000472a:	b26d      	sxtb	r5, r5
1000472c:	2a00      	cmp	r2, #0
1000472e:	d1f0      	bne.n	10004712 <xQueuePeek+0x1ea>
10004730:	2345      	movs	r3, #69	; 0x45
10004732:	22ff      	movs	r2, #255	; 0xff
10004734:	54e2      	strb	r2, [r4, r3]
10004736:	f7ff f8b9 	bl	100038ac <vPortExitCritical>
1000473a:	f7ff f8ab 	bl	10003894 <vPortEnterCritical>
1000473e:	2310      	movs	r3, #16
10004740:	4699      	mov	r9, r3
10004742:	5de5      	ldrb	r5, [r4, r7]
10004744:	44a1      	add	r9, r4
10004746:	b26d      	sxtb	r5, r5
10004748:	2d00      	cmp	r5, #0
1000474a:	dc05      	bgt.n	10004758 <xQueuePeek+0x230>
1000474c:	e013      	b.n	10004776 <xQueuePeek+0x24e>
1000474e:	3d01      	subs	r5, #1
10004750:	b2ea      	uxtb	r2, r5
10004752:	b26d      	sxtb	r5, r5
10004754:	2a00      	cmp	r2, #0
10004756:	d00e      	beq.n	10004776 <xQueuePeek+0x24e>
10004758:	6923      	ldr	r3, [r4, #16]
1000475a:	2b00      	cmp	r3, #0
1000475c:	d00b      	beq.n	10004776 <xQueuePeek+0x24e>
1000475e:	4648      	mov	r0, r9
10004760:	f7fe fa40 	bl	10002be4 <xTaskRemoveFromEventList>
10004764:	2800      	cmp	r0, #0
10004766:	d0f2      	beq.n	1000474e <xQueuePeek+0x226>
10004768:	3d01      	subs	r5, #1
1000476a:	f7fe fb27 	bl	10002dbc <vTaskMissedYield>
1000476e:	b2ea      	uxtb	r2, r5
10004770:	b26d      	sxtb	r5, r5
10004772:	2a00      	cmp	r2, #0
10004774:	d1f0      	bne.n	10004758 <xQueuePeek+0x230>
10004776:	23ff      	movs	r3, #255	; 0xff
10004778:	55e3      	strb	r3, [r4, r7]
1000477a:	f7ff f897 	bl	100038ac <vPortExitCritical>
1000477e:	f7fd ffc3 	bl	10002708 <xTaskResumeAll>
10004782:	e7a6      	b.n	100046d2 <xQueuePeek+0x1aa>
10004784:	6c22      	ldr	r2, [r4, #64]	; 0x40
10004786:	68e5      	ldr	r5, [r4, #12]
10004788:	2a00      	cmp	r2, #0
1000478a:	d007      	beq.n	1000479c <xQueuePeek+0x274>
1000478c:	68a3      	ldr	r3, [r4, #8]
1000478e:	18a9      	adds	r1, r5, r2
10004790:	60e1      	str	r1, [r4, #12]
10004792:	4299      	cmp	r1, r3
10004794:	d20a      	bcs.n	100047ac <xQueuePeek+0x284>
10004796:	4640      	mov	r0, r8
10004798:	f7fd f912 	bl	100019c0 <__wrap___aeabi_memcpy>
1000479c:	6a63      	ldr	r3, [r4, #36]	; 0x24
1000479e:	60e5      	str	r5, [r4, #12]
100047a0:	2b00      	cmp	r3, #0
100047a2:	d106      	bne.n	100047b2 <xQueuePeek+0x28a>
100047a4:	f7ff f882 	bl	100038ac <vPortExitCritical>
100047a8:	2001      	movs	r0, #1
100047aa:	e79e      	b.n	100046ea <xQueuePeek+0x1c2>
100047ac:	6821      	ldr	r1, [r4, #0]
100047ae:	60e1      	str	r1, [r4, #12]
100047b0:	e7f1      	b.n	10004796 <xQueuePeek+0x26e>
100047b2:	0020      	movs	r0, r4
100047b4:	3024      	adds	r0, #36	; 0x24
100047b6:	f7fe fa15 	bl	10002be4 <xTaskRemoveFromEventList>
100047ba:	2800      	cmp	r0, #0
100047bc:	d0f2      	beq.n	100047a4 <xQueuePeek+0x27c>
100047be:	f7ff f85d 	bl	1000387c <vPortYield>
100047c2:	e7ef      	b.n	100047a4 <xQueuePeek+0x27c>

100047c4 <xQueueReceiveFromISR>:
100047c4:	b5f8      	push	{r3, r4, r5, r6, r7, lr}
100047c6:	46ce      	mov	lr, r9
100047c8:	4647      	mov	r7, r8
100047ca:	0004      	movs	r4, r0
100047cc:	b580      	push	{r7, lr}
100047ce:	4689      	mov	r9, r1
100047d0:	4690      	mov	r8, r2
100047d2:	f7ff f875 	bl	100038c0 <ulSetInterruptMaskFromISR>
100047d6:	6ba6      	ldr	r6, [r4, #56]	; 0x38
100047d8:	0005      	movs	r5, r0
100047da:	2700      	movs	r7, #0
100047dc:	2e00      	cmp	r6, #0
100047de:	d107      	bne.n	100047f0 <xQueueReceiveFromISR+0x2c>
100047e0:	0028      	movs	r0, r5
100047e2:	f7ff f871 	bl	100038c8 <vClearInterruptMaskFromISR>
100047e6:	0038      	movs	r0, r7
100047e8:	bcc0      	pop	{r6, r7}
100047ea:	46b9      	mov	r9, r7
100047ec:	46b0      	mov	r8, r6
100047ee:	bdf8      	pop	{r3, r4, r5, r6, r7, pc}
100047f0:	2344      	movs	r3, #68	; 0x44
100047f2:	6c22      	ldr	r2, [r4, #64]	; 0x40
100047f4:	5ce7      	ldrb	r7, [r4, r3]
100047f6:	b27f      	sxtb	r7, r7
100047f8:	2a00      	cmp	r2, #0
100047fa:	d00a      	beq.n	10004812 <xQueueReceiveFromISR+0x4e>
100047fc:	68e3      	ldr	r3, [r4, #12]
100047fe:	1899      	adds	r1, r3, r2
10004800:	68a3      	ldr	r3, [r4, #8]
10004802:	60e1      	str	r1, [r4, #12]
10004804:	4299      	cmp	r1, r3
10004806:	d301      	bcc.n	1000480c <xQueueReceiveFromISR+0x48>
10004808:	6821      	ldr	r1, [r4, #0]
1000480a:	60e1      	str	r1, [r4, #12]
1000480c:	4648      	mov	r0, r9
1000480e:	f7fd f8d7 	bl	100019c0 <__wrap___aeabi_memcpy>
10004812:	3e01      	subs	r6, #1
10004814:	63a6      	str	r6, [r4, #56]	; 0x38
10004816:	1c7b      	adds	r3, r7, #1
10004818:	d104      	bne.n	10004824 <xQueueReceiveFromISR+0x60>
1000481a:	6923      	ldr	r3, [r4, #16]
1000481c:	2b00      	cmp	r3, #0
1000481e:	d10b      	bne.n	10004838 <xQueueReceiveFromISR+0x74>
10004820:	2701      	movs	r7, #1
10004822:	e7dd      	b.n	100047e0 <xQueueReceiveFromISR+0x1c>
10004824:	f7fe f87e 	bl	10002924 <uxTaskGetNumberOfTasks>
10004828:	4287      	cmp	r7, r0
1000482a:	d2f9      	bcs.n	10004820 <xQueueReceiveFromISR+0x5c>
1000482c:	2344      	movs	r3, #68	; 0x44
1000482e:	3701      	adds	r7, #1
10004830:	b27f      	sxtb	r7, r7
10004832:	54e7      	strb	r7, [r4, r3]
10004834:	2701      	movs	r7, #1
10004836:	e7d3      	b.n	100047e0 <xQueueReceiveFromISR+0x1c>
10004838:	0020      	movs	r0, r4
1000483a:	3010      	adds	r0, #16
1000483c:	f7fe f9d2 	bl	10002be4 <xTaskRemoveFromEventList>
10004840:	2800      	cmp	r0, #0
10004842:	d0ed      	beq.n	10004820 <xQueueReceiveFromISR+0x5c>
10004844:	4643      	mov	r3, r8
10004846:	2b00      	cmp	r3, #0
10004848:	d0ea      	beq.n	10004820 <xQueueReceiveFromISR+0x5c>
1000484a:	2301      	movs	r3, #1
1000484c:	4642      	mov	r2, r8
1000484e:	2701      	movs	r7, #1
10004850:	6013      	str	r3, [r2, #0]
10004852:	e7c5      	b.n	100047e0 <xQueueReceiveFromISR+0x1c>

10004854 <xQueuePeekFromISR>:
10004854:	b5f8      	push	{r3, r4, r5, r6, r7, lr}
10004856:	0004      	movs	r4, r0
10004858:	000f      	movs	r7, r1
1000485a:	f7ff f831 	bl	100038c0 <ulSetInterruptMaskFromISR>
1000485e:	6ba3      	ldr	r3, [r4, #56]	; 0x38
10004860:	0005      	movs	r5, r0
10004862:	2600      	movs	r6, #0
10004864:	2b00      	cmp	r3, #0
10004866:	d104      	bne.n	10004872 <xQueuePeekFromISR+0x1e>
10004868:	0028      	movs	r0, r5
1000486a:	f7ff f82d 	bl	100038c8 <vClearInterruptMaskFromISR>
1000486e:	0030      	movs	r0, r6
10004870:	bdf8      	pop	{r3, r4, r5, r6, r7, pc}
10004872:	6c22      	ldr	r2, [r4, #64]	; 0x40
10004874:	68e6      	ldr	r6, [r4, #12]
10004876:	2a00      	cmp	r2, #0
10004878:	d009      	beq.n	1000488e <xQueuePeekFromISR+0x3a>
1000487a:	68a3      	ldr	r3, [r4, #8]
1000487c:	18b1      	adds	r1, r6, r2
1000487e:	60e1      	str	r1, [r4, #12]
10004880:	4299      	cmp	r1, r3
10004882:	d301      	bcc.n	10004888 <xQueuePeekFromISR+0x34>
10004884:	6821      	ldr	r1, [r4, #0]
10004886:	60e1      	str	r1, [r4, #12]
10004888:	0038      	movs	r0, r7
1000488a:	f7fd f899 	bl	100019c0 <__wrap___aeabi_memcpy>
1000488e:	60e6      	str	r6, [r4, #12]
10004890:	2601      	movs	r6, #1
10004892:	e7e9      	b.n	10004868 <xQueuePeekFromISR+0x14>

10004894 <uxQueueMessagesWaiting>:
10004894:	b510      	push	{r4, lr}
10004896:	0004      	movs	r4, r0
10004898:	f7fe fffc 	bl	10003894 <vPortEnterCritical>
1000489c:	6ba4      	ldr	r4, [r4, #56]	; 0x38
1000489e:	f7ff f805 	bl	100038ac <vPortExitCritical>
100048a2:	0020      	movs	r0, r4
100048a4:	bd10      	pop	{r4, pc}
100048a6:	46c0      	nop			; (mov r8, r8)

100048a8 <uxQueueSpacesAvailable>:
100048a8:	b510      	push	{r4, lr}
100048aa:	0004      	movs	r4, r0
100048ac:	f7fe fff2 	bl	10003894 <vPortEnterCritical>
100048b0:	6ba3      	ldr	r3, [r4, #56]	; 0x38
100048b2:	6be4      	ldr	r4, [r4, #60]	; 0x3c
100048b4:	1ae4      	subs	r4, r4, r3
100048b6:	f7fe fff9 	bl	100038ac <vPortExitCritical>
100048ba:	0020      	movs	r0, r4
100048bc:	bd10      	pop	{r4, pc}
100048be:	46c0      	nop			; (mov r8, r8)

100048c0 <uxQueueMessagesWaitingFromISR>:
100048c0:	6b80      	ldr	r0, [r0, #56]	; 0x38
100048c2:	4770      	bx	lr

100048c4 <vQueueDelete>:
100048c4:	4b1e      	ldr	r3, [pc, #120]	; (10004940 <vQueueDelete+0x7c>)
100048c6:	b570      	push	{r4, r5, r6, lr}
100048c8:	685a      	ldr	r2, [r3, #4]
100048ca:	4290      	cmp	r0, r2
100048cc:	d01d      	beq.n	1000490a <vQueueDelete+0x46>
100048ce:	68da      	ldr	r2, [r3, #12]
100048d0:	4290      	cmp	r0, r2
100048d2:	d022      	beq.n	1000491a <vQueueDelete+0x56>
100048d4:	695a      	ldr	r2, [r3, #20]
100048d6:	4290      	cmp	r0, r2
100048d8:	d021      	beq.n	1000491e <vQueueDelete+0x5a>
100048da:	69da      	ldr	r2, [r3, #28]
100048dc:	4290      	cmp	r0, r2
100048de:	d020      	beq.n	10004922 <vQueueDelete+0x5e>
100048e0:	6a5a      	ldr	r2, [r3, #36]	; 0x24
100048e2:	4290      	cmp	r0, r2
100048e4:	d01f      	beq.n	10004926 <vQueueDelete+0x62>
100048e6:	6ada      	ldr	r2, [r3, #44]	; 0x2c
100048e8:	4290      	cmp	r0, r2
100048ea:	d01e      	beq.n	1000492a <vQueueDelete+0x66>
100048ec:	6b5a      	ldr	r2, [r3, #52]	; 0x34
100048ee:	4290      	cmp	r0, r2
100048f0:	d01d      	beq.n	1000492e <vQueueDelete+0x6a>
100048f2:	6bda      	ldr	r2, [r3, #60]	; 0x3c
100048f4:	4290      	cmp	r0, r2
100048f6:	d01c      	beq.n	10004932 <vQueueDelete+0x6e>
100048f8:	6c5a      	ldr	r2, [r3, #68]	; 0x44
100048fa:	4290      	cmp	r0, r2
100048fc:	d01b      	beq.n	10004936 <vQueueDelete+0x72>
100048fe:	6cda      	ldr	r2, [r3, #76]	; 0x4c
10004900:	4290      	cmp	r0, r2
10004902:	d01a      	beq.n	1000493a <vQueueDelete+0x76>
10004904:	f7fe ff76 	bl	100037f4 <vPortFree>
10004908:	bd70      	pop	{r4, r5, r6, pc}
1000490a:	2200      	movs	r2, #0
1000490c:	2400      	movs	r4, #0
1000490e:	2500      	movs	r5, #0
10004910:	00d2      	lsls	r2, r2, #3
10004912:	189b      	adds	r3, r3, r2
10004914:	601c      	str	r4, [r3, #0]
10004916:	605d      	str	r5, [r3, #4]
10004918:	e7f4      	b.n	10004904 <vQueueDelete+0x40>
1000491a:	2201      	movs	r2, #1
1000491c:	e7f6      	b.n	1000490c <vQueueDelete+0x48>
1000491e:	2202      	movs	r2, #2
10004920:	e7f4      	b.n	1000490c <vQueueDelete+0x48>
10004922:	2203      	movs	r2, #3
10004924:	e7f2      	b.n	1000490c <vQueueDelete+0x48>
10004926:	2204      	movs	r2, #4
10004928:	e7f0      	b.n	1000490c <vQueueDelete+0x48>
1000492a:	2205      	movs	r2, #5
1000492c:	e7ee      	b.n	1000490c <vQueueDelete+0x48>
1000492e:	2206      	movs	r2, #6
10004930:	e7ec      	b.n	1000490c <vQueueDelete+0x48>
10004932:	2207      	movs	r2, #7
10004934:	e7ea      	b.n	1000490c <vQueueDelete+0x48>
10004936:	2208      	movs	r2, #8
10004938:	e7e8      	b.n	1000490c <vQueueDelete+0x48>
1000493a:	2209      	movs	r2, #9
1000493c:	e7e6      	b.n	1000490c <vQueueDelete+0x48>
1000493e:	46c0      	nop			; (mov r8, r8)
10004940:	20000a88 	.word	0x20000a88

10004944 <xQueueIsQueueEmptyFromISR>:
10004944:	6b80      	ldr	r0, [r0, #56]	; 0x38
10004946:	4243      	negs	r3, r0
10004948:	4158      	adcs	r0, r3
1000494a:	4770      	bx	lr

1000494c <xQueueIsQueueFullFromISR>:
1000494c:	6b83      	ldr	r3, [r0, #56]	; 0x38
1000494e:	6bc0      	ldr	r0, [r0, #60]	; 0x3c
10004950:	1ac0      	subs	r0, r0, r3
10004952:	4243      	negs	r3, r0
10004954:	4158      	adcs	r0, r3
10004956:	4770      	bx	lr

10004958 <vQueueAddToRegistry>:
10004958:	b570      	push	{r4, r5, r6, lr}
1000495a:	2900      	cmp	r1, #0
1000495c:	d00f      	beq.n	1000497e <vQueueAddToRegistry+0x26>
1000495e:	2600      	movs	r6, #0
10004960:	2300      	movs	r3, #0
10004962:	4c42      	ldr	r4, [pc, #264]	; (10004a6c <vQueueAddToRegistry+0x114>)
10004964:	00da      	lsls	r2, r3, #3
10004966:	18a5      	adds	r5, r4, r2
10004968:	686d      	ldr	r5, [r5, #4]
1000496a:	4285      	cmp	r5, r0
1000496c:	d100      	bne.n	10004970 <vQueueAddToRegistry+0x18>
1000496e:	e06f      	b.n	10004a50 <vQueueAddToRegistry+0xf8>
10004970:	2e00      	cmp	r6, #0
10004972:	d005      	beq.n	10004980 <vQueueAddToRegistry+0x28>
10004974:	3301      	adds	r3, #1
10004976:	2b0a      	cmp	r3, #10
10004978:	d1f4      	bne.n	10004964 <vQueueAddToRegistry+0xc>
1000497a:	6031      	str	r1, [r6, #0]
1000497c:	6070      	str	r0, [r6, #4]
1000497e:	bd70      	pop	{r4, r5, r6, pc}
10004980:	58a5      	ldr	r5, [r4, r2]
10004982:	2d00      	cmp	r5, #0
10004984:	d061      	beq.n	10004a4a <vQueueAddToRegistry+0xf2>
10004986:	1c5d      	adds	r5, r3, #1
10004988:	2b09      	cmp	r3, #9
1000498a:	d0f8      	beq.n	1000497e <vQueueAddToRegistry+0x26>
1000498c:	00ea      	lsls	r2, r5, #3
1000498e:	18a6      	adds	r6, r4, r2
10004990:	6876      	ldr	r6, [r6, #4]
10004992:	42b0      	cmp	r0, r6
10004994:	d05c      	beq.n	10004a50 <vQueueAddToRegistry+0xf8>
10004996:	58a6      	ldr	r6, [r4, r2]
10004998:	2e00      	cmp	r6, #0
1000499a:	d05d      	beq.n	10004a58 <vQueueAddToRegistry+0x100>
1000499c:	1c9d      	adds	r5, r3, #2
1000499e:	2b08      	cmp	r3, #8
100049a0:	d0ed      	beq.n	1000497e <vQueueAddToRegistry+0x26>
100049a2:	00ea      	lsls	r2, r5, #3
100049a4:	18a6      	adds	r6, r4, r2
100049a6:	6876      	ldr	r6, [r6, #4]
100049a8:	42b0      	cmp	r0, r6
100049aa:	d051      	beq.n	10004a50 <vQueueAddToRegistry+0xf8>
100049ac:	58a6      	ldr	r6, [r4, r2]
100049ae:	2e00      	cmp	r6, #0
100049b0:	d052      	beq.n	10004a58 <vQueueAddToRegistry+0x100>
100049b2:	1cdd      	adds	r5, r3, #3
100049b4:	2b07      	cmp	r3, #7
100049b6:	d0e2      	beq.n	1000497e <vQueueAddToRegistry+0x26>
100049b8:	00ea      	lsls	r2, r5, #3
100049ba:	18a6      	adds	r6, r4, r2
100049bc:	6876      	ldr	r6, [r6, #4]
100049be:	4286      	cmp	r6, r0
100049c0:	d046      	beq.n	10004a50 <vQueueAddToRegistry+0xf8>
100049c2:	58a6      	ldr	r6, [r4, r2]
100049c4:	2e00      	cmp	r6, #0
100049c6:	d047      	beq.n	10004a58 <vQueueAddToRegistry+0x100>
100049c8:	1d1d      	adds	r5, r3, #4
100049ca:	2b06      	cmp	r3, #6
100049cc:	d0d7      	beq.n	1000497e <vQueueAddToRegistry+0x26>
100049ce:	00ea      	lsls	r2, r5, #3
100049d0:	18a6      	adds	r6, r4, r2
100049d2:	6876      	ldr	r6, [r6, #4]
100049d4:	42b0      	cmp	r0, r6
100049d6:	d03b      	beq.n	10004a50 <vQueueAddToRegistry+0xf8>
100049d8:	58a6      	ldr	r6, [r4, r2]
100049da:	2e00      	cmp	r6, #0
100049dc:	d03c      	beq.n	10004a58 <vQueueAddToRegistry+0x100>
100049de:	1d5d      	adds	r5, r3, #5
100049e0:	2b05      	cmp	r3, #5
100049e2:	d0cc      	beq.n	1000497e <vQueueAddToRegistry+0x26>
100049e4:	00ea      	lsls	r2, r5, #3
100049e6:	18a6      	adds	r6, r4, r2
100049e8:	6876      	ldr	r6, [r6, #4]
100049ea:	42b0      	cmp	r0, r6
100049ec:	d030      	beq.n	10004a50 <vQueueAddToRegistry+0xf8>
100049ee:	58a6      	ldr	r6, [r4, r2]
100049f0:	2e00      	cmp	r6, #0
100049f2:	d031      	beq.n	10004a58 <vQueueAddToRegistry+0x100>
100049f4:	1d9a      	adds	r2, r3, #6
100049f6:	2b04      	cmp	r3, #4
100049f8:	d0c1      	beq.n	1000497e <vQueueAddToRegistry+0x26>
100049fa:	00d5      	lsls	r5, r2, #3
100049fc:	1966      	adds	r6, r4, r5
100049fe:	6876      	ldr	r6, [r6, #4]
10004a00:	42b0      	cmp	r0, r6
10004a02:	d024      	beq.n	10004a4e <vQueueAddToRegistry+0xf6>
10004a04:	5965      	ldr	r5, [r4, r5]
10004a06:	2d00      	cmp	r5, #0
10004a08:	d029      	beq.n	10004a5e <vQueueAddToRegistry+0x106>
10004a0a:	1ddd      	adds	r5, r3, #7
10004a0c:	2b03      	cmp	r3, #3
10004a0e:	d0b6      	beq.n	1000497e <vQueueAddToRegistry+0x26>
10004a10:	00ea      	lsls	r2, r5, #3
10004a12:	18a6      	adds	r6, r4, r2
10004a14:	6876      	ldr	r6, [r6, #4]
10004a16:	42b0      	cmp	r0, r6
10004a18:	d01a      	beq.n	10004a50 <vQueueAddToRegistry+0xf8>
10004a1a:	58a6      	ldr	r6, [r4, r2]
10004a1c:	2e00      	cmp	r6, #0
10004a1e:	d01b      	beq.n	10004a58 <vQueueAddToRegistry+0x100>
10004a20:	3501      	adds	r5, #1
10004a22:	2b02      	cmp	r3, #2
10004a24:	d0ab      	beq.n	1000497e <vQueueAddToRegistry+0x26>
10004a26:	00ea      	lsls	r2, r5, #3
10004a28:	18a6      	adds	r6, r4, r2
10004a2a:	6876      	ldr	r6, [r6, #4]
10004a2c:	42b0      	cmp	r0, r6
10004a2e:	d00f      	beq.n	10004a50 <vQueueAddToRegistry+0xf8>
10004a30:	58a6      	ldr	r6, [r4, r2]
10004a32:	2e00      	cmp	r6, #0
10004a34:	d010      	beq.n	10004a58 <vQueueAddToRegistry+0x100>
10004a36:	2b01      	cmp	r3, #1
10004a38:	d0a1      	beq.n	1000497e <vQueueAddToRegistry+0x26>
10004a3a:	6ce3      	ldr	r3, [r4, #76]	; 0x4c
10004a3c:	4298      	cmp	r0, r3
10004a3e:	d012      	beq.n	10004a66 <vQueueAddToRegistry+0x10e>
10004a40:	6ca3      	ldr	r3, [r4, #72]	; 0x48
10004a42:	2b00      	cmp	r3, #0
10004a44:	d19b      	bne.n	1000497e <vQueueAddToRegistry+0x26>
10004a46:	2309      	movs	r3, #9
10004a48:	2248      	movs	r2, #72	; 0x48
10004a4a:	18a6      	adds	r6, r4, r2
10004a4c:	e792      	b.n	10004974 <vQueueAddToRegistry+0x1c>
10004a4e:	00d2      	lsls	r2, r2, #3
10004a50:	18a6      	adds	r6, r4, r2
10004a52:	6031      	str	r1, [r6, #0]
10004a54:	6070      	str	r0, [r6, #4]
10004a56:	e792      	b.n	1000497e <vQueueAddToRegistry+0x26>
10004a58:	002b      	movs	r3, r5
10004a5a:	18a6      	adds	r6, r4, r2
10004a5c:	e78a      	b.n	10004974 <vQueueAddToRegistry+0x1c>
10004a5e:	0013      	movs	r3, r2
10004a60:	00d2      	lsls	r2, r2, #3
10004a62:	18a6      	adds	r6, r4, r2
10004a64:	e786      	b.n	10004974 <vQueueAddToRegistry+0x1c>
10004a66:	2248      	movs	r2, #72	; 0x48
10004a68:	18a6      	adds	r6, r4, r2
10004a6a:	e7f2      	b.n	10004a52 <vQueueAddToRegistry+0xfa>
10004a6c:	20000a88 	.word	0x20000a88

10004a70 <pcQueueGetName>:
10004a70:	4a1b      	ldr	r2, [pc, #108]	; (10004ae0 <pcQueueGetName+0x70>)
10004a72:	0003      	movs	r3, r0
10004a74:	6851      	ldr	r1, [r2, #4]
10004a76:	4288      	cmp	r0, r1
10004a78:	d01c      	beq.n	10004ab4 <pcQueueGetName+0x44>
10004a7a:	68d1      	ldr	r1, [r2, #12]
10004a7c:	4288      	cmp	r0, r1
10004a7e:	d01d      	beq.n	10004abc <pcQueueGetName+0x4c>
10004a80:	6951      	ldr	r1, [r2, #20]
10004a82:	4288      	cmp	r0, r1
10004a84:	d01c      	beq.n	10004ac0 <pcQueueGetName+0x50>
10004a86:	69d1      	ldr	r1, [r2, #28]
10004a88:	4288      	cmp	r0, r1
10004a8a:	d01b      	beq.n	10004ac4 <pcQueueGetName+0x54>
10004a8c:	6a51      	ldr	r1, [r2, #36]	; 0x24
10004a8e:	4288      	cmp	r0, r1
10004a90:	d01a      	beq.n	10004ac8 <pcQueueGetName+0x58>
10004a92:	6ad1      	ldr	r1, [r2, #44]	; 0x2c
10004a94:	4288      	cmp	r0, r1
10004a96:	d019      	beq.n	10004acc <pcQueueGetName+0x5c>
10004a98:	6b51      	ldr	r1, [r2, #52]	; 0x34
10004a9a:	4288      	cmp	r0, r1
10004a9c:	d018      	beq.n	10004ad0 <pcQueueGetName+0x60>
10004a9e:	6bd1      	ldr	r1, [r2, #60]	; 0x3c
10004aa0:	4288      	cmp	r0, r1
10004aa2:	d017      	beq.n	10004ad4 <pcQueueGetName+0x64>
10004aa4:	6c51      	ldr	r1, [r2, #68]	; 0x44
10004aa6:	4288      	cmp	r0, r1
10004aa8:	d016      	beq.n	10004ad8 <pcQueueGetName+0x68>
10004aaa:	6cd1      	ldr	r1, [r2, #76]	; 0x4c
10004aac:	2000      	movs	r0, #0
10004aae:	4299      	cmp	r1, r3
10004ab0:	d014      	beq.n	10004adc <pcQueueGetName+0x6c>
10004ab2:	4770      	bx	lr
10004ab4:	2300      	movs	r3, #0
10004ab6:	00db      	lsls	r3, r3, #3
10004ab8:	58d0      	ldr	r0, [r2, r3]
10004aba:	e7fa      	b.n	10004ab2 <pcQueueGetName+0x42>
10004abc:	2301      	movs	r3, #1
10004abe:	e7fa      	b.n	10004ab6 <pcQueueGetName+0x46>
10004ac0:	2302      	movs	r3, #2
10004ac2:	e7f8      	b.n	10004ab6 <pcQueueGetName+0x46>
10004ac4:	2303      	movs	r3, #3
10004ac6:	e7f6      	b.n	10004ab6 <pcQueueGetName+0x46>
10004ac8:	2304      	movs	r3, #4
10004aca:	e7f4      	b.n	10004ab6 <pcQueueGetName+0x46>
10004acc:	2305      	movs	r3, #5
10004ace:	e7f2      	b.n	10004ab6 <pcQueueGetName+0x46>
10004ad0:	2306      	movs	r3, #6
10004ad2:	e7f0      	b.n	10004ab6 <pcQueueGetName+0x46>
10004ad4:	2307      	movs	r3, #7
10004ad6:	e7ee      	b.n	10004ab6 <pcQueueGetName+0x46>
10004ad8:	2308      	movs	r3, #8
10004ada:	e7ec      	b.n	10004ab6 <pcQueueGetName+0x46>
10004adc:	2309      	movs	r3, #9
10004ade:	e7ea      	b.n	10004ab6 <pcQueueGetName+0x46>
10004ae0:	20000a88 	.word	0x20000a88

10004ae4 <vQueueUnregisterQueue>:
10004ae4:	4b1c      	ldr	r3, [pc, #112]	; (10004b58 <vQueueUnregisterQueue+0x74>)
10004ae6:	685a      	ldr	r2, [r3, #4]
10004ae8:	4290      	cmp	r0, r2
10004aea:	d01b      	beq.n	10004b24 <vQueueUnregisterQueue+0x40>
10004aec:	68da      	ldr	r2, [r3, #12]
10004aee:	4290      	cmp	r0, r2
10004af0:	d020      	beq.n	10004b34 <vQueueUnregisterQueue+0x50>
10004af2:	695a      	ldr	r2, [r3, #20]
10004af4:	4290      	cmp	r0, r2
10004af6:	d01f      	beq.n	10004b38 <vQueueUnregisterQueue+0x54>
10004af8:	69da      	ldr	r2, [r3, #28]
10004afa:	4290      	cmp	r0, r2
10004afc:	d01e      	beq.n	10004b3c <vQueueUnregisterQueue+0x58>
10004afe:	6a5a      	ldr	r2, [r3, #36]	; 0x24
10004b00:	4290      	cmp	r0, r2
10004b02:	d01d      	beq.n	10004b40 <vQueueUnregisterQueue+0x5c>
10004b04:	6ada      	ldr	r2, [r3, #44]	; 0x2c
10004b06:	4290      	cmp	r0, r2
10004b08:	d01c      	beq.n	10004b44 <vQueueUnregisterQueue+0x60>
10004b0a:	6b5a      	ldr	r2, [r3, #52]	; 0x34
10004b0c:	4290      	cmp	r0, r2
10004b0e:	d01b      	beq.n	10004b48 <vQueueUnregisterQueue+0x64>
10004b10:	6bda      	ldr	r2, [r3, #60]	; 0x3c
10004b12:	4290      	cmp	r0, r2
10004b14:	d01a      	beq.n	10004b4c <vQueueUnregisterQueue+0x68>
10004b16:	6c5a      	ldr	r2, [r3, #68]	; 0x44
10004b18:	4290      	cmp	r0, r2
10004b1a:	d019      	beq.n	10004b50 <vQueueUnregisterQueue+0x6c>
10004b1c:	6cda      	ldr	r2, [r3, #76]	; 0x4c
10004b1e:	4282      	cmp	r2, r0
10004b20:	d018      	beq.n	10004b54 <vQueueUnregisterQueue+0x70>
10004b22:	4770      	bx	lr
10004b24:	2200      	movs	r2, #0
10004b26:	2000      	movs	r0, #0
10004b28:	2100      	movs	r1, #0
10004b2a:	00d2      	lsls	r2, r2, #3
10004b2c:	189b      	adds	r3, r3, r2
10004b2e:	6018      	str	r0, [r3, #0]
10004b30:	6059      	str	r1, [r3, #4]
10004b32:	e7f6      	b.n	10004b22 <vQueueUnregisterQueue+0x3e>
10004b34:	2201      	movs	r2, #1
10004b36:	e7f6      	b.n	10004b26 <vQueueUnregisterQueue+0x42>
10004b38:	2202      	movs	r2, #2
10004b3a:	e7f4      	b.n	10004b26 <vQueueUnregisterQueue+0x42>
10004b3c:	2203      	movs	r2, #3
10004b3e:	e7f2      	b.n	10004b26 <vQueueUnregisterQueue+0x42>
10004b40:	2204      	movs	r2, #4
10004b42:	e7f0      	b.n	10004b26 <vQueueUnregisterQueue+0x42>
10004b44:	2205      	movs	r2, #5
10004b46:	e7ee      	b.n	10004b26 <vQueueUnregisterQueue+0x42>
10004b48:	2206      	movs	r2, #6
10004b4a:	e7ec      	b.n	10004b26 <vQueueUnregisterQueue+0x42>
10004b4c:	2207      	movs	r2, #7
10004b4e:	e7ea      	b.n	10004b26 <vQueueUnregisterQueue+0x42>
10004b50:	2208      	movs	r2, #8
10004b52:	e7e8      	b.n	10004b26 <vQueueUnregisterQueue+0x42>
10004b54:	2209      	movs	r2, #9
10004b56:	e7e6      	b.n	10004b26 <vQueueUnregisterQueue+0x42>
10004b58:	20000a88 	.word	0x20000a88

10004b5c <vQueueWaitForMessageRestricted>:
10004b5c:	b570      	push	{r4, r5, r6, lr}
10004b5e:	0005      	movs	r5, r0
10004b60:	0016      	movs	r6, r2
10004b62:	000c      	movs	r4, r1
10004b64:	f7fe fe96 	bl	10003894 <vPortEnterCritical>
10004b68:	2244      	movs	r2, #68	; 0x44
10004b6a:	5cab      	ldrb	r3, [r5, r2]
10004b6c:	b25b      	sxtb	r3, r3
10004b6e:	3301      	adds	r3, #1
10004b70:	d101      	bne.n	10004b76 <vQueueWaitForMessageRestricted+0x1a>
10004b72:	2300      	movs	r3, #0
10004b74:	54ab      	strb	r3, [r5, r2]
10004b76:	2245      	movs	r2, #69	; 0x45
10004b78:	5cab      	ldrb	r3, [r5, r2]
10004b7a:	b25b      	sxtb	r3, r3
10004b7c:	3301      	adds	r3, #1
10004b7e:	d101      	bne.n	10004b84 <vQueueWaitForMessageRestricted+0x28>
10004b80:	2300      	movs	r3, #0
10004b82:	54ab      	strb	r3, [r5, r2]
10004b84:	f7fe fe92 	bl	100038ac <vPortExitCritical>
10004b88:	6bab      	ldr	r3, [r5, #56]	; 0x38
10004b8a:	2b00      	cmp	r3, #0
10004b8c:	d046      	beq.n	10004c1c <vQueueWaitForMessageRestricted+0xc0>
10004b8e:	f7fe fe81 	bl	10003894 <vPortEnterCritical>
10004b92:	2345      	movs	r3, #69	; 0x45
10004b94:	5cec      	ldrb	r4, [r5, r3]
10004b96:	b264      	sxtb	r4, r4
10004b98:	2c00      	cmp	r4, #0
10004b9a:	dd16      	ble.n	10004bca <vQueueWaitForMessageRestricted+0x6e>
10004b9c:	002e      	movs	r6, r5
10004b9e:	3624      	adds	r6, #36	; 0x24
10004ba0:	e004      	b.n	10004bac <vQueueWaitForMessageRestricted+0x50>
10004ba2:	3c01      	subs	r4, #1
10004ba4:	b2e2      	uxtb	r2, r4
10004ba6:	b264      	sxtb	r4, r4
10004ba8:	2a00      	cmp	r2, #0
10004baa:	d00e      	beq.n	10004bca <vQueueWaitForMessageRestricted+0x6e>
10004bac:	6a6b      	ldr	r3, [r5, #36]	; 0x24
10004bae:	2b00      	cmp	r3, #0
10004bb0:	d00b      	beq.n	10004bca <vQueueWaitForMessageRestricted+0x6e>
10004bb2:	0030      	movs	r0, r6
10004bb4:	f7fe f816 	bl	10002be4 <xTaskRemoveFromEventList>
10004bb8:	2800      	cmp	r0, #0
10004bba:	d0f2      	beq.n	10004ba2 <vQueueWaitForMessageRestricted+0x46>
10004bbc:	3c01      	subs	r4, #1
10004bbe:	f7fe f8fd 	bl	10002dbc <vTaskMissedYield>
10004bc2:	b2e2      	uxtb	r2, r4
10004bc4:	b264      	sxtb	r4, r4
10004bc6:	2a00      	cmp	r2, #0
10004bc8:	d1f0      	bne.n	10004bac <vQueueWaitForMessageRestricted+0x50>
10004bca:	2345      	movs	r3, #69	; 0x45
10004bcc:	22ff      	movs	r2, #255	; 0xff
10004bce:	54ea      	strb	r2, [r5, r3]
10004bd0:	f7fe fe6c 	bl	100038ac <vPortExitCritical>
10004bd4:	f7fe fe5e 	bl	10003894 <vPortEnterCritical>
10004bd8:	2344      	movs	r3, #68	; 0x44
10004bda:	5cec      	ldrb	r4, [r5, r3]
10004bdc:	b264      	sxtb	r4, r4
10004bde:	2c00      	cmp	r4, #0
10004be0:	dd16      	ble.n	10004c10 <vQueueWaitForMessageRestricted+0xb4>
10004be2:	002e      	movs	r6, r5
10004be4:	3610      	adds	r6, #16
10004be6:	e004      	b.n	10004bf2 <vQueueWaitForMessageRestricted+0x96>
10004be8:	3c01      	subs	r4, #1
10004bea:	b2e2      	uxtb	r2, r4
10004bec:	b264      	sxtb	r4, r4
10004bee:	2a00      	cmp	r2, #0
10004bf0:	d00e      	beq.n	10004c10 <vQueueWaitForMessageRestricted+0xb4>
10004bf2:	692b      	ldr	r3, [r5, #16]
10004bf4:	2b00      	cmp	r3, #0
10004bf6:	d00b      	beq.n	10004c10 <vQueueWaitForMessageRestricted+0xb4>
10004bf8:	0030      	movs	r0, r6
10004bfa:	f7fd fff3 	bl	10002be4 <xTaskRemoveFromEventList>
10004bfe:	2800      	cmp	r0, #0
10004c00:	d0f2      	beq.n	10004be8 <vQueueWaitForMessageRestricted+0x8c>
10004c02:	3c01      	subs	r4, #1
10004c04:	f7fe f8da 	bl	10002dbc <vTaskMissedYield>
10004c08:	b2e2      	uxtb	r2, r4
10004c0a:	b264      	sxtb	r4, r4
10004c0c:	2a00      	cmp	r2, #0
10004c0e:	d1f0      	bne.n	10004bf2 <vQueueWaitForMessageRestricted+0x96>
10004c10:	2344      	movs	r3, #68	; 0x44
10004c12:	22ff      	movs	r2, #255	; 0xff
10004c14:	54ea      	strb	r2, [r5, r3]
10004c16:	f7fe fe49 	bl	100038ac <vPortExitCritical>
10004c1a:	bd70      	pop	{r4, r5, r6, pc}
10004c1c:	0028      	movs	r0, r5
10004c1e:	0032      	movs	r2, r6
10004c20:	0021      	movs	r1, r4
10004c22:	3024      	adds	r0, #36	; 0x24
10004c24:	f7fd ff90 	bl	10002b48 <vTaskPlaceOnEventListRestricted>
10004c28:	e7b1      	b.n	10004b8e <vQueueWaitForMessageRestricted+0x32>
10004c2a:	46c0      	nop			; (mov r8, r8)

10004c2c <malloc>:
10004c2c:	b510      	push	{r4, lr}
10004c2e:	4b03      	ldr	r3, [pc, #12]	; (10004c3c <malloc+0x10>)
10004c30:	0001      	movs	r1, r0
10004c32:	6818      	ldr	r0, [r3, #0]
10004c34:	f000 f80e 	bl	10004c54 <_malloc_r>
10004c38:	bd10      	pop	{r4, pc}
10004c3a:	46c0      	nop			; (mov r8, r8)
10004c3c:	2000022c 	.word	0x2000022c

10004c40 <free>:
10004c40:	b510      	push	{r4, lr}
10004c42:	4b03      	ldr	r3, [pc, #12]	; (10004c50 <free+0x10>)
10004c44:	0001      	movs	r1, r0
10004c46:	6818      	ldr	r0, [r3, #0]
10004c48:	f000 fb64 	bl	10005314 <_free_r>
10004c4c:	bd10      	pop	{r4, pc}
10004c4e:	46c0      	nop			; (mov r8, r8)
10004c50:	2000022c 	.word	0x2000022c

10004c54 <_malloc_r>:
10004c54:	b5f0      	push	{r4, r5, r6, r7, lr}
10004c56:	464e      	mov	r6, r9
10004c58:	4645      	mov	r5, r8
10004c5a:	46de      	mov	lr, fp
10004c5c:	4657      	mov	r7, sl
10004c5e:	b5e0      	push	{r5, r6, r7, lr}
10004c60:	000d      	movs	r5, r1
10004c62:	350b      	adds	r5, #11
10004c64:	0006      	movs	r6, r0
10004c66:	b083      	sub	sp, #12
10004c68:	2d16      	cmp	r5, #22
10004c6a:	d822      	bhi.n	10004cb2 <_malloc_r+0x5e>
10004c6c:	2910      	cmp	r1, #16
10004c6e:	d900      	bls.n	10004c72 <_malloc_r+0x1e>
10004c70:	e0b2      	b.n	10004dd8 <_malloc_r+0x184>
10004c72:	f000 fab1 	bl	100051d8 <__malloc_lock>
10004c76:	2510      	movs	r5, #16
10004c78:	2318      	movs	r3, #24
10004c7a:	2002      	movs	r0, #2
10004c7c:	4fcc      	ldr	r7, [pc, #816]	; (10004fb0 <_malloc_r+0x35c>)
10004c7e:	18fb      	adds	r3, r7, r3
10004c80:	001a      	movs	r2, r3
10004c82:	685c      	ldr	r4, [r3, #4]
10004c84:	3a08      	subs	r2, #8
10004c86:	4294      	cmp	r4, r2
10004c88:	d100      	bne.n	10004c8c <_malloc_r+0x38>
10004c8a:	e0b5      	b.n	10004df8 <_malloc_r+0x1a4>
10004c8c:	2303      	movs	r3, #3
10004c8e:	6862      	ldr	r2, [r4, #4]
10004c90:	439a      	bics	r2, r3
10004c92:	0013      	movs	r3, r2
10004c94:	68e2      	ldr	r2, [r4, #12]
10004c96:	68a1      	ldr	r1, [r4, #8]
10004c98:	60ca      	str	r2, [r1, #12]
10004c9a:	6091      	str	r1, [r2, #8]
10004c9c:	2201      	movs	r2, #1
10004c9e:	18e3      	adds	r3, r4, r3
10004ca0:	6859      	ldr	r1, [r3, #4]
10004ca2:	0030      	movs	r0, r6
10004ca4:	430a      	orrs	r2, r1
10004ca6:	605a      	str	r2, [r3, #4]
10004ca8:	f000 fa9e 	bl	100051e8 <__malloc_unlock>
10004cac:	0020      	movs	r0, r4
10004cae:	3008      	adds	r0, #8
10004cb0:	e095      	b.n	10004dde <_malloc_r+0x18a>
10004cb2:	2307      	movs	r3, #7
10004cb4:	439d      	bics	r5, r3
10004cb6:	d500      	bpl.n	10004cba <_malloc_r+0x66>
10004cb8:	e08e      	b.n	10004dd8 <_malloc_r+0x184>
10004cba:	42a9      	cmp	r1, r5
10004cbc:	d900      	bls.n	10004cc0 <_malloc_r+0x6c>
10004cbe:	e08b      	b.n	10004dd8 <_malloc_r+0x184>
10004cc0:	f000 fa8a 	bl	100051d8 <__malloc_lock>
10004cc4:	23fc      	movs	r3, #252	; 0xfc
10004cc6:	005b      	lsls	r3, r3, #1
10004cc8:	429d      	cmp	r5, r3
10004cca:	d200      	bcs.n	10004cce <_malloc_r+0x7a>
10004ccc:	e1a7      	b.n	1000501e <_malloc_r+0x3ca>
10004cce:	0a68      	lsrs	r0, r5, #9
10004cd0:	d100      	bne.n	10004cd4 <_malloc_r+0x80>
10004cd2:	e08b      	b.n	10004dec <_malloc_r+0x198>
10004cd4:	2804      	cmp	r0, #4
10004cd6:	d900      	bls.n	10004cda <_malloc_r+0x86>
10004cd8:	e17a      	b.n	10004fd0 <_malloc_r+0x37c>
10004cda:	2338      	movs	r3, #56	; 0x38
10004cdc:	4698      	mov	r8, r3
10004cde:	09a8      	lsrs	r0, r5, #6
10004ce0:	4480      	add	r8, r0
10004ce2:	3039      	adds	r0, #57	; 0x39
10004ce4:	00c1      	lsls	r1, r0, #3
10004ce6:	4fb2      	ldr	r7, [pc, #712]	; (10004fb0 <_malloc_r+0x35c>)
10004ce8:	1879      	adds	r1, r7, r1
10004cea:	684c      	ldr	r4, [r1, #4]
10004cec:	3908      	subs	r1, #8
10004cee:	42a1      	cmp	r1, r4
10004cf0:	d00e      	beq.n	10004d10 <_malloc_r+0xbc>
10004cf2:	2303      	movs	r3, #3
10004cf4:	469c      	mov	ip, r3
10004cf6:	e004      	b.n	10004d02 <_malloc_r+0xae>
10004cf8:	2a00      	cmp	r2, #0
10004cfa:	dacb      	bge.n	10004c94 <_malloc_r+0x40>
10004cfc:	68e4      	ldr	r4, [r4, #12]
10004cfe:	42a1      	cmp	r1, r4
10004d00:	d006      	beq.n	10004d10 <_malloc_r+0xbc>
10004d02:	4662      	mov	r2, ip
10004d04:	6863      	ldr	r3, [r4, #4]
10004d06:	4393      	bics	r3, r2
10004d08:	1b5a      	subs	r2, r3, r5
10004d0a:	2a0f      	cmp	r2, #15
10004d0c:	ddf4      	ble.n	10004cf8 <_malloc_r+0xa4>
10004d0e:	4640      	mov	r0, r8
10004d10:	003a      	movs	r2, r7
10004d12:	693c      	ldr	r4, [r7, #16]
10004d14:	3208      	adds	r2, #8
10004d16:	4294      	cmp	r4, r2
10004d18:	d100      	bne.n	10004d1c <_malloc_r+0xc8>
10004d1a:	e078      	b.n	10004e0e <_malloc_r+0x1ba>
10004d1c:	2303      	movs	r3, #3
10004d1e:	6861      	ldr	r1, [r4, #4]
10004d20:	4399      	bics	r1, r3
10004d22:	4689      	mov	r9, r1
10004d24:	000b      	movs	r3, r1
10004d26:	1b49      	subs	r1, r1, r5
10004d28:	290f      	cmp	r1, #15
10004d2a:	dd00      	ble.n	10004d2e <_malloc_r+0xda>
10004d2c:	e17b      	b.n	10005026 <_malloc_r+0x3d2>
10004d2e:	617a      	str	r2, [r7, #20]
10004d30:	613a      	str	r2, [r7, #16]
10004d32:	2900      	cmp	r1, #0
10004d34:	dab2      	bge.n	10004c9c <_malloc_r+0x48>
10004d36:	2280      	movs	r2, #128	; 0x80
10004d38:	0092      	lsls	r2, r2, #2
10004d3a:	4591      	cmp	r9, r2
10004d3c:	d300      	bcc.n	10004d40 <_malloc_r+0xec>
10004d3e:	e10f      	b.n	10004f60 <_malloc_r+0x30c>
10004d40:	0959      	lsrs	r1, r3, #5
10004d42:	08da      	lsrs	r2, r3, #3
10004d44:	2301      	movs	r3, #1
10004d46:	408b      	lsls	r3, r1
10004d48:	00d2      	lsls	r2, r2, #3
10004d4a:	6879      	ldr	r1, [r7, #4]
10004d4c:	19d2      	adds	r2, r2, r7
10004d4e:	430b      	orrs	r3, r1
10004d50:	6891      	ldr	r1, [r2, #8]
10004d52:	607b      	str	r3, [r7, #4]
10004d54:	60e2      	str	r2, [r4, #12]
10004d56:	60a1      	str	r1, [r4, #8]
10004d58:	6094      	str	r4, [r2, #8]
10004d5a:	60cc      	str	r4, [r1, #12]
10004d5c:	2101      	movs	r1, #1
10004d5e:	1082      	asrs	r2, r0, #2
10004d60:	4091      	lsls	r1, r2
10004d62:	4299      	cmp	r1, r3
10004d64:	d859      	bhi.n	10004e1a <_malloc_r+0x1c6>
10004d66:	420b      	tst	r3, r1
10004d68:	d105      	bne.n	10004d76 <_malloc_r+0x122>
10004d6a:	2203      	movs	r2, #3
10004d6c:	4390      	bics	r0, r2
10004d6e:	0049      	lsls	r1, r1, #1
10004d70:	3004      	adds	r0, #4
10004d72:	420b      	tst	r3, r1
10004d74:	d0fb      	beq.n	10004d6e <_malloc_r+0x11a>
10004d76:	2303      	movs	r3, #3
10004d78:	4698      	mov	r8, r3
10004d7a:	00c3      	lsls	r3, r0, #3
10004d7c:	4699      	mov	r9, r3
10004d7e:	44b9      	add	r9, r7
10004d80:	46cc      	mov	ip, r9
10004d82:	4682      	mov	sl, r0
10004d84:	4663      	mov	r3, ip
10004d86:	68dc      	ldr	r4, [r3, #12]
10004d88:	45a4      	cmp	ip, r4
10004d8a:	d107      	bne.n	10004d9c <_malloc_r+0x148>
10004d8c:	e12c      	b.n	10004fe8 <_malloc_r+0x394>
10004d8e:	2a00      	cmp	r2, #0
10004d90:	db00      	blt.n	10004d94 <_malloc_r+0x140>
10004d92:	e135      	b.n	10005000 <_malloc_r+0x3ac>
10004d94:	68e4      	ldr	r4, [r4, #12]
10004d96:	45a4      	cmp	ip, r4
10004d98:	d100      	bne.n	10004d9c <_malloc_r+0x148>
10004d9a:	e125      	b.n	10004fe8 <_malloc_r+0x394>
10004d9c:	4642      	mov	r2, r8
10004d9e:	6863      	ldr	r3, [r4, #4]
10004da0:	4393      	bics	r3, r2
10004da2:	1b5a      	subs	r2, r3, r5
10004da4:	2a0f      	cmp	r2, #15
10004da6:	ddf2      	ble.n	10004d8e <_malloc_r+0x13a>
10004da8:	2001      	movs	r0, #1
10004daa:	4680      	mov	r8, r0
10004dac:	1961      	adds	r1, r4, r5
10004dae:	4305      	orrs	r5, r0
10004db0:	6065      	str	r5, [r4, #4]
10004db2:	68a0      	ldr	r0, [r4, #8]
10004db4:	68e5      	ldr	r5, [r4, #12]
10004db6:	3708      	adds	r7, #8
10004db8:	60c5      	str	r5, [r0, #12]
10004dba:	60a8      	str	r0, [r5, #8]
10004dbc:	4640      	mov	r0, r8
10004dbe:	4310      	orrs	r0, r2
10004dc0:	60f9      	str	r1, [r7, #12]
10004dc2:	60b9      	str	r1, [r7, #8]
10004dc4:	6048      	str	r0, [r1, #4]
10004dc6:	60cf      	str	r7, [r1, #12]
10004dc8:	0030      	movs	r0, r6
10004dca:	608f      	str	r7, [r1, #8]
10004dcc:	50e2      	str	r2, [r4, r3]
10004dce:	f000 fa0b 	bl	100051e8 <__malloc_unlock>
10004dd2:	0020      	movs	r0, r4
10004dd4:	3008      	adds	r0, #8
10004dd6:	e002      	b.n	10004dde <_malloc_r+0x18a>
10004dd8:	230c      	movs	r3, #12
10004dda:	2000      	movs	r0, #0
10004ddc:	6033      	str	r3, [r6, #0]
10004dde:	b003      	add	sp, #12
10004de0:	bcf0      	pop	{r4, r5, r6, r7}
10004de2:	46bb      	mov	fp, r7
10004de4:	46b2      	mov	sl, r6
10004de6:	46a9      	mov	r9, r5
10004de8:	46a0      	mov	r8, r4
10004dea:	bdf0      	pop	{r4, r5, r6, r7, pc}
10004dec:	2180      	movs	r1, #128	; 0x80
10004dee:	233f      	movs	r3, #63	; 0x3f
10004df0:	2040      	movs	r0, #64	; 0x40
10004df2:	4698      	mov	r8, r3
10004df4:	0089      	lsls	r1, r1, #2
10004df6:	e776      	b.n	10004ce6 <_malloc_r+0x92>
10004df8:	68dc      	ldr	r4, [r3, #12]
10004dfa:	3002      	adds	r0, #2
10004dfc:	42a3      	cmp	r3, r4
10004dfe:	d000      	beq.n	10004e02 <_malloc_r+0x1ae>
10004e00:	e744      	b.n	10004c8c <_malloc_r+0x38>
10004e02:	003a      	movs	r2, r7
10004e04:	693c      	ldr	r4, [r7, #16]
10004e06:	3208      	adds	r2, #8
10004e08:	4294      	cmp	r4, r2
10004e0a:	d000      	beq.n	10004e0e <_malloc_r+0x1ba>
10004e0c:	e786      	b.n	10004d1c <_malloc_r+0xc8>
10004e0e:	2101      	movs	r1, #1
10004e10:	687b      	ldr	r3, [r7, #4]
10004e12:	1082      	asrs	r2, r0, #2
10004e14:	4091      	lsls	r1, r2
10004e16:	4299      	cmp	r1, r3
10004e18:	d9a5      	bls.n	10004d66 <_malloc_r+0x112>
10004e1a:	2303      	movs	r3, #3
10004e1c:	68bc      	ldr	r4, [r7, #8]
10004e1e:	6862      	ldr	r2, [r4, #4]
10004e20:	439a      	bics	r2, r3
10004e22:	4691      	mov	r9, r2
10004e24:	4295      	cmp	r5, r2
10004e26:	d803      	bhi.n	10004e30 <_malloc_r+0x1dc>
10004e28:	1b53      	subs	r3, r2, r5
10004e2a:	2b0f      	cmp	r3, #15
10004e2c:	dd00      	ble.n	10004e30 <_malloc_r+0x1dc>
10004e2e:	e089      	b.n	10004f44 <_malloc_r+0x2f0>
10004e30:	0023      	movs	r3, r4
10004e32:	444b      	add	r3, r9
10004e34:	4a5f      	ldr	r2, [pc, #380]	; (10004fb4 <_malloc_r+0x360>)
10004e36:	9301      	str	r3, [sp, #4]
10004e38:	4b5f      	ldr	r3, [pc, #380]	; (10004fb8 <_malloc_r+0x364>)
10004e3a:	4693      	mov	fp, r2
10004e3c:	681b      	ldr	r3, [r3, #0]
10004e3e:	6812      	ldr	r2, [r2, #0]
10004e40:	18eb      	adds	r3, r5, r3
10004e42:	3201      	adds	r2, #1
10004e44:	d100      	bne.n	10004e48 <_malloc_r+0x1f4>
10004e46:	e13d      	b.n	100050c4 <_malloc_r+0x470>
10004e48:	4a5c      	ldr	r2, [pc, #368]	; (10004fbc <_malloc_r+0x368>)
10004e4a:	4694      	mov	ip, r2
10004e4c:	4463      	add	r3, ip
10004e4e:	0b1b      	lsrs	r3, r3, #12
10004e50:	031b      	lsls	r3, r3, #12
10004e52:	9300      	str	r3, [sp, #0]
10004e54:	0030      	movs	r0, r6
10004e56:	9900      	ldr	r1, [sp, #0]
10004e58:	f000 f9ce 	bl	100051f8 <_sbrk_r>
10004e5c:	0003      	movs	r3, r0
10004e5e:	4680      	mov	r8, r0
10004e60:	3301      	adds	r3, #1
10004e62:	d100      	bne.n	10004e66 <_malloc_r+0x212>
10004e64:	e0fa      	b.n	1000505c <_malloc_r+0x408>
10004e66:	9b01      	ldr	r3, [sp, #4]
10004e68:	4283      	cmp	r3, r0
10004e6a:	d900      	bls.n	10004e6e <_malloc_r+0x21a>
10004e6c:	e0f4      	b.n	10005058 <_malloc_r+0x404>
10004e6e:	4b54      	ldr	r3, [pc, #336]	; (10004fc0 <_malloc_r+0x36c>)
10004e70:	9800      	ldr	r0, [sp, #0]
10004e72:	001a      	movs	r2, r3
10004e74:	469a      	mov	sl, r3
10004e76:	6812      	ldr	r2, [r2, #0]
10004e78:	0003      	movs	r3, r0
10004e7a:	4694      	mov	ip, r2
10004e7c:	4651      	mov	r1, sl
10004e7e:	4463      	add	r3, ip
10004e80:	600b      	str	r3, [r1, #0]
10004e82:	9901      	ldr	r1, [sp, #4]
10004e84:	001a      	movs	r2, r3
10004e86:	4541      	cmp	r1, r8
10004e88:	d100      	bne.n	10004e8c <_malloc_r+0x238>
10004e8a:	e151      	b.n	10005130 <_malloc_r+0x4dc>
10004e8c:	465b      	mov	r3, fp
10004e8e:	681b      	ldr	r3, [r3, #0]
10004e90:	3301      	adds	r3, #1
10004e92:	d100      	bne.n	10004e96 <_malloc_r+0x242>
10004e94:	e156      	b.n	10005144 <_malloc_r+0x4f0>
10004e96:	4643      	mov	r3, r8
10004e98:	9901      	ldr	r1, [sp, #4]
10004e9a:	1a5b      	subs	r3, r3, r1
10004e9c:	189a      	adds	r2, r3, r2
10004e9e:	4653      	mov	r3, sl
10004ea0:	601a      	str	r2, [r3, #0]
10004ea2:	2307      	movs	r3, #7
10004ea4:	4642      	mov	r2, r8
10004ea6:	4641      	mov	r1, r8
10004ea8:	401a      	ands	r2, r3
10004eaa:	9201      	str	r2, [sp, #4]
10004eac:	4219      	tst	r1, r3
10004eae:	d100      	bne.n	10004eb2 <_malloc_r+0x25e>
10004eb0:	e112      	b.n	100050d8 <_malloc_r+0x484>
10004eb2:	2308      	movs	r3, #8
10004eb4:	4698      	mov	r8, r3
10004eb6:	1a88      	subs	r0, r1, r2
10004eb8:	4b42      	ldr	r3, [pc, #264]	; (10004fc4 <_malloc_r+0x370>)
10004eba:	9900      	ldr	r1, [sp, #0]
10004ebc:	4480      	add	r8, r0
10004ebe:	4441      	add	r1, r8
10004ec0:	1a9b      	subs	r3, r3, r2
10004ec2:	1a5b      	subs	r3, r3, r1
10004ec4:	051b      	lsls	r3, r3, #20
10004ec6:	0d1b      	lsrs	r3, r3, #20
10004ec8:	9100      	str	r1, [sp, #0]
10004eca:	0030      	movs	r0, r6
10004ecc:	0019      	movs	r1, r3
10004ece:	469b      	mov	fp, r3
10004ed0:	f000 f992 	bl	100051f8 <_sbrk_r>
10004ed4:	1c43      	adds	r3, r0, #1
10004ed6:	d100      	bne.n	10004eda <_malloc_r+0x286>
10004ed8:	e150      	b.n	1000517c <_malloc_r+0x528>
10004eda:	4643      	mov	r3, r8
10004edc:	1ac0      	subs	r0, r0, r3
10004ede:	0003      	movs	r3, r0
10004ee0:	445b      	add	r3, fp
10004ee2:	9300      	str	r3, [sp, #0]
10004ee4:	4653      	mov	r3, sl
10004ee6:	4652      	mov	r2, sl
10004ee8:	681b      	ldr	r3, [r3, #0]
10004eea:	2101      	movs	r1, #1
10004eec:	445b      	add	r3, fp
10004eee:	6013      	str	r3, [r2, #0]
10004ef0:	4642      	mov	r2, r8
10004ef2:	4640      	mov	r0, r8
10004ef4:	60ba      	str	r2, [r7, #8]
10004ef6:	9a00      	ldr	r2, [sp, #0]
10004ef8:	430a      	orrs	r2, r1
10004efa:	6042      	str	r2, [r0, #4]
10004efc:	42bc      	cmp	r4, r7
10004efe:	d100      	bne.n	10004f02 <_malloc_r+0x2ae>
10004f00:	e124      	b.n	1000514c <_malloc_r+0x4f8>
10004f02:	464a      	mov	r2, r9
10004f04:	2a0f      	cmp	r2, #15
10004f06:	d800      	bhi.n	10004f0a <_malloc_r+0x2b6>
10004f08:	e122      	b.n	10005150 <_malloc_r+0x4fc>
10004f0a:	2007      	movs	r0, #7
10004f0c:	3a0c      	subs	r2, #12
10004f0e:	4382      	bics	r2, r0
10004f10:	6860      	ldr	r0, [r4, #4]
10004f12:	4001      	ands	r1, r0
10004f14:	2005      	movs	r0, #5
10004f16:	4311      	orrs	r1, r2
10004f18:	6061      	str	r1, [r4, #4]
10004f1a:	18a1      	adds	r1, r4, r2
10004f1c:	6048      	str	r0, [r1, #4]
10004f1e:	6088      	str	r0, [r1, #8]
10004f20:	2a0f      	cmp	r2, #15
10004f22:	d900      	bls.n	10004f26 <_malloc_r+0x2d2>
10004f24:	e135      	b.n	10005192 <_malloc_r+0x53e>
10004f26:	4642      	mov	r2, r8
10004f28:	4644      	mov	r4, r8
10004f2a:	6852      	ldr	r2, [r2, #4]
10004f2c:	4926      	ldr	r1, [pc, #152]	; (10004fc8 <_malloc_r+0x374>)
10004f2e:	6808      	ldr	r0, [r1, #0]
10004f30:	4298      	cmp	r0, r3
10004f32:	d200      	bcs.n	10004f36 <_malloc_r+0x2e2>
10004f34:	600b      	str	r3, [r1, #0]
10004f36:	4925      	ldr	r1, [pc, #148]	; (10004fcc <_malloc_r+0x378>)
10004f38:	6808      	ldr	r0, [r1, #0]
10004f3a:	4298      	cmp	r0, r3
10004f3c:	d300      	bcc.n	10004f40 <_malloc_r+0x2ec>
10004f3e:	e08f      	b.n	10005060 <_malloc_r+0x40c>
10004f40:	600b      	str	r3, [r1, #0]
10004f42:	e08d      	b.n	10005060 <_malloc_r+0x40c>
10004f44:	2201      	movs	r2, #1
10004f46:	0029      	movs	r1, r5
10004f48:	4313      	orrs	r3, r2
10004f4a:	4311      	orrs	r1, r2
10004f4c:	1965      	adds	r5, r4, r5
10004f4e:	6061      	str	r1, [r4, #4]
10004f50:	0030      	movs	r0, r6
10004f52:	60bd      	str	r5, [r7, #8]
10004f54:	606b      	str	r3, [r5, #4]
10004f56:	f000 f947 	bl	100051e8 <__malloc_unlock>
10004f5a:	0020      	movs	r0, r4
10004f5c:	3008      	adds	r0, #8
10004f5e:	e73e      	b.n	10004dde <_malloc_r+0x18a>
10004f60:	0a5a      	lsrs	r2, r3, #9
10004f62:	2a04      	cmp	r2, #4
10004f64:	d972      	bls.n	1000504c <_malloc_r+0x3f8>
10004f66:	2a14      	cmp	r2, #20
10004f68:	d900      	bls.n	10004f6c <_malloc_r+0x318>
10004f6a:	e0c5      	b.n	100050f8 <_malloc_r+0x4a4>
10004f6c:	0011      	movs	r1, r2
10004f6e:	325c      	adds	r2, #92	; 0x5c
10004f70:	315b      	adds	r1, #91	; 0x5b
10004f72:	00d2      	lsls	r2, r2, #3
10004f74:	2308      	movs	r3, #8
10004f76:	425b      	negs	r3, r3
10004f78:	469c      	mov	ip, r3
10004f7a:	18ba      	adds	r2, r7, r2
10004f7c:	4494      	add	ip, r2
10004f7e:	4663      	mov	r3, ip
10004f80:	689a      	ldr	r2, [r3, #8]
10004f82:	2303      	movs	r3, #3
10004f84:	4698      	mov	r8, r3
10004f86:	4594      	cmp	ip, r2
10004f88:	d100      	bne.n	10004f8c <_malloc_r+0x338>
10004f8a:	e09e      	b.n	100050ca <_malloc_r+0x476>
10004f8c:	4643      	mov	r3, r8
10004f8e:	6851      	ldr	r1, [r2, #4]
10004f90:	4399      	bics	r1, r3
10004f92:	4549      	cmp	r1, r9
10004f94:	d902      	bls.n	10004f9c <_malloc_r+0x348>
10004f96:	6892      	ldr	r2, [r2, #8]
10004f98:	4594      	cmp	ip, r2
10004f9a:	d1f7      	bne.n	10004f8c <_malloc_r+0x338>
10004f9c:	68d3      	ldr	r3, [r2, #12]
10004f9e:	469c      	mov	ip, r3
10004fa0:	687b      	ldr	r3, [r7, #4]
10004fa2:	4661      	mov	r1, ip
10004fa4:	60a2      	str	r2, [r4, #8]
10004fa6:	60e1      	str	r1, [r4, #12]
10004fa8:	608c      	str	r4, [r1, #8]
10004faa:	60d4      	str	r4, [r2, #12]
10004fac:	e6d6      	b.n	10004d5c <_malloc_r+0x108>
10004fae:	46c0      	nop			; (mov r8, r8)
10004fb0:	20000658 	.word	0x20000658
10004fb4:	20000a60 	.word	0x20000a60
10004fb8:	20000f68 	.word	0x20000f68
10004fbc:	0000100f 	.word	0x0000100f
10004fc0:	20000f38 	.word	0x20000f38
10004fc4:	00001008 	.word	0x00001008
10004fc8:	20000f60 	.word	0x20000f60
10004fcc:	20000f64 	.word	0x20000f64
10004fd0:	2814      	cmp	r0, #20
10004fd2:	d952      	bls.n	1000507a <_malloc_r+0x426>
10004fd4:	2854      	cmp	r0, #84	; 0x54
10004fd6:	d900      	bls.n	10004fda <_malloc_r+0x386>
10004fd8:	e096      	b.n	10005108 <_malloc_r+0x4b4>
10004fda:	236e      	movs	r3, #110	; 0x6e
10004fdc:	4698      	mov	r8, r3
10004fde:	0b28      	lsrs	r0, r5, #12
10004fe0:	4480      	add	r8, r0
10004fe2:	306f      	adds	r0, #111	; 0x6f
10004fe4:	00c1      	lsls	r1, r0, #3
10004fe6:	e67e      	b.n	10004ce6 <_malloc_r+0x92>
10004fe8:	2308      	movs	r3, #8
10004fea:	469b      	mov	fp, r3
10004fec:	3b07      	subs	r3, #7
10004fee:	44dc      	add	ip, fp
10004ff0:	469b      	mov	fp, r3
10004ff2:	44da      	add	sl, fp
10004ff4:	4643      	mov	r3, r8
10004ff6:	4652      	mov	r2, sl
10004ff8:	4213      	tst	r3, r2
10004ffa:	d000      	beq.n	10004ffe <_malloc_r+0x3aa>
10004ffc:	e6c2      	b.n	10004d84 <_malloc_r+0x130>
10004ffe:	e04c      	b.n	1000509a <_malloc_r+0x446>
10005000:	2201      	movs	r2, #1
10005002:	18e3      	adds	r3, r4, r3
10005004:	6859      	ldr	r1, [r3, #4]
10005006:	0030      	movs	r0, r6
10005008:	430a      	orrs	r2, r1
1000500a:	605a      	str	r2, [r3, #4]
1000500c:	68e3      	ldr	r3, [r4, #12]
1000500e:	68a2      	ldr	r2, [r4, #8]
10005010:	60d3      	str	r3, [r2, #12]
10005012:	609a      	str	r2, [r3, #8]
10005014:	f000 f8e8 	bl	100051e8 <__malloc_unlock>
10005018:	0020      	movs	r0, r4
1000501a:	3008      	adds	r0, #8
1000501c:	e6df      	b.n	10004dde <_malloc_r+0x18a>
1000501e:	002b      	movs	r3, r5
10005020:	08e8      	lsrs	r0, r5, #3
10005022:	3308      	adds	r3, #8
10005024:	e62a      	b.n	10004c7c <_malloc_r+0x28>
10005026:	2301      	movs	r3, #1
10005028:	1960      	adds	r0, r4, r5
1000502a:	431d      	orrs	r5, r3
1000502c:	6065      	str	r5, [r4, #4]
1000502e:	6178      	str	r0, [r7, #20]
10005030:	6138      	str	r0, [r7, #16]
10005032:	60c2      	str	r2, [r0, #12]
10005034:	6082      	str	r2, [r0, #8]
10005036:	001a      	movs	r2, r3
10005038:	464b      	mov	r3, r9
1000503a:	430a      	orrs	r2, r1
1000503c:	6042      	str	r2, [r0, #4]
1000503e:	0030      	movs	r0, r6
10005040:	50e1      	str	r1, [r4, r3]
10005042:	f000 f8d1 	bl	100051e8 <__malloc_unlock>
10005046:	0020      	movs	r0, r4
10005048:	3008      	adds	r0, #8
1000504a:	e6c8      	b.n	10004dde <_malloc_r+0x18a>
1000504c:	099a      	lsrs	r2, r3, #6
1000504e:	0011      	movs	r1, r2
10005050:	3239      	adds	r2, #57	; 0x39
10005052:	3138      	adds	r1, #56	; 0x38
10005054:	00d2      	lsls	r2, r2, #3
10005056:	e78d      	b.n	10004f74 <_malloc_r+0x320>
10005058:	42bc      	cmp	r4, r7
1000505a:	d060      	beq.n	1000511e <_malloc_r+0x4ca>
1000505c:	68bc      	ldr	r4, [r7, #8]
1000505e:	6862      	ldr	r2, [r4, #4]
10005060:	2303      	movs	r3, #3
10005062:	439a      	bics	r2, r3
10005064:	1b53      	subs	r3, r2, r5
10005066:	4295      	cmp	r5, r2
10005068:	d802      	bhi.n	10005070 <_malloc_r+0x41c>
1000506a:	2b0f      	cmp	r3, #15
1000506c:	dd00      	ble.n	10005070 <_malloc_r+0x41c>
1000506e:	e769      	b.n	10004f44 <_malloc_r+0x2f0>
10005070:	0030      	movs	r0, r6
10005072:	f000 f8b9 	bl	100051e8 <__malloc_unlock>
10005076:	2000      	movs	r0, #0
10005078:	e6b1      	b.n	10004dde <_malloc_r+0x18a>
1000507a:	235b      	movs	r3, #91	; 0x5b
1000507c:	4698      	mov	r8, r3
1000507e:	4480      	add	r8, r0
10005080:	305c      	adds	r0, #92	; 0x5c
10005082:	00c1      	lsls	r1, r0, #3
10005084:	e62f      	b.n	10004ce6 <_malloc_r+0x92>
10005086:	2308      	movs	r3, #8
10005088:	425b      	negs	r3, r3
1000508a:	469c      	mov	ip, r3
1000508c:	44e1      	add	r9, ip
1000508e:	464b      	mov	r3, r9
10005090:	689b      	ldr	r3, [r3, #8]
10005092:	3801      	subs	r0, #1
10005094:	454b      	cmp	r3, r9
10005096:	d000      	beq.n	1000509a <_malloc_r+0x446>
10005098:	e098      	b.n	100051cc <_malloc_r+0x578>
1000509a:	4643      	mov	r3, r8
1000509c:	4203      	tst	r3, r0
1000509e:	d1f2      	bne.n	10005086 <_malloc_r+0x432>
100050a0:	687b      	ldr	r3, [r7, #4]
100050a2:	438b      	bics	r3, r1
100050a4:	607b      	str	r3, [r7, #4]
100050a6:	0049      	lsls	r1, r1, #1
100050a8:	4299      	cmp	r1, r3
100050aa:	d900      	bls.n	100050ae <_malloc_r+0x45a>
100050ac:	e6b5      	b.n	10004e1a <_malloc_r+0x1c6>
100050ae:	2900      	cmp	r1, #0
100050b0:	d104      	bne.n	100050bc <_malloc_r+0x468>
100050b2:	e6b2      	b.n	10004e1a <_malloc_r+0x1c6>
100050b4:	2204      	movs	r2, #4
100050b6:	4694      	mov	ip, r2
100050b8:	0049      	lsls	r1, r1, #1
100050ba:	44e2      	add	sl, ip
100050bc:	420b      	tst	r3, r1
100050be:	d0f9      	beq.n	100050b4 <_malloc_r+0x460>
100050c0:	4650      	mov	r0, sl
100050c2:	e65a      	b.n	10004d7a <_malloc_r+0x126>
100050c4:	3310      	adds	r3, #16
100050c6:	9300      	str	r3, [sp, #0]
100050c8:	e6c4      	b.n	10004e54 <_malloc_r+0x200>
100050ca:	1089      	asrs	r1, r1, #2
100050cc:	3b02      	subs	r3, #2
100050ce:	408b      	lsls	r3, r1
100050d0:	6879      	ldr	r1, [r7, #4]
100050d2:	430b      	orrs	r3, r1
100050d4:	607b      	str	r3, [r7, #4]
100050d6:	e764      	b.n	10004fa2 <_malloc_r+0x34e>
100050d8:	9b00      	ldr	r3, [sp, #0]
100050da:	0030      	movs	r0, r6
100050dc:	4443      	add	r3, r8
100050de:	425b      	negs	r3, r3
100050e0:	051b      	lsls	r3, r3, #20
100050e2:	0d1b      	lsrs	r3, r3, #20
100050e4:	0019      	movs	r1, r3
100050e6:	469b      	mov	fp, r3
100050e8:	f000 f886 	bl	100051f8 <_sbrk_r>
100050ec:	1c43      	adds	r3, r0, #1
100050ee:	d000      	beq.n	100050f2 <_malloc_r+0x49e>
100050f0:	e6f3      	b.n	10004eda <_malloc_r+0x286>
100050f2:	2300      	movs	r3, #0
100050f4:	469b      	mov	fp, r3
100050f6:	e6f5      	b.n	10004ee4 <_malloc_r+0x290>
100050f8:	2a54      	cmp	r2, #84	; 0x54
100050fa:	d82b      	bhi.n	10005154 <_malloc_r+0x500>
100050fc:	0b1a      	lsrs	r2, r3, #12
100050fe:	0011      	movs	r1, r2
10005100:	326f      	adds	r2, #111	; 0x6f
10005102:	316e      	adds	r1, #110	; 0x6e
10005104:	00d2      	lsls	r2, r2, #3
10005106:	e735      	b.n	10004f74 <_malloc_r+0x320>
10005108:	23aa      	movs	r3, #170	; 0xaa
1000510a:	005b      	lsls	r3, r3, #1
1000510c:	4298      	cmp	r0, r3
1000510e:	d82b      	bhi.n	10005168 <_malloc_r+0x514>
10005110:	3bdd      	subs	r3, #221	; 0xdd
10005112:	4698      	mov	r8, r3
10005114:	0be8      	lsrs	r0, r5, #15
10005116:	4480      	add	r8, r0
10005118:	3078      	adds	r0, #120	; 0x78
1000511a:	00c1      	lsls	r1, r0, #3
1000511c:	e5e3      	b.n	10004ce6 <_malloc_r+0x92>
1000511e:	4b2c      	ldr	r3, [pc, #176]	; (100051d0 <_malloc_r+0x57c>)
10005120:	9a00      	ldr	r2, [sp, #0]
10005122:	469a      	mov	sl, r3
10005124:	681b      	ldr	r3, [r3, #0]
10005126:	469c      	mov	ip, r3
10005128:	4653      	mov	r3, sl
1000512a:	4462      	add	r2, ip
1000512c:	601a      	str	r2, [r3, #0]
1000512e:	e6ad      	b.n	10004e8c <_malloc_r+0x238>
10005130:	0509      	lsls	r1, r1, #20
10005132:	d000      	beq.n	10005136 <_malloc_r+0x4e2>
10005134:	e6aa      	b.n	10004e8c <_malloc_r+0x238>
10005136:	0002      	movs	r2, r0
10005138:	68bc      	ldr	r4, [r7, #8]
1000513a:	444a      	add	r2, r9
1000513c:	3101      	adds	r1, #1
1000513e:	430a      	orrs	r2, r1
10005140:	6062      	str	r2, [r4, #4]
10005142:	e6f3      	b.n	10004f2c <_malloc_r+0x2d8>
10005144:	465b      	mov	r3, fp
10005146:	4642      	mov	r2, r8
10005148:	601a      	str	r2, [r3, #0]
1000514a:	e6aa      	b.n	10004ea2 <_malloc_r+0x24e>
1000514c:	4644      	mov	r4, r8
1000514e:	e6ed      	b.n	10004f2c <_malloc_r+0x2d8>
10005150:	6041      	str	r1, [r0, #4]
10005152:	e78d      	b.n	10005070 <_malloc_r+0x41c>
10005154:	21aa      	movs	r1, #170	; 0xaa
10005156:	0049      	lsls	r1, r1, #1
10005158:	428a      	cmp	r2, r1
1000515a:	d824      	bhi.n	100051a6 <_malloc_r+0x552>
1000515c:	0bda      	lsrs	r2, r3, #15
1000515e:	0011      	movs	r1, r2
10005160:	3278      	adds	r2, #120	; 0x78
10005162:	3177      	adds	r1, #119	; 0x77
10005164:	00d2      	lsls	r2, r2, #3
10005166:	e705      	b.n	10004f74 <_malloc_r+0x320>
10005168:	4b1a      	ldr	r3, [pc, #104]	; (100051d4 <_malloc_r+0x580>)
1000516a:	4298      	cmp	r0, r3
1000516c:	d824      	bhi.n	100051b8 <_malloc_r+0x564>
1000516e:	237c      	movs	r3, #124	; 0x7c
10005170:	4698      	mov	r8, r3
10005172:	0ca8      	lsrs	r0, r5, #18
10005174:	4480      	add	r8, r0
10005176:	307d      	adds	r0, #125	; 0x7d
10005178:	00c1      	lsls	r1, r0, #3
1000517a:	e5b4      	b.n	10004ce6 <_malloc_r+0x92>
1000517c:	9a00      	ldr	r2, [sp, #0]
1000517e:	9b01      	ldr	r3, [sp, #4]
10005180:	4694      	mov	ip, r2
10005182:	4642      	mov	r2, r8
10005184:	3b08      	subs	r3, #8
10005186:	4463      	add	r3, ip
10005188:	1a9b      	subs	r3, r3, r2
1000518a:	9300      	str	r3, [sp, #0]
1000518c:	2300      	movs	r3, #0
1000518e:	469b      	mov	fp, r3
10005190:	e6a8      	b.n	10004ee4 <_malloc_r+0x290>
10005192:	0021      	movs	r1, r4
10005194:	0030      	movs	r0, r6
10005196:	3108      	adds	r1, #8
10005198:	f000 f8bc 	bl	10005314 <_free_r>
1000519c:	4653      	mov	r3, sl
1000519e:	68bc      	ldr	r4, [r7, #8]
100051a0:	681b      	ldr	r3, [r3, #0]
100051a2:	6862      	ldr	r2, [r4, #4]
100051a4:	e6c2      	b.n	10004f2c <_malloc_r+0x2d8>
100051a6:	490b      	ldr	r1, [pc, #44]	; (100051d4 <_malloc_r+0x580>)
100051a8:	428a      	cmp	r2, r1
100051aa:	d80b      	bhi.n	100051c4 <_malloc_r+0x570>
100051ac:	0c9a      	lsrs	r2, r3, #18
100051ae:	0011      	movs	r1, r2
100051b0:	327d      	adds	r2, #125	; 0x7d
100051b2:	317c      	adds	r1, #124	; 0x7c
100051b4:	00d2      	lsls	r2, r2, #3
100051b6:	e6dd      	b.n	10004f74 <_malloc_r+0x320>
100051b8:	21fe      	movs	r1, #254	; 0xfe
100051ba:	237e      	movs	r3, #126	; 0x7e
100051bc:	207f      	movs	r0, #127	; 0x7f
100051be:	4698      	mov	r8, r3
100051c0:	0089      	lsls	r1, r1, #2
100051c2:	e590      	b.n	10004ce6 <_malloc_r+0x92>
100051c4:	22fe      	movs	r2, #254	; 0xfe
100051c6:	217e      	movs	r1, #126	; 0x7e
100051c8:	0092      	lsls	r2, r2, #2
100051ca:	e6d3      	b.n	10004f74 <_malloc_r+0x320>
100051cc:	687b      	ldr	r3, [r7, #4]
100051ce:	e76a      	b.n	100050a6 <_malloc_r+0x452>
100051d0:	20000f38 	.word	0x20000f38
100051d4:	00000554 	.word	0x00000554

100051d8 <__malloc_lock>:
100051d8:	b510      	push	{r4, lr}
100051da:	4802      	ldr	r0, [pc, #8]	; (100051e4 <__malloc_lock+0xc>)
100051dc:	f000 f97c 	bl	100054d8 <__retarget_lock_acquire_recursive>
100051e0:	bd10      	pop	{r4, pc}
100051e2:	46c0      	nop			; (mov r8, r8)
100051e4:	20000f34 	.word	0x20000f34

100051e8 <__malloc_unlock>:
100051e8:	b510      	push	{r4, lr}
100051ea:	4802      	ldr	r0, [pc, #8]	; (100051f4 <__malloc_unlock+0xc>)
100051ec:	f000 f976 	bl	100054dc <__retarget_lock_release_recursive>
100051f0:	bd10      	pop	{r4, pc}
100051f2:	46c0      	nop			; (mov r8, r8)
100051f4:	20000f34 	.word	0x20000f34

100051f8 <_sbrk_r>:
100051f8:	2300      	movs	r3, #0
100051fa:	b570      	push	{r4, r5, r6, lr}
100051fc:	4d06      	ldr	r5, [pc, #24]	; (10005218 <_sbrk_r+0x20>)
100051fe:	0004      	movs	r4, r0
10005200:	0008      	movs	r0, r1
10005202:	602b      	str	r3, [r5, #0]
10005204:	f7fb fef8 	bl	10000ff8 <_sbrk>
10005208:	1c43      	adds	r3, r0, #1
1000520a:	d000      	beq.n	1000520e <_sbrk_r+0x16>
1000520c:	bd70      	pop	{r4, r5, r6, pc}
1000520e:	682b      	ldr	r3, [r5, #0]
10005210:	2b00      	cmp	r3, #0
10005212:	d0fb      	beq.n	1000520c <_sbrk_r+0x14>
10005214:	6023      	str	r3, [r4, #0]
10005216:	e7f9      	b.n	1000520c <_sbrk_r+0x14>
10005218:	20000fe8 	.word	0x20000fe8

1000521c <strlen>:
1000521c:	b510      	push	{r4, lr}
1000521e:	0783      	lsls	r3, r0, #30
10005220:	d00a      	beq.n	10005238 <strlen+0x1c>
10005222:	0003      	movs	r3, r0
10005224:	2103      	movs	r1, #3
10005226:	e002      	b.n	1000522e <strlen+0x12>
10005228:	3301      	adds	r3, #1
1000522a:	420b      	tst	r3, r1
1000522c:	d005      	beq.n	1000523a <strlen+0x1e>
1000522e:	781a      	ldrb	r2, [r3, #0]
10005230:	2a00      	cmp	r2, #0
10005232:	d1f9      	bne.n	10005228 <strlen+0xc>
10005234:	1a18      	subs	r0, r3, r0
10005236:	bd10      	pop	{r4, pc}
10005238:	0003      	movs	r3, r0
1000523a:	6819      	ldr	r1, [r3, #0]
1000523c:	4a0c      	ldr	r2, [pc, #48]	; (10005270 <strlen+0x54>)
1000523e:	4c0d      	ldr	r4, [pc, #52]	; (10005274 <strlen+0x58>)
10005240:	188a      	adds	r2, r1, r2
10005242:	438a      	bics	r2, r1
10005244:	4222      	tst	r2, r4
10005246:	d10f      	bne.n	10005268 <strlen+0x4c>
10005248:	6859      	ldr	r1, [r3, #4]
1000524a:	4a09      	ldr	r2, [pc, #36]	; (10005270 <strlen+0x54>)
1000524c:	3304      	adds	r3, #4
1000524e:	188a      	adds	r2, r1, r2
10005250:	438a      	bics	r2, r1
10005252:	4222      	tst	r2, r4
10005254:	d108      	bne.n	10005268 <strlen+0x4c>
10005256:	6859      	ldr	r1, [r3, #4]
10005258:	4a05      	ldr	r2, [pc, #20]	; (10005270 <strlen+0x54>)
1000525a:	3304      	adds	r3, #4
1000525c:	188a      	adds	r2, r1, r2
1000525e:	438a      	bics	r2, r1
10005260:	4222      	tst	r2, r4
10005262:	d0f1      	beq.n	10005248 <strlen+0x2c>
10005264:	e000      	b.n	10005268 <strlen+0x4c>
10005266:	3301      	adds	r3, #1
10005268:	781a      	ldrb	r2, [r3, #0]
1000526a:	2a00      	cmp	r2, #0
1000526c:	d1fb      	bne.n	10005266 <strlen+0x4a>
1000526e:	e7e1      	b.n	10005234 <strlen+0x18>
10005270:	fefefeff 	.word	0xfefefeff
10005274:	80808080 	.word	0x80808080

10005278 <_malloc_trim_r>:
10005278:	b5f8      	push	{r3, r4, r5, r6, r7, lr}
1000527a:	000c      	movs	r4, r1
1000527c:	0005      	movs	r5, r0
1000527e:	f7ff ffab 	bl	100051d8 <__malloc_lock>
10005282:	4f20      	ldr	r7, [pc, #128]	; (10005304 <_malloc_trim_r+0x8c>)
10005284:	68bb      	ldr	r3, [r7, #8]
10005286:	685e      	ldr	r6, [r3, #4]
10005288:	2303      	movs	r3, #3
1000528a:	439e      	bics	r6, r3
1000528c:	4b1e      	ldr	r3, [pc, #120]	; (10005308 <_malloc_trim_r+0x90>)
1000528e:	1b34      	subs	r4, r6, r4
10005290:	469c      	mov	ip, r3
10005292:	4464      	add	r4, ip
10005294:	0b24      	lsrs	r4, r4, #12
10005296:	3c01      	subs	r4, #1
10005298:	3311      	adds	r3, #17
1000529a:	0324      	lsls	r4, r4, #12
1000529c:	429c      	cmp	r4, r3
1000529e:	db07      	blt.n	100052b0 <_malloc_trim_r+0x38>
100052a0:	2100      	movs	r1, #0
100052a2:	0028      	movs	r0, r5
100052a4:	f7ff ffa8 	bl	100051f8 <_sbrk_r>
100052a8:	68bb      	ldr	r3, [r7, #8]
100052aa:	199b      	adds	r3, r3, r6
100052ac:	4298      	cmp	r0, r3
100052ae:	d004      	beq.n	100052ba <_malloc_trim_r+0x42>
100052b0:	0028      	movs	r0, r5
100052b2:	f7ff ff99 	bl	100051e8 <__malloc_unlock>
100052b6:	2000      	movs	r0, #0
100052b8:	bdf8      	pop	{r3, r4, r5, r6, r7, pc}
100052ba:	0028      	movs	r0, r5
100052bc:	4261      	negs	r1, r4
100052be:	f7ff ff9b 	bl	100051f8 <_sbrk_r>
100052c2:	1c43      	adds	r3, r0, #1
100052c4:	d00d      	beq.n	100052e2 <_malloc_trim_r+0x6a>
100052c6:	2201      	movs	r2, #1
100052c8:	68bb      	ldr	r3, [r7, #8]
100052ca:	1b36      	subs	r6, r6, r4
100052cc:	4316      	orrs	r6, r2
100052ce:	605e      	str	r6, [r3, #4]
100052d0:	4b0e      	ldr	r3, [pc, #56]	; (1000530c <_malloc_trim_r+0x94>)
100052d2:	0028      	movs	r0, r5
100052d4:	681a      	ldr	r2, [r3, #0]
100052d6:	1b14      	subs	r4, r2, r4
100052d8:	601c      	str	r4, [r3, #0]
100052da:	f7ff ff85 	bl	100051e8 <__malloc_unlock>
100052de:	2001      	movs	r0, #1
100052e0:	e7ea      	b.n	100052b8 <_malloc_trim_r+0x40>
100052e2:	2100      	movs	r1, #0
100052e4:	0028      	movs	r0, r5
100052e6:	f7ff ff87 	bl	100051f8 <_sbrk_r>
100052ea:	68ba      	ldr	r2, [r7, #8]
100052ec:	1a83      	subs	r3, r0, r2
100052ee:	2b0f      	cmp	r3, #15
100052f0:	ddde      	ble.n	100052b0 <_malloc_trim_r+0x38>
100052f2:	4907      	ldr	r1, [pc, #28]	; (10005310 <_malloc_trim_r+0x98>)
100052f4:	6809      	ldr	r1, [r1, #0]
100052f6:	1a40      	subs	r0, r0, r1
100052f8:	4904      	ldr	r1, [pc, #16]	; (1000530c <_malloc_trim_r+0x94>)
100052fa:	6008      	str	r0, [r1, #0]
100052fc:	2101      	movs	r1, #1
100052fe:	430b      	orrs	r3, r1
10005300:	6053      	str	r3, [r2, #4]
10005302:	e7d5      	b.n	100052b0 <_malloc_trim_r+0x38>
10005304:	20000658 	.word	0x20000658
10005308:	00000fef 	.word	0x00000fef
1000530c:	20000f38 	.word	0x20000f38
10005310:	20000a60 	.word	0x20000a60

10005314 <_free_r>:
10005314:	b5f0      	push	{r4, r5, r6, r7, lr}
10005316:	46c6      	mov	lr, r8
10005318:	0005      	movs	r5, r0
1000531a:	000c      	movs	r4, r1
1000531c:	b500      	push	{lr}
1000531e:	2900      	cmp	r1, #0
10005320:	d04f      	beq.n	100053c2 <_free_r+0xae>
10005322:	f7ff ff59 	bl	100051d8 <__malloc_lock>
10005326:	0021      	movs	r1, r4
10005328:	3908      	subs	r1, #8
1000532a:	684c      	ldr	r4, [r1, #4]
1000532c:	2601      	movs	r6, #1
1000532e:	0022      	movs	r2, r4
10005330:	2003      	movs	r0, #3
10005332:	43b2      	bics	r2, r6
10005334:	188f      	adds	r7, r1, r2
10005336:	687b      	ldr	r3, [r7, #4]
10005338:	4383      	bics	r3, r0
1000533a:	4862      	ldr	r0, [pc, #392]	; (100054c4 <_free_r+0x1b0>)
1000533c:	4698      	mov	r8, r3
1000533e:	6883      	ldr	r3, [r0, #8]
10005340:	42bb      	cmp	r3, r7
10005342:	d06a      	beq.n	1000541a <_free_r+0x106>
10005344:	4643      	mov	r3, r8
10005346:	607b      	str	r3, [r7, #4]
10005348:	4226      	tst	r6, r4
1000534a:	d11e      	bne.n	1000538a <_free_r+0x76>
1000534c:	2308      	movs	r3, #8
1000534e:	469c      	mov	ip, r3
10005350:	680c      	ldr	r4, [r1, #0]
10005352:	4484      	add	ip, r0
10005354:	1b09      	subs	r1, r1, r4
10005356:	1912      	adds	r2, r2, r4
10005358:	688c      	ldr	r4, [r1, #8]
1000535a:	4564      	cmp	r4, ip
1000535c:	d04f      	beq.n	100053fe <_free_r+0xea>
1000535e:	68cb      	ldr	r3, [r1, #12]
10005360:	60e3      	str	r3, [r4, #12]
10005362:	609c      	str	r4, [r3, #8]
10005364:	4643      	mov	r3, r8
10005366:	18fc      	adds	r4, r7, r3
10005368:	6864      	ldr	r4, [r4, #4]
1000536a:	4234      	tst	r4, r6
1000536c:	d111      	bne.n	10005392 <_free_r+0x7e>
1000536e:	68bb      	ldr	r3, [r7, #8]
10005370:	4c55      	ldr	r4, [pc, #340]	; (100054c8 <_free_r+0x1b4>)
10005372:	4442      	add	r2, r8
10005374:	42a3      	cmp	r3, r4
10005376:	d100      	bne.n	1000537a <_free_r+0x66>
10005378:	e07e      	b.n	10005478 <_free_r+0x164>
1000537a:	68fc      	ldr	r4, [r7, #12]
1000537c:	60dc      	str	r4, [r3, #12]
1000537e:	60a3      	str	r3, [r4, #8]
10005380:	2301      	movs	r3, #1
10005382:	4313      	orrs	r3, r2
10005384:	604b      	str	r3, [r1, #4]
10005386:	508a      	str	r2, [r1, r2]
10005388:	e006      	b.n	10005398 <_free_r+0x84>
1000538a:	18fc      	adds	r4, r7, r3
1000538c:	6864      	ldr	r4, [r4, #4]
1000538e:	4234      	tst	r4, r6
10005390:	d0ed      	beq.n	1000536e <_free_r+0x5a>
10005392:	4316      	orrs	r6, r2
10005394:	604e      	str	r6, [r1, #4]
10005396:	603a      	str	r2, [r7, #0]
10005398:	2380      	movs	r3, #128	; 0x80
1000539a:	009b      	lsls	r3, r3, #2
1000539c:	429a      	cmp	r2, r3
1000539e:	d213      	bcs.n	100053c8 <_free_r+0xb4>
100053a0:	0954      	lsrs	r4, r2, #5
100053a2:	08d3      	lsrs	r3, r2, #3
100053a4:	2201      	movs	r2, #1
100053a6:	40a2      	lsls	r2, r4
100053a8:	6844      	ldr	r4, [r0, #4]
100053aa:	00db      	lsls	r3, r3, #3
100053ac:	4322      	orrs	r2, r4
100053ae:	6042      	str	r2, [r0, #4]
100053b0:	1818      	adds	r0, r3, r0
100053b2:	6883      	ldr	r3, [r0, #8]
100053b4:	60c8      	str	r0, [r1, #12]
100053b6:	608b      	str	r3, [r1, #8]
100053b8:	6081      	str	r1, [r0, #8]
100053ba:	60d9      	str	r1, [r3, #12]
100053bc:	0028      	movs	r0, r5
100053be:	f7ff ff13 	bl	100051e8 <__malloc_unlock>
100053c2:	bc80      	pop	{r7}
100053c4:	46b8      	mov	r8, r7
100053c6:	bdf0      	pop	{r4, r5, r6, r7, pc}
100053c8:	0a53      	lsrs	r3, r2, #9
100053ca:	2b04      	cmp	r3, #4
100053cc:	d83e      	bhi.n	1000544c <_free_r+0x138>
100053ce:	0994      	lsrs	r4, r2, #6
100053d0:	0026      	movs	r6, r4
100053d2:	3439      	adds	r4, #57	; 0x39
100053d4:	3638      	adds	r6, #56	; 0x38
100053d6:	00e4      	lsls	r4, r4, #3
100053d8:	1904      	adds	r4, r0, r4
100053da:	6823      	ldr	r3, [r4, #0]
100053dc:	3c08      	subs	r4, #8
100053de:	2703      	movs	r7, #3
100053e0:	429c      	cmp	r4, r3
100053e2:	d042      	beq.n	1000546a <_free_r+0x156>
100053e4:	6858      	ldr	r0, [r3, #4]
100053e6:	43b8      	bics	r0, r7
100053e8:	4290      	cmp	r0, r2
100053ea:	d902      	bls.n	100053f2 <_free_r+0xde>
100053ec:	689b      	ldr	r3, [r3, #8]
100053ee:	429c      	cmp	r4, r3
100053f0:	d1f8      	bne.n	100053e4 <_free_r+0xd0>
100053f2:	68dc      	ldr	r4, [r3, #12]
100053f4:	60cc      	str	r4, [r1, #12]
100053f6:	608b      	str	r3, [r1, #8]
100053f8:	60a1      	str	r1, [r4, #8]
100053fa:	60d9      	str	r1, [r3, #12]
100053fc:	e7de      	b.n	100053bc <_free_r+0xa8>
100053fe:	4643      	mov	r3, r8
10005400:	18f8      	adds	r0, r7, r3
10005402:	6840      	ldr	r0, [r0, #4]
10005404:	4230      	tst	r0, r6
10005406:	d157      	bne.n	100054b8 <_free_r+0x1a4>
10005408:	68fb      	ldr	r3, [r7, #12]
1000540a:	68b8      	ldr	r0, [r7, #8]
1000540c:	4442      	add	r2, r8
1000540e:	4316      	orrs	r6, r2
10005410:	60c3      	str	r3, [r0, #12]
10005412:	6098      	str	r0, [r3, #8]
10005414:	604e      	str	r6, [r1, #4]
10005416:	508a      	str	r2, [r1, r2]
10005418:	e7d0      	b.n	100053bc <_free_r+0xa8>
1000541a:	0013      	movs	r3, r2
1000541c:	4443      	add	r3, r8
1000541e:	4226      	tst	r6, r4
10005420:	d106      	bne.n	10005430 <_free_r+0x11c>
10005422:	680a      	ldr	r2, [r1, #0]
10005424:	1a89      	subs	r1, r1, r2
10005426:	688c      	ldr	r4, [r1, #8]
10005428:	189b      	adds	r3, r3, r2
1000542a:	68ca      	ldr	r2, [r1, #12]
1000542c:	60e2      	str	r2, [r4, #12]
1000542e:	6094      	str	r4, [r2, #8]
10005430:	2201      	movs	r2, #1
10005432:	431a      	orrs	r2, r3
10005434:	604a      	str	r2, [r1, #4]
10005436:	4a25      	ldr	r2, [pc, #148]	; (100054cc <_free_r+0x1b8>)
10005438:	6081      	str	r1, [r0, #8]
1000543a:	6812      	ldr	r2, [r2, #0]
1000543c:	429a      	cmp	r2, r3
1000543e:	d8bd      	bhi.n	100053bc <_free_r+0xa8>
10005440:	4b23      	ldr	r3, [pc, #140]	; (100054d0 <_free_r+0x1bc>)
10005442:	0028      	movs	r0, r5
10005444:	6819      	ldr	r1, [r3, #0]
10005446:	f7ff ff17 	bl	10005278 <_malloc_trim_r>
1000544a:	e7b7      	b.n	100053bc <_free_r+0xa8>
1000544c:	2b14      	cmp	r3, #20
1000544e:	d907      	bls.n	10005460 <_free_r+0x14c>
10005450:	2b54      	cmp	r3, #84	; 0x54
10005452:	d81a      	bhi.n	1000548a <_free_r+0x176>
10005454:	0b14      	lsrs	r4, r2, #12
10005456:	0026      	movs	r6, r4
10005458:	346f      	adds	r4, #111	; 0x6f
1000545a:	366e      	adds	r6, #110	; 0x6e
1000545c:	00e4      	lsls	r4, r4, #3
1000545e:	e7bb      	b.n	100053d8 <_free_r+0xc4>
10005460:	001e      	movs	r6, r3
10005462:	335c      	adds	r3, #92	; 0x5c
10005464:	365b      	adds	r6, #91	; 0x5b
10005466:	00dc      	lsls	r4, r3, #3
10005468:	e7b6      	b.n	100053d8 <_free_r+0xc4>
1000546a:	2201      	movs	r2, #1
1000546c:	10b6      	asrs	r6, r6, #2
1000546e:	40b2      	lsls	r2, r6
10005470:	6846      	ldr	r6, [r0, #4]
10005472:	4332      	orrs	r2, r6
10005474:	6042      	str	r2, [r0, #4]
10005476:	e7bd      	b.n	100053f4 <_free_r+0xe0>
10005478:	60d9      	str	r1, [r3, #12]
1000547a:	6099      	str	r1, [r3, #8]
1000547c:	60cb      	str	r3, [r1, #12]
1000547e:	608b      	str	r3, [r1, #8]
10005480:	2301      	movs	r3, #1
10005482:	4313      	orrs	r3, r2
10005484:	604b      	str	r3, [r1, #4]
10005486:	508a      	str	r2, [r1, r2]
10005488:	e798      	b.n	100053bc <_free_r+0xa8>
1000548a:	24aa      	movs	r4, #170	; 0xaa
1000548c:	0064      	lsls	r4, r4, #1
1000548e:	42a3      	cmp	r3, r4
10005490:	d805      	bhi.n	1000549e <_free_r+0x18a>
10005492:	0bd4      	lsrs	r4, r2, #15
10005494:	0026      	movs	r6, r4
10005496:	3478      	adds	r4, #120	; 0x78
10005498:	3677      	adds	r6, #119	; 0x77
1000549a:	00e4      	lsls	r4, r4, #3
1000549c:	e79c      	b.n	100053d8 <_free_r+0xc4>
1000549e:	4c0d      	ldr	r4, [pc, #52]	; (100054d4 <_free_r+0x1c0>)
100054a0:	42a3      	cmp	r3, r4
100054a2:	d805      	bhi.n	100054b0 <_free_r+0x19c>
100054a4:	0c94      	lsrs	r4, r2, #18
100054a6:	0026      	movs	r6, r4
100054a8:	347d      	adds	r4, #125	; 0x7d
100054aa:	367c      	adds	r6, #124	; 0x7c
100054ac:	00e4      	lsls	r4, r4, #3
100054ae:	e793      	b.n	100053d8 <_free_r+0xc4>
100054b0:	24fe      	movs	r4, #254	; 0xfe
100054b2:	267e      	movs	r6, #126	; 0x7e
100054b4:	00a4      	lsls	r4, r4, #2
100054b6:	e78f      	b.n	100053d8 <_free_r+0xc4>
100054b8:	0033      	movs	r3, r6
100054ba:	4313      	orrs	r3, r2
100054bc:	604b      	str	r3, [r1, #4]
100054be:	603a      	str	r2, [r7, #0]
100054c0:	e77c      	b.n	100053bc <_free_r+0xa8>
100054c2:	46c0      	nop			; (mov r8, r8)
100054c4:	20000658 	.word	0x20000658
100054c8:	20000660 	.word	0x20000660
100054cc:	20000a64 	.word	0x20000a64
100054d0:	20000f68 	.word	0x20000f68
100054d4:	00000554 	.word	0x00000554

100054d8 <__retarget_lock_acquire_recursive>:
100054d8:	4770      	bx	lr
100054da:	46c0      	nop			; (mov r8, r8)

100054dc <__retarget_lock_release_recursive>:
100054dc:	4770      	bx	lr
100054de:	46c0      	nop			; (mov r8, r8)

100054e0 <_fini>:
100054e0:	b5f8      	push	{r3, r4, r5, r6, r7, lr}
100054e2:	46c0      	nop			; (mov r8, r8)
100054e4:	0000      	movs	r0, r0
	...

100054e8 <__mutex_exit_veneer>:
100054e8:	b401      	push	{r0}
100054ea:	4802      	ldr	r0, [pc, #8]	; (100054f4 <__mutex_exit_veneer+0xc>)
100054ec:	4684      	mov	ip, r0
100054ee:	bc01      	pop	{r0}
100054f0:	4760      	bx	ip
100054f2:	bf00      	nop
100054f4:	2000014d 	.word	0x2000014d

100054f8 <____aeabi_idiv0_veneer>:
100054f8:	b401      	push	{r0}
100054fa:	4802      	ldr	r0, [pc, #8]	; (10005504 <____aeabi_idiv0_veneer+0xc>)
100054fc:	4684      	mov	ip, r0
100054fe:	bc01      	pop	{r0}
10005500:	4760      	bx	ip
10005502:	bf00      	nop
10005504:	20000175 	.word	0x20000175

10005508 <__mutex_try_enter_veneer>:
10005508:	b401      	push	{r0}
1000550a:	4802      	ldr	r0, [pc, #8]	; (10005514 <__mutex_try_enter_veneer+0xc>)
1000550c:	4684      	mov	ip, r0
1000550e:	bc01      	pop	{r0}
10005510:	4760      	bx	ip
10005512:	bf00      	nop
10005514:	20000109 	.word	0x20000109

10005518 <__mutex_enter_blocking_veneer>:
10005518:	b401      	push	{r0}
1000551a:	4802      	ldr	r0, [pc, #8]	; (10005524 <__mutex_enter_blocking_veneer+0xc>)
1000551c:	4684      	mov	ip, r0
1000551e:	bc01      	pop	{r0}
10005520:	4760      	bx	ip
10005522:	bf00      	nop
10005524:	200000c1 	.word	0x200000c1

Disassembly of section .data:

200000c0 <mutex_enter_blocking>:
200000c0:	23d0      	movs	r3, #208	; 0xd0
200000c2:	b530      	push	{r4, r5, lr}
200000c4:	2500      	movs	r5, #0
200000c6:	061b      	lsls	r3, r3, #24
200000c8:	2400      	movs	r4, #0
200000ca:	575d      	ldrsb	r5, [r3, r5]
200000cc:	e006      	b.n	200000dc <mutex_enter_blocking+0x1c>
200000ce:	6803      	ldr	r3, [r0, #0]
200000d0:	f3bf 8f5f 	dmb	sy
200000d4:	601c      	str	r4, [r3, #0]
200000d6:	f381 8810 	msr	PRIMASK, r1
200000da:	bf20      	wfe
200000dc:	6802      	ldr	r2, [r0, #0]
200000de:	f3ef 8110 	mrs	r1, PRIMASK
200000e2:	b672      	cpsid	i
200000e4:	6813      	ldr	r3, [r2, #0]
200000e6:	2b00      	cmp	r3, #0
200000e8:	d0fc      	beq.n	200000e4 <mutex_enter_blocking+0x24>
200000ea:	f3bf 8f5f 	dmb	sy
200000ee:	7903      	ldrb	r3, [r0, #4]
200000f0:	2b7f      	cmp	r3, #127	; 0x7f
200000f2:	d9ec      	bls.n	200000ce <mutex_enter_blocking+0xe>
200000f4:	7105      	strb	r5, [r0, #4]
200000f6:	6803      	ldr	r3, [r0, #0]
200000f8:	f3bf 8f5f 	dmb	sy
200000fc:	2200      	movs	r2, #0
200000fe:	601a      	str	r2, [r3, #0]
20000100:	f381 8810 	msr	PRIMASK, r1
20000104:	bd30      	pop	{r4, r5, pc}
20000106:	46c0      	nop			; (mov r8, r8)

20000108 <mutex_try_enter>:
20000108:	0003      	movs	r3, r0
2000010a:	6800      	ldr	r0, [r0, #0]
2000010c:	f3ef 8c10 	mrs	ip, PRIMASK
20000110:	b672      	cpsid	i
20000112:	6802      	ldr	r2, [r0, #0]
20000114:	2a00      	cmp	r2, #0
20000116:	d0fc      	beq.n	20000112 <mutex_try_enter+0xa>
20000118:	f3bf 8f5f 	dmb	sy
2000011c:	2204      	movs	r2, #4
2000011e:	569a      	ldrsb	r2, [r3, r2]
20000120:	2a00      	cmp	r2, #0
20000122:	db0b      	blt.n	2000013c <mutex_try_enter+0x34>
20000124:	2900      	cmp	r1, #0
20000126:	d00f      	beq.n	20000148 <mutex_try_enter+0x40>
20000128:	2000      	movs	r0, #0
2000012a:	600a      	str	r2, [r1, #0]
2000012c:	681b      	ldr	r3, [r3, #0]
2000012e:	f3bf 8f5f 	dmb	sy
20000132:	2200      	movs	r2, #0
20000134:	601a      	str	r2, [r3, #0]
20000136:	f38c 8810 	msr	PRIMASK, ip
2000013a:	4770      	bx	lr
2000013c:	22d0      	movs	r2, #208	; 0xd0
2000013e:	0612      	lsls	r2, r2, #24
20000140:	6812      	ldr	r2, [r2, #0]
20000142:	2001      	movs	r0, #1
20000144:	711a      	strb	r2, [r3, #4]
20000146:	e7f1      	b.n	2000012c <mutex_try_enter+0x24>
20000148:	2000      	movs	r0, #0
2000014a:	e7ef      	b.n	2000012c <mutex_try_enter+0x24>

2000014c <mutex_exit>:
2000014c:	6802      	ldr	r2, [r0, #0]
2000014e:	f3ef 8110 	mrs	r1, PRIMASK
20000152:	b672      	cpsid	i
20000154:	6813      	ldr	r3, [r2, #0]
20000156:	2b00      	cmp	r3, #0
20000158:	d0fc      	beq.n	20000154 <mutex_exit+0x8>
2000015a:	f3bf 8f5f 	dmb	sy
2000015e:	23ff      	movs	r3, #255	; 0xff
20000160:	7103      	strb	r3, [r0, #4]
20000162:	6803      	ldr	r3, [r0, #0]
20000164:	f3bf 8f5f 	dmb	sy
20000168:	2200      	movs	r2, #0
2000016a:	601a      	str	r2, [r3, #0]
2000016c:	f381 8810 	msr	PRIMASK, r1
20000170:	bf40      	sev
20000172:	4770      	bx	lr

20000174 <__aeabi_idiv0>:
20000174:	4770      	bx	lr
20000176:	46c0      	nop			; (mov r8, r8)

20000178 <striped_spin_lock_num>:
20000178:	0010 0000                                   ....

2000017c <default_alarm_pool>:
2000017c:	0194 2000 0000 0000 0ad8 2000 0fa4 2000     ... ....... ... 
	...

20000194 <default_alarm_pool_heap>:
20000194:	0fb4 2000 0000 0000 0000 0000 0010 0000     ... ............

200001a4 <irq_handler_chain_slots>:
200001a4:	00000000 	.word	0x00000000
200001a8:	00010000 	.word	0x00010000
	...
200001b4:	00020000 	.word	0x00020000
	...
200001c0:	00030000 	.word	0x00030000
	...
200001cc:	00ff0000 	.word	0x00ff0000
200001d0:	00000000 	.word	0x00000000

200001d4 <irq_handler_chain_first_slot>:
200001d4:	b500      	push	{lr}
200001d6:	6848      	ldr	r0, [r1, #4]
200001d8:	3101      	adds	r1, #1
200001da:	468e      	mov	lr, r1
200001dc:	4700      	bx	r0

200001de <irq_handler_chain_remove_tail>:
200001de:	4670      	mov	r0, lr
200001e0:	3809      	subs	r0, #9
200001e2:	4901      	ldr	r1, [pc, #4]	; (200001e8 <irq_handler_chain_remove_tail+0xa>)
200001e4:	4788      	blx	r1
200001e6:	bd00      	pop	{pc}
200001e8:	10001571 	.word	0x10001571
200001ec:	00000000 	.word	0x00000000

200001f0 <aeabi_bits_funcs>:
200001f0:	00003350 	.word	0x00003350
200001f4:	0000334c 	.word	0x0000334c
200001f8:	00003354 	.word	0x00003354
200001fc:	00003352 	.word	0x00003352

20000200 <aeabi_bits_funcs_end>:
20000200:	0000534d 	.word	0x0000534d
20000204:	0000434d 	.word	0x0000434d
20000208:	00003453 	.word	0x00003453
2000020c:	00003443 	.word	0x00003443

20000210 <stdio_uart>:
20000210:	10001cad 00000000 10001cf9 00000000     ................
20000220:	00000100                                ....

20000224 <uxTopUsedPriority>:
20000224:	00000004                                ....

20000228 <uxCriticalNesting>:
20000228:	aaaaaaaa                                ....

2000022c <_impure_ptr>:
2000022c:	20000230                                0.. 

20000230 <impure_data>:
20000230:	00000000 2000051c 20000584 200005ec     ....... ... ... 
	...
200002d8:	00000001 00000000 abcd330e e66d1234     .........3..4.m.
200002e8:	0005deec 0000000b 00000000 00000000     ................
	...

20000658 <__malloc_av_>:
	...
20000660:	20000658 20000658 20000660 20000660     X.. X.. `.. `.. 
20000670:	20000668 20000668 20000670 20000670     h.. h.. p.. p.. 
20000680:	20000678 20000678 20000680 20000680     x.. x.. ... ... 
20000690:	20000688 20000688 20000690 20000690     ... ... ... ... 
200006a0:	20000698 20000698 200006a0 200006a0     ... ... ... ... 
200006b0:	200006a8 200006a8 200006b0 200006b0     ... ... ... ... 
200006c0:	200006b8 200006b8 200006c0 200006c0     ... ... ... ... 
200006d0:	200006c8 200006c8 200006d0 200006d0     ... ... ... ... 
200006e0:	200006d8 200006d8 200006e0 200006e0     ... ... ... ... 
200006f0:	200006e8 200006e8 200006f0 200006f0     ... ... ... ... 
20000700:	200006f8 200006f8 20000700 20000700     ... ... ... ... 
20000710:	20000708 20000708 20000710 20000710     ... ... ... ... 
20000720:	20000718 20000718 20000720 20000720     ... ...  ..  .. 
20000730:	20000728 20000728 20000730 20000730     (.. (.. 0.. 0.. 
20000740:	20000738 20000738 20000740 20000740     8.. 8.. @.. @.. 
20000750:	20000748 20000748 20000750 20000750     H.. H.. P.. P.. 
20000760:	20000758 20000758 20000760 20000760     X.. X.. `.. `.. 
20000770:	20000768 20000768 20000770 20000770     h.. h.. p.. p.. 
20000780:	20000778 20000778 20000780 20000780     x.. x.. ... ... 
20000790:	20000788 20000788 20000790 20000790     ... ... ... ... 
200007a0:	20000798 20000798 200007a0 200007a0     ... ... ... ... 
200007b0:	200007a8 200007a8 200007b0 200007b0     ... ... ... ... 
200007c0:	200007b8 200007b8 200007c0 200007c0     ... ... ... ... 
200007d0:	200007c8 200007c8 200007d0 200007d0     ... ... ... ... 
200007e0:	200007d8 200007d8 200007e0 200007e0     ... ... ... ... 
200007f0:	200007e8 200007e8 200007f0 200007f0     ... ... ... ... 
20000800:	200007f8 200007f8 20000800 20000800     ... ... ... ... 
20000810:	20000808 20000808 20000810 20000810     ... ... ... ... 
20000820:	20000818 20000818 20000820 20000820     ... ...  ..  .. 
20000830:	20000828 20000828 20000830 20000830     (.. (.. 0.. 0.. 
20000840:	20000838 20000838 20000840 20000840     8.. 8.. @.. @.. 
20000850:	20000848 20000848 20000850 20000850     H.. H.. P.. P.. 
20000860:	20000858 20000858 20000860 20000860     X.. X.. `.. `.. 
20000870:	20000868 20000868 20000870 20000870     h.. h.. p.. p.. 
20000880:	20000878 20000878 20000880 20000880     x.. x.. ... ... 
20000890:	20000888 20000888 20000890 20000890     ... ... ... ... 
200008a0:	20000898 20000898 200008a0 200008a0     ... ... ... ... 
200008b0:	200008a8 200008a8 200008b0 200008b0     ... ... ... ... 
200008c0:	200008b8 200008b8 200008c0 200008c0     ... ... ... ... 
200008d0:	200008c8 200008c8 200008d0 200008d0     ... ... ... ... 
200008e0:	200008d8 200008d8 200008e0 200008e0     ... ... ... ... 
200008f0:	200008e8 200008e8 200008f0 200008f0     ... ... ... ... 
20000900:	200008f8 200008f8 20000900 20000900     ... ... ... ... 
20000910:	20000908 20000908 20000910 20000910     ... ... ... ... 
20000920:	20000918 20000918 20000920 20000920     ... ...  ..  .. 
20000930:	20000928 20000928 20000930 20000930     (.. (.. 0.. 0.. 
20000940:	20000938 20000938 20000940 20000940     8.. 8.. @.. @.. 
20000950:	20000948 20000948 20000950 20000950     H.. H.. P.. P.. 
20000960:	20000958 20000958 20000960 20000960     X.. X.. `.. `.. 
20000970:	20000968 20000968 20000970 20000970     h.. h.. p.. p.. 
20000980:	20000978 20000978 20000980 20000980     x.. x.. ... ... 
20000990:	20000988 20000988 20000990 20000990     ... ... ... ... 
200009a0:	20000998 20000998 200009a0 200009a0     ... ... ... ... 
200009b0:	200009a8 200009a8 200009b0 200009b0     ... ... ... ... 
200009c0:	200009b8 200009b8 200009c0 200009c0     ... ... ... ... 
200009d0:	200009c8 200009c8 200009d0 200009d0     ... ... ... ... 
200009e0:	200009d8 200009d8 200009e0 200009e0     ... ... ... ... 
200009f0:	200009e8 200009e8 200009f0 200009f0     ... ... ... ... 
20000a00:	200009f8 200009f8 20000a00 20000a00     ... ... ... ... 
20000a10:	20000a08 20000a08 20000a10 20000a10     ... ... ... ... 
20000a20:	20000a18 20000a18 20000a20 20000a20     ... ...  ..  .. 
20000a30:	20000a28 20000a28 20000a30 20000a30     (.. (.. 0.. 0.. 
20000a40:	20000a38 20000a38 20000a40 20000a40     8.. 8.. @.. @.. 
20000a50:	20000a48 20000a48 20000a50 20000a50     H.. H.. P.. P.. 

20000a60 <__malloc_sbrk_base>:
20000a60:	ffffffff                                ....

20000a64 <__malloc_trim_threshold>:
20000a64:	00020000                                ....

20000a68 <print_mutex>:
	...

20000a70 <__mutex_array_end>:
20000a70:	100019a5 	.word	0x100019a5
20000a74:	10001769 	.word	0x10001769
20000a78:	10001829 	.word	0x10001829
20000a7c:	100018e9 	.word	0x100018e9

20000a80 <__frame_dummy_init_array_entry>:
20000a80:	100002ed                                ....
